
microbench.bin:     file format binary


Disassembly of section .data:

0000000000000000 <.data>:
       0:	00000413          	li	s0,0
       4:	0000f117          	auipc	sp,0xf
       8:	ffc10113          	addi	sp,sp,-4 # 0xf000
       c:	640040ef          	jal	ra,0x464c
      10:	fd010113          	addi	sp,sp,-48
      14:	01213823          	0x1213823
      18:	01313423          	0x1313423
      1c:	01413023          	0x1413023
      20:	02113423          	0x2113423
      24:	02813023          	0x2813023
      28:	00913c23          	0x913c23
      2c:	00050993          	mv	s3,a0
      30:	00060a13          	mv	s4,a2
      34:	00850913          	addi	s2,a0,8
      38:	0945de63          	bge	a1,s4,0xd4
      3c:	ffea049b          	0xffea049b
      40:	00259793          	slli	a5,a1,0x2
      44:	00f98e33          	add	t3,s3,a5
      48:	0015871b          	0x15871b
      4c:	000e2303          	lw	t1,0(t3)
      50:	0b475263          	bge	a4,s4,0xf4
      54:	40b4853b          	0x40b4853b
      58:	02051513          	slli	a0,a0,0x20
      5c:	02055513          	srli	a0,a0,0x20
      60:	00b50533          	add	a0,a0,a1
      64:	00478793          	addi	a5,a5,4
      68:	00251513          	slli	a0,a0,0x2
      6c:	00f987b3          	add	a5,s3,a5
      70:	01250533          	add	a0,a0,s2
      74:	00058613          	mv	a2,a1
      78:	0007a683          	lw	a3,0(a5)
      7c:	0016041b          	0x16041b
      80:	00241713          	slli	a4,s0,0x2
      84:	0026081b          	0x26081b
      88:	00e98733          	add	a4,s3,a4
      8c:	0066dc63          	bge	a3,t1,0xa4
      90:	00072883          	lw	a7,0(a4)
      94:	00d72023          	sw	a3,0(a4)
      98:	00040613          	mv	a2,s0
      9c:	0117a023          	sw	a7,0(a5)
      a0:	00080413          	mv	s0,a6
      a4:	00478793          	addi	a5,a5,4
      a8:	fcf518e3          	bne	a0,a5,0x78
      ac:	00261793          	slli	a5,a2,0x2
      b0:	00f987b3          	add	a5,s3,a5
      b4:	000e2683          	lw	a3,0(t3)
      b8:	0007a703          	lw	a4,0(a5)
      bc:	00098513          	mv	a0,s3
      c0:	00d7a023          	sw	a3,0(a5)
      c4:	00ee2023          	sw	a4,0(t3)
      c8:	f49ff0ef          	jal	ra,0x10
      cc:	00040593          	mv	a1,s0
      d0:	f74448e3          	blt	s0,s4,0x40
      d4:	02813083          	0x2813083
      d8:	02013403          	0x2013403
      dc:	01813483          	0x1813483
      e0:	01013903          	0x1013903
      e4:	00813983          	0x813983
      e8:	00013a03          	0x13a03
      ec:	03010113          	addi	sp,sp,48
      f0:	00008067          	ret
      f4:	00058a13          	mv	s4,a1
      f8:	f41ff06f          	j	0x38
      fc:	fd010113          	addi	sp,sp,-48
     100:	00100513          	li	a0,1
     104:	02113423          	0x2113423
     108:	01213823          	0x1213823
     10c:	02813023          	0x2813023
     110:	00913c23          	0x913c23
     114:	01313423          	0x1313423
     118:	075010ef          	jal	ra,0x198c
     11c:	00007797          	auipc	a5,0x7
     120:	90478793          	addi	a5,a5,-1788 # 0x6a20
     124:	0007b783          	0x7b783
     128:	00006917          	auipc	s2,0x6
     12c:	7c890913          	addi	s2,s2,1992 # 0x68f0
     130:	0007a783          	lw	a5,0(a5)
     134:	00279513          	slli	a0,a5,0x2
     138:	00006717          	auipc	a4,0x6
     13c:	7af72c23          	sw	a5,1976(a4) # 0x68f0
     140:	7a4010ef          	jal	ra,0x18e4
     144:	00092783          	lw	a5,0(s2)
     148:	00006717          	auipc	a4,0x6
     14c:	7aa73023          	0x7aa73023
     150:	04f05263          	blez	a5,0x194
     154:	00000493          	li	s1,0
     158:	00006997          	auipc	s3,0x6
     15c:	79098993          	addi	s3,s3,1936 # 0x68e8
     160:	045010ef          	jal	ra,0x19a4
     164:	0005041b          	0x5041b
     168:	03d010ef          	jal	ra,0x19a4
     16c:	0009b703          	0x9b703
     170:	00249613          	slli	a2,s1,0x2
     174:	0104179b          	0x104179b
     178:	00092683          	lw	a3,0(s2)
     17c:	00f56533          	or	a0,a0,a5
     180:	00c70733          	add	a4,a4,a2
     184:	00148493          	addi	s1,s1,1
     188:	00a72023          	sw	a0,0(a4) # 0x6148
     18c:	0004879b          	0x4879b
     190:	fcd7c8e3          	blt	a5,a3,0x160
     194:	02813083          	0x2813083
     198:	02013403          	0x2013403
     19c:	01813483          	0x1813483
     1a0:	01013903          	0x1013903
     1a4:	00813983          	0x813983
     1a8:	03010113          	addi	sp,sp,48
     1ac:	00008067          	ret
     1b0:	00006797          	auipc	a5,0x6
     1b4:	74078793          	addi	a5,a5,1856 # 0x68f0
     1b8:	0007a603          	lw	a2,0(a5)
     1bc:	00006797          	auipc	a5,0x6
     1c0:	72c78793          	addi	a5,a5,1836 # 0x68e8
     1c4:	0007b503          	0x7b503
     1c8:	00000593          	li	a1,0
     1cc:	e45ff06f          	j	0x10
     1d0:	00006797          	auipc	a5,0x6
     1d4:	72078793          	addi	a5,a5,1824 # 0x68f0
     1d8:	0007a583          	lw	a1,0(a5)
     1dc:	00006797          	auipc	a5,0x6
     1e0:	70c78793          	addi	a5,a5,1804 # 0x68e8
     1e4:	0007b503          	0x7b503
     1e8:	00259593          	slli	a1,a1,0x2
     1ec:	ff010113          	addi	sp,sp,-16
     1f0:	00b505b3          	add	a1,a0,a1
     1f4:	00113423          	0x113423
     1f8:	7e0010ef          	jal	ra,0x19d8
     1fc:	00007797          	auipc	a5,0x7
     200:	82478793          	addi	a5,a5,-2012 # 0x6a20
     204:	0007b783          	0x7b783
     208:	00813083          	0x813083
     20c:	0005051b          	0x5051b
     210:	0187a783          	lw	a5,24(a5)
     214:	01010113          	addi	sp,sp,16
     218:	40a78533          	sub	a0,a5,a0
     21c:	00153513          	seqz	a0,a0
     220:	00008067          	ret
     224:	00006797          	auipc	a5,0x6
     228:	7fc78793          	addi	a5,a5,2044 # 0x6a20
     22c:	0007b783          	0x7b783
     230:	fd010113          	addi	sp,sp,-48
     234:	00004537          	lui	a0,0x4
     238:	0007a783          	lw	a5,0(a5)
     23c:	02113423          	0x2113423
     240:	00913c23          	0x913c23
     244:	00006717          	auipc	a4,0x6
     248:	6ef72a23          	sw	a5,1780(a4) # 0x6938
     24c:	02813023          	0x2813023
     250:	01213823          	0x1213823
     254:	01313423          	0x1313423
     258:	01413023          	0x1413023
     25c:	00006717          	auipc	a4,0x6
     260:	6c072223          	sw	zero,1732(a4) # 0x6920
     264:	680010ef          	jal	ra,0x18e4
     268:	00006797          	auipc	a5,0x6
     26c:	6ca7b423          	0x6ca7b423
     270:	40000513          	li	a0,1024
     274:	670010ef          	jal	ra,0x18e4
     278:	00006797          	auipc	a5,0x6
     27c:	6aa7b823          	0x6aa7b823
     280:	00002537          	lui	a0,0x2
     284:	660010ef          	jal	ra,0x18e4
     288:	00006497          	auipc	s1,0x6
     28c:	6b048493          	addi	s1,s1,1712 # 0x6938
     290:	0004a783          	lw	a5,0(s1)
     294:	00006717          	auipc	a4,0x6
     298:	66a73a23          	0x66a73a23
     29c:	0017851b          	0x17851b
     2a0:	00005797          	auipc	a5,0x5
     2a4:	4a878793          	addi	a5,a5,1192 # 0x5748
     2a8:	00006717          	auipc	a4,0x6
     2ac:	66f73823          	0x66f73823
     2b0:	634010ef          	jal	ra,0x18e4
     2b4:	00006797          	auipc	a5,0x6
     2b8:	64a7be23          	0x64a7be23
     2bc:	00001537          	lui	a0,0x1
     2c0:	624010ef          	jal	ra,0x18e4
     2c4:	00006797          	auipc	a5,0x6
     2c8:	62a7be23          	0x62a7be23
     2cc:	00100513          	li	a0,1
     2d0:	00006797          	auipc	a5,0x6
     2d4:	6207a423          	sw	zero,1576(a5) # 0x68f8
     2d8:	6b4010ef          	jal	ra,0x198c
     2dc:	0004a783          	lw	a5,0(s1)
     2e0:	04f05463          	blez	a5,0x328
     2e4:	00000413          	li	s0,0
     2e8:	00006a17          	auipc	s4,0x6
     2ec:	628a0a13          	addi	s4,s4,1576 # 0x6910
     2f0:	00005997          	auipc	s3,0x5
     2f4:	51098993          	addi	s3,s3,1296 # 0x5800
     2f8:	03e00913          	li	s2,62
     2fc:	6a8010ef          	jal	ra,0x19a4
     300:	0325753b          	0x325753b
     304:	000a3783          	0xa3783
     308:	0004a683          	lw	a3,0(s1)
     30c:	008787b3          	add	a5,a5,s0
     310:	00140413          	addi	s0,s0,1
     314:	0004071b          	0x4071b
     318:	00a98533          	add	a0,s3,a0
     31c:	00054603          	lbu	a2,0(a0) # 0x1000
     320:	00c78023          	sb	a2,0(a5)
     324:	fcd74ce3          	blt	a4,a3,0x2fc
     328:	02813083          	0x2813083
     32c:	02013403          	0x2013403
     330:	01813483          	0x1813483
     334:	01013903          	0x1013903
     338:	00813983          	0x813983
     33c:	00013a03          	0x13a03
     340:	03010113          	addi	sp,sp,48
     344:	00008067          	ret
     348:	00006797          	auipc	a5,0x6
     34c:	5d078793          	addi	a5,a5,1488 # 0x6918
     350:	0007b603          	0x7b603
     354:	fc010113          	addi	sp,sp,-64
     358:	01413c23          	0x1413c23
     35c:	02813c23          	0x2813c23
     360:	02913823          	0x2913823
     364:	03213423          	0x3213423
     368:	03313023          	0x3313023
     36c:	01513823          	0x1513823
     370:	01613423          	0x1613423
     374:	01713023          	0x1713023
     378:	00064703          	lbu	a4,0(a2)
     37c:	00006817          	auipc	a6,0x6
     380:	5b480813          	addi	a6,a6,1460 # 0x6930
     384:	00006897          	auipc	a7,0x6
     388:	59c88893          	addi	a7,a7,1436 # 0x6920
     38c:	00083683          	0x83683
     390:	0008aa03          	lw	s4,0(a7)
     394:	3c070a63          	beqz	a4,0x768
     398:	fd57071b          	0xfd57071b
     39c:	00006797          	auipc	a5,0x6
     3a0:	58c78793          	addi	a5,a5,1420 # 0x6928
     3a4:	00160613          	addi	a2,a2,1
     3a8:	03200993          	li	s3,50
     3ac:	0ff77713          	andi	a4,a4,255
     3b0:	0007b503          	0x7b503
     3b4:	00000b13          	li	s6,0
     3b8:	00000a93          	li	s5,0
     3bc:	00000793          	li	a5,0
     3c0:	00005597          	auipc	a1,0x5
     3c4:	29858593          	addi	a1,a1,664 # 0x5658
     3c8:	00001937          	lui	s2,0x1
     3cc:	00800493          	li	s1,8
     3d0:	00700413          	li	s0,7
     3d4:	20000393          	li	t2,512
     3d8:	00600293          	li	t0,6
     3dc:	00500f93          	li	t6,5
     3e0:	00400f13          	li	t5,4
     3e4:	00300e93          	li	t4,3
     3e8:	00200e13          	li	t3,2
     3ec:	00100313          	li	t1,1
     3f0:	fff60b93          	addi	s7,a2,-1
     3f4:	08e9e063          	bltu	s3,a4,0x474
     3f8:	00271713          	slli	a4,a4,0x2
     3fc:	00b70733          	add	a4,a4,a1
     400:	00072703          	lw	a4,0(a4) # 0x62a8
     404:	00b70733          	add	a4,a4,a1
     408:	00070067          	jr	a4
     40c:	2e0a0863          	beqz	s4,0x6fc
     410:	fffa0a1b          	0xfffa0a1b
     414:	020a1713          	slli	a4,s4,0x20
     418:	01f75713          	srli	a4,a4,0x1f
     41c:	00e50733          	add	a4,a0,a4
     420:	00075b03          	lhu	s6,0(a4)
     424:	00279713          	slli	a4,a5,0x2
     428:	00e68733          	add	a4,a3,a4
     42c:	002b1a93          	slli	s5,s6,0x2
     430:	01671123          	sh	s6,2(a4)
     434:	00971023          	sh	s1,0(a4)
     438:	01568733          	add	a4,a3,s5
     43c:	00f71123          	sh	a5,2(a4)
     440:	00100a93          	li	s5,1
     444:	00064703          	lbu	a4,0(a2)
     448:	0017879b          	0x17879b
     44c:	03079793          	slli	a5,a5,0x30
     450:	0307d793          	srli	a5,a5,0x30
     454:	02070463          	beqz	a4,0x47c
     458:	2d278663          	beq	a5,s2,0x724
     45c:	fd57071b          	0xfd57071b
     460:	00160613          	addi	a2,a2,1
     464:	0ff77713          	andi	a4,a4,255
     468:	00100b13          	li	s6,1
     46c:	fff60b93          	addi	s7,a2,-1
     470:	f8e9f4e3          	bgeu	s3,a4,0x3f8
     474:	00064703          	lbu	a4,0(a2)
     478:	fe0712e3          	bnez	a4,0x45c
     47c:	000a8663          	beqz	s5,0x488
     480:	00006717          	auipc	a4,0x6
     484:	4b472023          	sw	s4,1184(a4) # 0x6920
     488:	00006717          	auipc	a4,0x6
     48c:	48c73823          	0x48c73823
     490:	0008a703          	lw	a4,0(a7)
     494:	00083683          	0x83683
     498:	28071063          	bnez	a4,0x718
     49c:	00001737          	lui	a4,0x1
     4a0:	26e78c63          	beq	a5,a4,0x718
     4a4:	00279793          	slli	a5,a5,0x2
     4a8:	00f687b3          	add	a5,a3,a5
     4ac:	00079023          	sh	zero,0(a5)
     4b0:	0006d703          	lhu	a4,0(a3)
     4b4:	14070263          	beqz	a4,0x5f8
     4b8:	00006797          	auipc	a5,0x6
     4bc:	45078793          	addi	a5,a5,1104 # 0x6908
     4c0:	0007b503          	0x7b503
     4c4:	00006797          	auipc	a5,0x6
     4c8:	44c78793          	addi	a5,a5,1100 # 0x6910
     4cc:	0007b883          	0x7b883
     4d0:	00006797          	auipc	a5,0x6
     4d4:	43078793          	addi	a5,a5,1072 # 0x6900
     4d8:	0007b283          	0x7b283
     4dc:	00006797          	auipc	a5,0x6
     4e0:	41c78793          	addi	a5,a5,1052 # 0x68f8
     4e4:	0007a803          	lw	a6,0(a5)
     4e8:	00000e93          	li	t4,0
     4ec:	00068793          	mv	a5,a3
     4f0:	00000e13          	li	t3,0
     4f4:	00000613          	li	a2,0
     4f8:	00000593          	li	a1,0
     4fc:	00800f93          	li	t6,8
     500:	00005317          	auipc	t1,0x5
     504:	22430313          	addi	t1,t1,548 # 0x5724
     508:	00001f37          	lui	t5,0x1
     50c:	0cefea63          	bltu	t6,a4,0x5e0
     510:	00271713          	slli	a4,a4,0x2
     514:	00670733          	add	a4,a4,t1
     518:	00072703          	lw	a4,0(a4) # 0x1000
     51c:	00670733          	add	a4,a4,t1
     520:	00070067          	jr	a4
     524:	00279713          	slli	a4,a5,0x2
     528:	00e68733          	add	a4,a3,a4
     52c:	00871023          	sh	s0,0(a4)
     530:	207a0c63          	beq	s4,t2,0x748
     534:	020a1713          	slli	a4,s4,0x20
     538:	01f75713          	srli	a4,a4,0x1f
     53c:	00e50733          	add	a4,a0,a4
     540:	00f71023          	sh	a5,0(a4)
     544:	001a0a1b          	0x1a0a1b
     548:	00100a93          	li	s5,1
     54c:	ef9ff06f          	j	0x444
     550:	00279713          	slli	a4,a5,0x2
     554:	00e68733          	add	a4,a3,a4
     558:	00671023          	sh	t1,0(a4)
     55c:	ee9ff06f          	j	0x444
     560:	00279713          	slli	a4,a5,0x2
     564:	00e68733          	add	a4,a3,a4
     568:	01c71023          	sh	t3,0(a4)
     56c:	ed9ff06f          	j	0x444
     570:	00279713          	slli	a4,a5,0x2
     574:	00e68733          	add	a4,a3,a4
     578:	01f71023          	sh	t6,0(a4)
     57c:	ec9ff06f          	j	0x444
     580:	00279713          	slli	a4,a5,0x2
     584:	00e68733          	add	a4,a3,a4
     588:	01e71023          	sh	t5,0(a4)
     58c:	eb9ff06f          	j	0x444
     590:	00279713          	slli	a4,a5,0x2
     594:	00e68733          	add	a4,a3,a4
     598:	00571023          	sh	t0,0(a4)
     59c:	ea9ff06f          	j	0x444
     5a0:	00279713          	slli	a4,a5,0x2
     5a4:	00e68733          	add	a4,a3,a4
     5a8:	01d71023          	sh	t4,0(a4)
     5ac:	e99ff06f          	j	0x444
     5b0:	02059713          	slli	a4,a1,0x20
     5b4:	01f75713          	srli	a4,a4,0x1f
     5b8:	00e50733          	add	a4,a0,a4
     5bc:	00075703          	lhu	a4,0(a4)
     5c0:	08070c63          	beqz	a4,0x658
     5c4:	0027d603          	lhu	a2,2(a5)
     5c8:	0016061b          	0x16061b
     5cc:	02061793          	slli	a5,a2,0x20
     5d0:	01e7d793          	srli	a5,a5,0x1e
     5d4:	00f687b3          	add	a5,a3,a5
     5d8:	0007d703          	lhu	a4,0(a5)
     5dc:	f20718e3          	bnez	a4,0x50c
     5e0:	000e0663          	beqz	t3,0x5ec
     5e4:	00006797          	auipc	a5,0x6
     5e8:	3107aa23          	sw	a6,788(a5) # 0x68f8
     5ec:	000e8663          	beqz	t4,0x5f8
     5f0:	00006797          	auipc	a5,0x6
     5f4:	3317b023          	0x3317b023
     5f8:	03813403          	0x3813403
     5fc:	03013483          	0x3013483
     600:	02813903          	0x2813903
     604:	02013983          	0x2013983
     608:	01813a03          	0x1813a03
     60c:	01013a83          	0x1013a83
     610:	00813b03          	0x813b03
     614:	00013b83          	0x13b83
     618:	04010113          	addi	sp,sp,64
     61c:	00008067          	ret
     620:	02059713          	slli	a4,a1,0x20
     624:	01f75713          	srli	a4,a4,0x1f
     628:	00e50733          	add	a4,a0,a4
     62c:	00075703          	lhu	a4,0(a4)
     630:	02071463          	bnez	a4,0x658
     634:	0027d603          	lhu	a2,2(a5) # 0x65f2
     638:	f91ff06f          	j	0x5c8
     63c:	0008c703          	lbu	a4,0(a7)
     640:	02059793          	slli	a5,a1,0x20
     644:	01f7d793          	srli	a5,a5,0x1f
     648:	00f507b3          	add	a5,a0,a5
     64c:	00e79023          	sh	a4,0(a5)
     650:	00188893          	addi	a7,a7,1
     654:	00100e93          	li	t4,1
     658:	0016061b          	0x16061b
     65c:	02061793          	slli	a5,a2,0x20
     660:	01e7d793          	srli	a5,a5,0x1e
     664:	00f687b3          	add	a5,a3,a5
     668:	0007d703          	lhu	a4,0(a5)
     66c:	ea0710e3          	bnez	a4,0x50c
     670:	f71ff06f          	j	0x5e0
     674:	02059793          	slli	a5,a1,0x20
     678:	01f7d793          	srli	a5,a5,0x1f
     67c:	00f507b3          	add	a5,a0,a5
     680:	0007d703          	lhu	a4,0(a5)
     684:	010287b3          	add	a5,t0,a6
     688:	00100e13          	li	t3,1
     68c:	00e78023          	sb	a4,0(a5)
     690:	0018081b          	0x18081b
     694:	fc5ff06f          	j	0x658
     698:	02059793          	slli	a5,a1,0x20
     69c:	01f7d793          	srli	a5,a5,0x1f
     6a0:	00f507b3          	add	a5,a0,a5
     6a4:	0007d703          	lhu	a4,0(a5)
     6a8:	fff7071b          	0xfff7071b
     6ac:	00e79023          	sh	a4,0(a5)
     6b0:	fa9ff06f          	j	0x658
     6b4:	02059793          	slli	a5,a1,0x20
     6b8:	01f7d793          	srli	a5,a5,0x1f
     6bc:	00f507b3          	add	a5,a0,a5
     6c0:	0007d703          	lhu	a4,0(a5)
     6c4:	0017071b          	0x17071b
     6c8:	00e79023          	sh	a4,0(a5)
     6cc:	f8dff06f          	j	0x658
     6d0:	fff5859b          	0xfff5859b
     6d4:	0016061b          	0x16061b
     6d8:	02061793          	slli	a5,a2,0x20
     6dc:	01e7d793          	srli	a5,a5,0x1e
     6e0:	00f687b3          	add	a5,a3,a5
     6e4:	0007d703          	lhu	a4,0(a5)
     6e8:	ee070ce3          	beqz	a4,0x5e0
     6ec:	e3e5e0e3          	bltu	a1,t5,0x50c
     6f0:	ef1ff06f          	j	0x5e0
     6f4:	0015859b          	0x15859b
     6f8:	fddff06f          	j	0x6d4
     6fc:	000a8663          	beqz	s5,0x708
     700:	00006797          	auipc	a5,0x6
     704:	2207a023          	sw	zero,544(a5) # 0x6920
     708:	00083683          	0x83683
     70c:	000b0663          	beqz	s6,0x718
     710:	00006797          	auipc	a5,0x6
     714:	2177b423          	0x2177b423
     718:	0006d703          	lhu	a4,0(a3)
     71c:	d8071ee3          	bnez	a4,0x4b8
     720:	ed9ff06f          	j	0x5f8
     724:	000a8663          	beqz	s5,0x730
     728:	00006797          	auipc	a5,0x6
     72c:	1f47ac23          	sw	s4,504(a5) # 0x6920
     730:	00083683          	0x83683
     734:	00006717          	auipc	a4,0x6
     738:	1ec73223          	0x1ec73223
     73c:	0006d703          	lhu	a4,0(a3)
     740:	d6071ce3          	bnez	a4,0x4b8
     744:	eb5ff06f          	j	0x5f8
     748:	000a8663          	beqz	s5,0x754
     74c:	00006797          	auipc	a5,0x6
     750:	1d47aa23          	sw	s4,468(a5) # 0x6920
     754:	000b0663          	beqz	s6,0x760
     758:	00006797          	auipc	a5,0x6
     75c:	1d77b023          	0x1d77b023
     760:	00083683          	0x83683
     764:	fb5ff06f          	j	0x718
     768:	00068793          	mv	a5,a3
     76c:	d40a00e3          	beqz	s4,0x4ac
     770:	fa9ff06f          	j	0x718
     774:	ff010113          	addi	sp,sp,-16
     778:	00813023          	0x813023
     77c:	00006797          	auipc	a5,0x6
     780:	18478793          	addi	a5,a5,388 # 0x6900
     784:	00006417          	auipc	s0,0x6
     788:	17440413          	addi	s0,s0,372 # 0x68f8
     78c:	0007b783          	0x7b783
     790:	00042583          	lw	a1,0(s0)
     794:	00113423          	0x113423
     798:	00078513          	mv	a0,a5
     79c:	00b785b3          	add	a1,a5,a1
     7a0:	238010ef          	jal	ra,0x19d8
     7a4:	00006797          	auipc	a5,0x6
     7a8:	19478793          	addi	a5,a5,404 # 0x6938
     7ac:	00042683          	lw	a3,0(s0)
     7b0:	0007a703          	lw	a4,0(a5)
     7b4:	00e68c63          	beq	a3,a4,0x7cc
     7b8:	00813083          	0x813083
     7bc:	00013403          	0x13403
     7c0:	00000513          	li	a0,0
     7c4:	01010113          	addi	sp,sp,16
     7c8:	00008067          	ret
     7cc:	00006797          	auipc	a5,0x6
     7d0:	25478793          	addi	a5,a5,596 # 0x6a20
     7d4:	0007b783          	0x7b783
     7d8:	00813083          	0x813083
     7dc:	00013403          	0x13403
     7e0:	0187a783          	lw	a5,24(a5)
     7e4:	0005061b          	0x5061b
     7e8:	40c78533          	sub	a0,a5,a2
     7ec:	00153513          	seqz	a0,a0
     7f0:	01010113          	addi	sp,sp,16
     7f4:	00008067          	ret
     7f8:	00006797          	auipc	a5,0x6
     7fc:	22878793          	addi	a5,a5,552 # 0x6a20
     800:	0007b783          	0x7b783
     804:	f9010113          	addi	sp,sp,-112
     808:	00100513          	li	a0,1
     80c:	0007a783          	lw	a5,0(a5)
     810:	06113423          	0x6113423
     814:	06813023          	0x6813023
     818:	00006717          	auipc	a4,0x6
     81c:	12f72c23          	sw	a5,312(a4) # 0x6950
     820:	04913c23          	0x4913c23
     824:	05213823          	0x5213823
     828:	05313423          	0x5313423
     82c:	05413023          	0x5413023
     830:	03513c23          	0x3513c23
     834:	03713423          	0x3713423
     838:	03813023          	0x3813023
     83c:	03613823          	0x3613823
     840:	01913c23          	0x1913c23
     844:	01a13823          	0x1a13823
     848:	01b13423          	0x1b13423
     84c:	140010ef          	jal	ra,0x198c
     850:	00006917          	auipc	s2,0x6
     854:	10090913          	addi	s2,s2,256 # 0x6950
     858:	04800513          	li	a0,72
     85c:	00092b83          	lw	s7,0(s2)
     860:	084010ef          	jal	ra,0x18e4
     864:	00092403          	lw	s0,0(s2)
     868:	00006797          	auipc	a5,0x6
     86c:	0ea7b023          	0xea7b023
     870:	00050493          	mv	s1,a0
     874:	0014041b          	0x14041b
     878:	00141a9b          	0x141a9b
     87c:	ffea879b          	0xffea879b
     880:	4017d79b          	0x4017d79b
     884:	02f789bb          	0x2f789bb
     888:	0017979b          	0x17979b
     88c:	002a9a13          	slli	s4,s5,0x2
     890:	001b9c1b          	0x1b9c1b
     894:	001c0b9b          	0x1c0b9b
     898:	00f987bb          	0xf987bb
     89c:	0017999b          	0x17999b
     8a0:	00499513          	slli	a0,s3,0x4
     8a4:	040010ef          	jal	ra,0x18e4
     8a8:	00a4b823          	0xa4b823
     8ac:	000a0513          	mv	a0,s4
     8b0:	034010ef          	jal	ra,0x18e4
     8b4:	00a4bc23          	0xa4bc23
     8b8:	00299513          	slli	a0,s3,0x2
     8bc:	028010ef          	jal	ra,0x18e4
     8c0:	02a4b023          	0x2a4b023
     8c4:	000a8513          	mv	a0,s5
     8c8:	01c010ef          	jal	ra,0x18e4
     8cc:	04a4b023          	0x4a4b023
     8d0:	000a0513          	mv	a0,s4
     8d4:	010010ef          	jal	ra,0x18e4
     8d8:	02a4b423          	0x2a4b423
     8dc:	000a0513          	mv	a0,s4
     8e0:	004010ef          	jal	ra,0x18e4
     8e4:	02a4b823          	0x2a4b823
     8e8:	000a0513          	mv	a0,s4
     8ec:	7f9000ef          	jal	ra,0x18e4
     8f0:	02a4bc23          	0x2a4bc23
     8f4:	0154a023          	sw	s5,0(s1)
     8f8:	03505863          	blez	s5,0x928
     8fc:	fffa871b          	0xfffa871b
     900:	02071713          	slli	a4,a4,0x20
     904:	0184b783          	0x184b783
     908:	02075713          	srli	a4,a4,0x20
     90c:	00170713          	addi	a4,a4,1
     910:	00271713          	slli	a4,a4,0x2
     914:	00f70733          	add	a4,a4,a5
     918:	fff00693          	li	a3,-1
     91c:	00d7a023          	sw	a3,0(a5) # 0x6868
     920:	00478793          	addi	a5,a5,4
     924:	fee79ce3          	bne	a5,a4,0x91c
     928:	00092d03          	lw	s10,0(s2)
     92c:	0004a223          	sw	zero,4(s1)
     930:	27a05663          	blez	s10,0xb9c
     934:	00000b13          	li	s6,0
     938:	00000493          	li	s1,0
     93c:	00006a17          	auipc	s4,0x6
     940:	00ca0a13          	addi	s4,s4,12 # 0x6948
     944:	00a00993          	li	s3,10
     948:	002b1a93          	slli	s5,s6,0x2
     94c:	00000c93          	li	s9,0
     950:	0ba05e63          	blez	s10,0xa0c
     954:	000a3403          	0xa3403
     958:	04c010ef          	jal	ra,0x19a4
     95c:	033577bb          	0x33577bb
     960:	019d063b          	0x19d063b
     964:	00060813          	mv	a6,a2
     968:	00261593          	slli	a1,a2,0x2
     96c:	00092d03          	lw	s10,0(s2)
     970:	001c8c9b          	0x1c8c9b
     974:	00078513          	mv	a0,a5
     978:	08078863          	beqz	a5,0xa08
     97c:	00442703          	lw	a4,4(s0)
     980:	01043783          	0x1043783
     984:	01843603          	0x1843603
     988:	00471693          	slli	a3,a4,0x4
     98c:	00d786b3          	add	a3,a5,a3
     990:	0096a023          	sw	s1,0(a3)
     994:	00a6a423          	sw	a0,8(a3)
     998:	0106a223          	sw	a6,4(a3)
     99c:	0006a623          	sw	zero,12(a3)
     9a0:	01560533          	add	a0,a2,s5
     9a4:	02043683          	0x2043683
     9a8:	00052883          	lw	a7,0(a0)
     9ac:	00271713          	slli	a4,a4,0x2
     9b0:	00e68733          	add	a4,a3,a4
     9b4:	01172023          	sw	a7,0(a4)
     9b8:	00442703          	lw	a4,4(s0)
     9bc:	00b60633          	add	a2,a2,a1
     9c0:	0017059b          	0x17059b
     9c4:	00b42223          	sw	a1,4(s0)
     9c8:	00e52023          	sw	a4,0(a0)
     9cc:	00442703          	lw	a4,4(s0)
     9d0:	00471593          	slli	a1,a4,0x4
     9d4:	00b787b3          	add	a5,a5,a1
     9d8:	0107a023          	sw	a6,0(a5)
     9dc:	0097a223          	sw	s1,4(a5)
     9e0:	0007a423          	sw	zero,8(a5)
     9e4:	0007a623          	sw	zero,12(a5)
     9e8:	00062783          	lw	a5,0(a2)
     9ec:	00271713          	slli	a4,a4,0x2
     9f0:	00e686b3          	add	a3,a3,a4
     9f4:	00f6a023          	sw	a5,0(a3)
     9f8:	00442783          	lw	a5,4(s0)
     9fc:	0017871b          	0x17871b
     a00:	00e42223          	sw	a4,4(s0)
     a04:	00f62023          	sw	a5,0(a2)
     a08:	f5acc6e3          	blt	s9,s10,0x954
     a0c:	001b0b13          	addi	s6,s6,1
     a10:	000b049b          	0xb049b
     a14:	f3a4cae3          	blt	s1,s10,0x948
     a18:	19a05263          	blez	s10,0xb9c
     a1c:	002c1b13          	slli	s6,s8,0x2
     a20:	002b9a93          	slli	s5,s7,0x2
     a24:	00000c93          	li	s9,0
     a28:	00006a17          	auipc	s4,0x6
     a2c:	f20a0a13          	addi	s4,s4,-224 # 0x6948
     a30:	00000d13          	li	s10,0
     a34:	3e800993          	li	s3,1000
     a38:	000a3483          	0xa3483
     a3c:	769000ef          	jal	ra,0x19a4
     a40:	033577bb          	0x33577bb
     a44:	002c9813          	slli	a6,s9,0x2
     a48:	000a3403          	0xa3403
     a4c:	00092d83          	lw	s11,0(s2)
     a50:	001c8c93          	addi	s9,s9,1
     a54:	00078513          	mv	a0,a5
     a58:	08078863          	beqz	a5,0xae8
     a5c:	0044a703          	lw	a4,4(s1)
     a60:	0104b783          	0x104b783
     a64:	0184b603          	0x184b603
     a68:	00471693          	slli	a3,a4,0x4
     a6c:	00d786b3          	add	a3,a5,a3
     a70:	0186a023          	sw	s8,0(a3)
     a74:	01a6a223          	sw	s10,4(a3)
     a78:	00a6a423          	sw	a0,8(a3)
     a7c:	0006a623          	sw	zero,12(a3)
     a80:	016605b3          	add	a1,a2,s6
     a84:	0204b683          	0x204b683
     a88:	0005a503          	lw	a0,0(a1)
     a8c:	00271713          	slli	a4,a4,0x2
     a90:	00e68733          	add	a4,a3,a4
     a94:	00a72023          	sw	a0,0(a4)
     a98:	0044a703          	lw	a4,4(s1)
     a9c:	01060633          	add	a2,a2,a6
     aa0:	0017051b          	0x17051b
     aa4:	00a4a223          	sw	a0,4(s1)
     aa8:	00e5a023          	sw	a4,0(a1)
     aac:	0044a703          	lw	a4,4(s1)
     ab0:	00471593          	slli	a1,a4,0x4
     ab4:	00b787b3          	add	a5,a5,a1
     ab8:	01a7a023          	sw	s10,0(a5)
     abc:	0187a223          	sw	s8,4(a5)
     ac0:	0007a423          	sw	zero,8(a5)
     ac4:	0007a623          	sw	zero,12(a5)
     ac8:	00062783          	lw	a5,0(a2)
     acc:	00271713          	slli	a4,a4,0x2
     ad0:	00e686b3          	add	a3,a3,a4
     ad4:	00f6a023          	sw	a5,0(a3)
     ad8:	0044a783          	lw	a5,4(s1)
     adc:	0017871b          	0x17871b
     ae0:	00e4a223          	sw	a4,4(s1)
     ae4:	00f62023          	sw	a5,0(a2)
     ae8:	6bd000ef          	jal	ra,0x19a4
     aec:	0335773b          	0x335773b
     af0:	01ad87bb          	0x1ad87bb
     af4:	00078813          	mv	a6,a5
     af8:	00092883          	lw	a7,0(s2)
     afc:	00279793          	slli	a5,a5,0x2
     b00:	000c8d1b          	0xc8d1b
     b04:	00070513          	mv	a0,a4
     b08:	08070863          	beqz	a4,0xb98
     b0c:	00442683          	lw	a3,4(s0)
     b10:	01043703          	0x1043703
     b14:	01843583          	0x1843583
     b18:	00469613          	slli	a2,a3,0x4
     b1c:	00c70633          	add	a2,a4,a2
     b20:	01062023          	sw	a6,0(a2)
     b24:	01762223          	sw	s7,4(a2)
     b28:	00a62423          	sw	a0,8(a2)
     b2c:	00062623          	sw	zero,12(a2)
     b30:	00f587b3          	add	a5,a1,a5
     b34:	02043603          	0x2043603
     b38:	0007a503          	lw	a0,0(a5)
     b3c:	00269693          	slli	a3,a3,0x2
     b40:	00d606b3          	add	a3,a2,a3
     b44:	00a6a023          	sw	a0,0(a3)
     b48:	00442683          	lw	a3,4(s0)
     b4c:	015585b3          	add	a1,a1,s5
     b50:	0016851b          	0x16851b
     b54:	00a42223          	sw	a0,4(s0)
     b58:	00d7a023          	sw	a3,0(a5)
     b5c:	00442683          	lw	a3,4(s0)
     b60:	00469793          	slli	a5,a3,0x4
     b64:	00f707b3          	add	a5,a4,a5
     b68:	0177a023          	sw	s7,0(a5)
     b6c:	0107a223          	sw	a6,4(a5)
     b70:	0007a423          	sw	zero,8(a5)
     b74:	0007a623          	sw	zero,12(a5)
     b78:	0005a783          	lw	a5,0(a1)
     b7c:	00269693          	slli	a3,a3,0x2
     b80:	00d60633          	add	a2,a2,a3
     b84:	00f62023          	sw	a5,0(a2)
     b88:	00442783          	lw	a5,4(s0)
     b8c:	0017871b          	0x17871b
     b90:	00e42223          	sw	a4,4(s0)
     b94:	00f5a023          	sw	a5,0(a1)
     b98:	eb1d40e3          	blt	s10,a7,0xa38
     b9c:	06813083          	0x6813083
     ba0:	06013403          	0x6013403
     ba4:	05813483          	0x5813483
     ba8:	05013903          	0x5013903
     bac:	04813983          	0x4813983
     bb0:	04013a03          	0x4013a03
     bb4:	03813a83          	0x3813a83
     bb8:	03013b03          	0x3013b03
     bbc:	02813b83          	0x2813b83
     bc0:	02013c03          	0x2013c03
     bc4:	01813c83          	0x1813c83
     bc8:	01013d03          	0x1013d03
     bcc:	00813d83          	0x813d83
     bd0:	07010113          	addi	sp,sp,112
     bd4:	00008067          	ret
     bd8:	f9010113          	addi	sp,sp,-112
     bdc:	00006797          	auipc	a5,0x6
     be0:	d6c78793          	addi	a5,a5,-660 # 0x6948
     be4:	06813023          	0x6813023
     be8:	0007b403          	0x7b403
     bec:	00006797          	auipc	a5,0x6
     bf0:	d6478793          	addi	a5,a5,-668 # 0x6950
     bf4:	0007a783          	lw	a5,0(a5)
     bf8:	03713423          	0x3713423
     bfc:	04043683          	0x4043683
     c00:	00179b9b          	0x179b9b
     c04:	03843583          	0x3843583
     c08:	02843703          	0x2843703
     c0c:	01843503          	0x1843503
     c10:	05313423          	0x5313423
     c14:	05413023          	0x5413023
     c18:	03513c23          	0x3513c23
     c1c:	03613823          	0x3613823
     c20:	03813023          	0x3813023
     c24:	01913c23          	0x1913c23
     c28:	06113423          	0x6113423
     c2c:	04913c23          	0x4913c23
     c30:	05213823          	0x5213823
     c34:	01a13823          	0x1a13823
     c38:	01b13423          	0x1b13423
     c3c:	001b861b          	0x1b861b
     c40:	003f4b37          	lui	s6,0x3f4
     c44:	003f4ab7          	lui	s5,0x3f4
     c48:	01742423          	sw	s7,8(s0)
     c4c:	00c42623          	sw	a2,12(s0)
     c50:	002b9c93          	slli	s9,s7,0x2
     c54:	000b8813          	mv	a6,s7
     c58:	00000993          	li	s3,0
     c5c:	00100c13          	li	s8,1
     c60:	fff00a13          	li	s4,-1
     c64:	f3fb0b1b          	0xf3fb0b1b
     c68:	f3fa8a93          	addi	s5,s5,-193 # 0x3f3f3f
     c6c:	00042783          	lw	a5,0(s0)
     c70:	02f05463          	blez	a5,0xc98
     c74:	fff7879b          	0xfff7879b
     c78:	02079793          	slli	a5,a5,0x20
     c7c:	0207d793          	srli	a5,a5,0x20
     c80:	00178793          	addi	a5,a5,1
     c84:	00068613          	mv	a2,a3
     c88:	00d787b3          	add	a5,a5,a3
     c8c:	00060023          	sb	zero,0(a2)
     c90:	00160613          	addi	a2,a2,1
     c94:	fec79ce3          	bne	a5,a2,0xc8c
     c98:	0105a023          	sw	a6,0(a1)
     c9c:	00842783          	lw	a5,8(s0)
     ca0:	00058e13          	mv	t3,a1
     ca4:	00100313          	li	t1,1
     ca8:	00279793          	slli	a5,a5,0x2
     cac:	00f707b3          	add	a5,a4,a5
     cb0:	0007a023          	sw	zero,0(a5)
     cb4:	00842783          	lw	a5,8(s0)
     cb8:	00000e93          	li	t4,0
     cbc:	00f687b3          	add	a5,a3,a5
     cc0:	01878023          	sb	s8,0(a5)
     cc4:	000e2603          	lw	a2,0(t3)
     cc8:	001e8e9b          	0x1e8e9b
     ccc:	00261613          	slli	a2,a2,0x2
     cd0:	00c507b3          	add	a5,a0,a2
     cd4:	0007a783          	lw	a5,0(a5)
     cd8:	07478863          	beq	a5,s4,0xd48
     cdc:	01043283          	0x1043283
     ce0:	02043f83          	0x2043f83
     ce4:	00c70633          	add	a2,a4,a2
     ce8:	00479813          	slli	a6,a5,0x4
     cec:	01028833          	add	a6,t0,a6
     cf0:	00482883          	lw	a7,4(a6)
     cf4:	00279793          	slli	a5,a5,0x2
     cf8:	00ff87b3          	add	a5,t6,a5
     cfc:	011684b3          	add	s1,a3,a7
     d00:	0004cf03          	lbu	t5,0(s1)
     d04:	020f1e63          	bnez	t5,0xd40
     d08:	00882903          	lw	s2,8(a6)
     d0c:	00c82383          	lw	t2,12(a6)
     d10:	00289893          	slli	a7,a7,0x2
     d14:	00231f13          	slli	t5,t1,0x2
     d18:	011708b3          	add	a7,a4,a7
     d1c:	01e58f33          	add	t5,a1,t5
     d20:	0323d063          	bge	t2,s2,0xd40
     d24:	00062383          	lw	t2,0(a2)
     d28:	01848023          	sb	s8,0(s1)
     d2c:	0013031b          	0x13031b
     d30:	0013839b          	0x13839b
     d34:	0078a023          	sw	t2,0(a7)
     d38:	00482803          	lw	a6,4(a6)
     d3c:	010f2023          	sw	a6,0(t5) # 0x1000
     d40:	0007a783          	lw	a5,0(a5)
     d44:	fb4792e3          	bne	a5,s4,0xce8
     d48:	004e0e13          	addi	t3,t3,4
     d4c:	f66e9ce3          	bne	t4,t1,0xcc4
     d50:	00c42783          	lw	a5,12(s0)
     d54:	00f68633          	add	a2,a3,a5
     d58:	00064603          	lbu	a2,0(a2)
     d5c:	10060a63          	beqz	a2,0xe70
     d60:	00042603          	lw	a2,0(s0)
     d64:	02c05863          	blez	a2,0xd94
     d68:	03043803          	0x3043803
     d6c:	00050613          	mv	a2,a0
     d70:	00000793          	li	a5,0
     d74:	00062883          	lw	a7,0(a2)
     d78:	0017879b          	0x17879b
     d7c:	00460613          	addi	a2,a2,4
     d80:	01182023          	sw	a7,0(a6)
     d84:	00042883          	lw	a7,0(s0)
     d88:	00480813          	addi	a6,a6,4
     d8c:	ff17c4e3          	blt	a5,a7,0xd74
     d90:	00c42783          	lw	a5,12(s0)
     d94:	12fb8063          	beq	s7,a5,0xeb4
     d98:	03043783          	0x3043783
     d9c:	019787b3          	add	a5,a5,s9
     da0:	0007a483          	lw	s1,0(a5)
     da4:	0b448e63          	beq	s1,s4,0xe60
     da8:	00000d93          	li	s11,0
     dac:	000a8d13          	mv	s10,s5
     db0:	0180006f          	j	0xdc8
     db4:	02043783          	0x2043783
     db8:	00249493          	slli	s1,s1,0x2
     dbc:	009784b3          	add	s1,a5,s1
     dc0:	0004a483          	lw	s1,0(s1)
     dc4:	09448663          	beq	s1,s4,0xe50
     dc8:	01043683          	0x1043683
     dcc:	00449913          	slli	s2,s1,0x4
     dd0:	019707b3          	add	a5,a4,s9
     dd4:	01268933          	add	s2,a3,s2
     dd8:	00492583          	lw	a1,4(s2)
     ddc:	0007a783          	lw	a5,0(a5)
     de0:	00259693          	slli	a3,a1,0x2
     de4:	00d706b3          	add	a3,a4,a3
     de8:	0006a683          	lw	a3,0(a3)
     dec:	0017879b          	0x17879b
     df0:	fcd792e3          	bne	a5,a3,0xdb4
     df4:	00892603          	lw	a2,8(s2)
     df8:	00c92783          	lw	a5,12(s2)
     dfc:	00040513          	mv	a0,s0
     e00:	40f607bb          	0x40f607bb
     e04:	00078613          	mv	a2,a5
     e08:	00fd5463          	bge	s10,a5,0xe10
     e0c:	000d061b          	0xd061b
     e10:	429020ef          	jal	ra,0x3a38
     e14:	0014c793          	xori	a5,s1,1
     e18:	00479713          	slli	a4,a5,0x4
     e1c:	04a05663          	blez	a0,0xe68
     e20:	00c92683          	lw	a3,12(s2)
     e24:	01043783          	0x1043783
     e28:	40ad0d3b          	0x40ad0d3b
     e2c:	00a686bb          	0xa686bb
     e30:	00e787b3          	add	a5,a5,a4
     e34:	00d92623          	sw	a3,12(s2)
     e38:	00c7a683          	lw	a3,12(a5)
     e3c:	01b50dbb          	0x1b50dbb
     e40:	02843703          	0x2843703
     e44:	40a6853b          	0x40a6853b
     e48:	00a7a623          	sw	a0,12(a5)
     e4c:	f60d14e3          	bnez	s10,0xdb4
     e50:	04043683          	0x4043683
     e54:	03843583          	0x3843583
     e58:	01843503          	0x1843503
     e5c:	01b989bb          	0x1b989bb
     e60:	00842803          	lw	a6,8(s0)
     e64:	e09ff06f          	j	0xc6c
     e68:	02843703          	0x2843703
     e6c:	f49ff06f          	j	0xdb4
     e70:	06813083          	0x6813083
     e74:	06013403          	0x6013403
     e78:	00006797          	auipc	a5,0x6
     e7c:	ad37a423          	sw	s3,-1336(a5) # 0x6940
     e80:	05813483          	0x5813483
     e84:	05013903          	0x5013903
     e88:	04813983          	0x4813983
     e8c:	04013a03          	0x4013a03
     e90:	03813a83          	0x3813a83
     e94:	03013b03          	0x3013b03
     e98:	02813b83          	0x2813b83
     e9c:	02013c03          	0x2013c03
     ea0:	01813c83          	0x1813c83
     ea4:	01013d03          	0x1013d03
     ea8:	00813d83          	0x813d83
     eac:	07010113          	addi	sp,sp,112
     eb0:	00008067          	ret
     eb4:	013b09bb          	0x13b09bb
     eb8:	00842803          	lw	a6,8(s0)
     ebc:	db1ff06f          	j	0xc6c
     ec0:	00006797          	auipc	a5,0x6
     ec4:	b6078793          	addi	a5,a5,-1184 # 0x6a20
     ec8:	0007b703          	0x7b703
     ecc:	00006797          	auipc	a5,0x6
     ed0:	a7478793          	addi	a5,a5,-1420 # 0x6940
     ed4:	0007a783          	lw	a5,0(a5)
     ed8:	01872503          	lw	a0,24(a4)
     edc:	40f50533          	sub	a0,a0,a5
     ee0:	00153513          	seqz	a0,a0
     ee4:	00008067          	ret
     ee8:	00006797          	auipc	a5,0x6
     eec:	b3878793          	addi	a5,a5,-1224 # 0x6a20
     ef0:	0007b783          	0x7b783
     ef4:	ff010113          	addi	sp,sp,-16
     ef8:	00113423          	0x113423
     efc:	0007a783          	lw	a5,0(a5)
     f00:	41f7d51b          	0x41f7d51b
     f04:	01d5551b          	0x1d5551b
     f08:	00f5053b          	0xf5053b
     f0c:	4035551b          	0x4035551b
     f10:	0805051b          	0x805051b
     f14:	00006717          	auipc	a4,0x6
     f18:	a4f72823          	sw	a5,-1456(a4) # 0x6964
     f1c:	1c9000ef          	jal	ra,0x18e4
     f20:	00006797          	auipc	a5,0x6
     f24:	a4478793          	addi	a5,a5,-1468 # 0x6964
     f28:	0007a783          	lw	a5,0(a5)
     f2c:	00006717          	auipc	a4,0x6
     f30:	a2a73623          	0xa2a73623
     f34:	fe100693          	li	a3,-31
     f38:	41f7d71b          	0x41f7d71b
     f3c:	01b7571b          	0x1b7571b
     f40:	00f7073b          	0xf7073b
     f44:	02d7c063          	blt	a5,a3,0xf64
     f48:	4057571b          	0x4057571b
     f4c:	00000793          	li	a5,0
     f50:	fff00693          	li	a3,-1
     f54:	00d52023          	sw	a3,0(a0)
     f58:	0017879b          	0x17879b
     f5c:	00450513          	addi	a0,a0,4
     f60:	fef75ae3          	bge	a4,a5,0xf54
     f64:	00813083          	0x813083
     f68:	01010113          	addi	sp,sp,16
     f6c:	00008067          	ret
     f70:	00006797          	auipc	a5,0x6
     f74:	9f478793          	addi	a5,a5,-1548 # 0x6964
     f78:	0007a583          	lw	a1,0(a5)
     f7c:	10b05c63          	blez	a1,0x1094
     f80:	00006617          	auipc	a2,0x6
     f84:	9d860613          	addi	a2,a2,-1576 # 0x6958
     f88:	00063683          	0x63683
     f8c:	0006a783          	lw	a5,0(a3)
     f90:	0017d79b          	0x17d79b
     f94:	0017f793          	andi	a5,a5,1
     f98:	00079c63          	bnez	a5,0xfb0
     f9c:	10c0006f          	j	0x10a8
     fa0:	00072703          	lw	a4,0(a4) # 0x6f2c
     fa4:	00f7573b          	0xf7573b
     fa8:	00177713          	andi	a4,a4,1
     fac:	0e070c63          	beqz	a4,0x10a4
     fb0:	0017879b          	0x17879b
     fb4:	4057d71b          	0x4057d71b
     fb8:	00271713          	slli	a4,a4,0x2
     fbc:	00e68733          	add	a4,a3,a4
     fc0:	fef5d0e3          	bge	a1,a5,0xfa0
     fc4:	00300793          	li	a5,3
     fc8:	0cb7d663          	bge	a5,a1,0x1094
     fcc:	00063803          	0x63803
     fd0:	00100893          	li	a7,1
     fd4:	00200613          	li	a2,2
     fd8:	0100006f          	j	0xfe8
     fdc:	0016061b          	0x16061b
     fe0:	02c607bb          	0x2c607bb
     fe4:	06f5c063          	blt	a1,a5,0x1044
     fe8:	40565793          	srai	a5,a2,0x5
     fec:	00279793          	slli	a5,a5,0x2
     ff0:	00f807b3          	add	a5,a6,a5
     ff4:	0007a783          	lw	a5,0(a5)
     ff8:	00c7d7bb          	0xc7d7bb
     ffc:	0017f793          	andi	a5,a5,1
    1000:	fc078ee3          	beqz	a5,0xfdc
    1004:	0016169b          	0x16169b
    1008:	fcd5cae3          	blt	a1,a3,0xfdc
    100c:	4056d713          	srai	a4,a3,0x5
    1010:	00271713          	slli	a4,a4,0x2
    1014:	00e80733          	add	a4,a6,a4
    1018:	01f6f793          	andi	a5,a3,31
    101c:	00072503          	lw	a0,0(a4)
    1020:	00f897b3          	sll	a5,a7,a5
    1024:	fff7c793          	not	a5,a5
    1028:	00a7f7b3          	and	a5,a5,a0
    102c:	00f72023          	sw	a5,0(a4)
    1030:	00d606bb          	0xd606bb
    1034:	fcd5dce3          	bge	a1,a3,0x100c
    1038:	0016061b          	0x16061b
    103c:	02c607bb          	0x2c607bb
    1040:	faf5d4e3          	bge	a1,a5,0xfe8
    1044:	00006797          	auipc	a5,0x6
    1048:	9007ae23          	sw	zero,-1764(a5) # 0x6960
    104c:	00000613          	li	a2,0
    1050:	00000693          	li	a3,0
    1054:	00200713          	li	a4,2
    1058:	40575793          	srai	a5,a4,0x5
    105c:	00279793          	slli	a5,a5,0x2
    1060:	00f807b3          	add	a5,a6,a5
    1064:	0007a783          	lw	a5,0(a5)
    1068:	00e7d7bb          	0xe7d7bb
    106c:	0017f793          	andi	a5,a5,1
    1070:	0017071b          	0x17071b
    1074:	00078663          	beqz	a5,0x1080
    1078:	0016869b          	0x16869b
    107c:	00100613          	li	a2,1
    1080:	fce5dce3          	bge	a1,a4,0x1058
    1084:	02060063          	beqz	a2,0x10a4
    1088:	00006797          	auipc	a5,0x6
    108c:	8cd7ac23          	sw	a3,-1832(a5) # 0x6960
    1090:	00008067          	ret
    1094:	00006797          	auipc	a5,0x6
    1098:	8c07a623          	sw	zero,-1844(a5) # 0x6960
    109c:	00100793          	li	a5,1
    10a0:	00b7c663          	blt	a5,a1,0x10ac
    10a4:	00008067          	ret
    10a8:	00008067          	ret
    10ac:	00006797          	auipc	a5,0x6
    10b0:	8ac78793          	addi	a5,a5,-1876 # 0x6958
    10b4:	0007b803          	0x7b803
    10b8:	f95ff06f          	j	0x104c
    10bc:	00006797          	auipc	a5,0x6
    10c0:	96478793          	addi	a5,a5,-1692 # 0x6a20
    10c4:	0007b703          	0x7b703
    10c8:	00006797          	auipc	a5,0x6
    10cc:	89878793          	addi	a5,a5,-1896 # 0x6960
    10d0:	0007a783          	lw	a5,0(a5)
    10d4:	01872503          	lw	a0,24(a4)
    10d8:	40f50533          	sub	a0,a0,a5
    10dc:	00153513          	seqz	a0,a0
    10e0:	00008067          	ret
    10e4:	fd010113          	addi	sp,sp,-48
    10e8:	0017079b          	0x17079b
    10ec:	02813023          	0x2813023
    10f0:	01413023          	0x1413023
    10f4:	00050413          	mv	s0,a0
    10f8:	00070a13          	mv	s4,a4
    10fc:	00279513          	slli	a0,a5,0x2
    1100:	00913c23          	0x913c23
    1104:	01213823          	0x1213823
    1108:	01313423          	0x1313423
    110c:	02113423          	0x2113423
    1110:	00058493          	mv	s1,a1
    1114:	00060913          	mv	s2,a2
    1118:	00068993          	mv	s3,a3
    111c:	7c8000ef          	jal	ra,0x18e4
    1120:	0e0a4e63          	bltz	s4,0x121c
    1124:	001a0713          	addi	a4,s4,1
    1128:	00271713          	slli	a4,a4,0x2
    112c:	00050793          	mv	a5,a0
    1130:	00a70733          	add	a4,a4,a0
    1134:	0007a023          	sw	zero,0(a5)
    1138:	00478793          	addi	a5,a5,4
    113c:	fef71ce3          	bne	a4,a5,0x1134
    1140:	05305663          	blez	s3,0x118c
    1144:	fff9869b          	0xfff9869b
    1148:	02069693          	slli	a3,a3,0x20
    114c:	01e6d793          	srli	a5,a3,0x1e
    1150:	00440693          	addi	a3,s0,4
    1154:	00040813          	mv	a6,s0
    1158:	00d786b3          	add	a3,a5,a3
    115c:	00082783          	lw	a5,0(a6)
    1160:	00480813          	addi	a6,a6,4
    1164:	00279793          	slli	a5,a5,0x2
    1168:	00f907b3          	add	a5,s2,a5
    116c:	0007a783          	lw	a5,0(a5)
    1170:	00279793          	slli	a5,a5,0x2
    1174:	00f507b3          	add	a5,a0,a5
    1178:	0007a883          	lw	a7,0(a5)
    117c:	0018889b          	0x18889b
    1180:	0117a023          	sw	a7,0(a5)
    1184:	fd069ce3          	bne	a3,a6,0x115c
    1188:	020a4663          	bltz	s4,0x11b4
    118c:	00050793          	mv	a5,a0
    1190:	00000613          	li	a2,0
    1194:	00000693          	li	a3,0
    1198:	0007a583          	lw	a1,0(a5)
    119c:	0016869b          	0x16869b
    11a0:	00c7a023          	sw	a2,0(a5)
    11a4:	00c5863b          	0xc5863b
    11a8:	00478793          	addi	a5,a5,4
    11ac:	feda56e3          	bge	s4,a3,0x1198
    11b0:	05305663          	blez	s3,0x11fc
    11b4:	00040813          	mv	a6,s0
    11b8:	00000893          	li	a7,0
    11bc:	00082783          	lw	a5,0(a6)
    11c0:	00480813          	addi	a6,a6,4
    11c4:	0018889b          	0x18889b
    11c8:	00279793          	slli	a5,a5,0x2
    11cc:	00f907b3          	add	a5,s2,a5
    11d0:	0007a703          	lw	a4,0(a5)
    11d4:	00271713          	slli	a4,a4,0x2
    11d8:	00e50733          	add	a4,a0,a4
    11dc:	00072783          	lw	a5,0(a4)
    11e0:	0017869b          	0x17869b
    11e4:	00d72023          	sw	a3,0(a4)
    11e8:	ffc82703          	lw	a4,-4(a6)
    11ec:	00279793          	slli	a5,a5,0x2
    11f0:	00f487b3          	add	a5,s1,a5
    11f4:	00e7a023          	sw	a4,0(a5)
    11f8:	fd38c2e3          	blt	a7,s3,0x11bc
    11fc:	02813083          	0x2813083
    1200:	02013403          	0x2013403
    1204:	01813483          	0x1813483
    1208:	01013903          	0x1013903
    120c:	00813983          	0x813983
    1210:	00013a03          	0x13a03
    1214:	03010113          	addi	sp,sp,48
    1218:	00008067          	ret
    121c:	f33044e3          	bgtz	s3,0x1144
    1220:	fddff06f          	j	0x11fc
    1224:	f7010113          	addi	sp,sp,-144
    1228:	05613823          	0x5613823
    122c:	00060b13          	mv	s6,a2
    1230:	07213823          	0x7213823
    1234:	00300613          	li	a2,3
    1238:	002b091b          	0x2b091b
    123c:	08813023          	0x8813023
    1240:	02c9443b          	0x2c9443b
    1244:	03b13423          	0x3b13423
    1248:	07313423          	0x7313423
    124c:	05513c23          	0x5513c23
    1250:	07413023          	0x7413023
    1254:	03a13823          	0x3a13823
    1258:	00050a13          	mv	s4,a0
    125c:	00c13c23          	0xc13c23
    1260:	08113423          	0x8113423
    1264:	06913c23          	0x6913c23
    1268:	05713423          	0x5713423
    126c:	05813023          	0x5813023
    1270:	03913c23          	0x3913c23
    1274:	00058c13          	mv	s8,a1
    1278:	00068c93          	mv	s9,a3
    127c:	02cb4dbb          	0x2cb4dbb
    1280:	00241b93          	slli	s7,s0,0x2
    1284:	008d89bb          	0x8d89bb
    1288:	00398a9b          	0x398a9b
    128c:	002a9a93          	slli	s5,s5,0x2
    1290:	000a8513          	mv	a0,s5
    1294:	00298d13          	addi	s10,s3,2
    1298:	64c000ef          	jal	ra,0x18e4
    129c:	002d1d13          	slli	s10,s10,0x2
    12a0:	ffcd0713          	addi	a4,s10,-4
    12a4:	01a507b3          	add	a5,a0,s10
    12a8:	00e506b3          	add	a3,a0,a4
    12ac:	0007a023          	sw	zero,0(a5)
    12b0:	ff8d0793          	addi	a5,s10,-8
    12b4:	0006a023          	sw	zero,0(a3)
    12b8:	00f506b3          	add	a3,a0,a5
    12bc:	0006a023          	sw	zero,0(a3)
    12c0:	00050493          	mv	s1,a0
    12c4:	000a8513          	mv	a0,s5
    12c8:	00e13823          	0xe13823
    12cc:	00f13423          	0xf13423
    12d0:	614000ef          	jal	ra,0x18e4
    12d4:	01013703          	0x1013703
    12d8:	00813783          	0x813783
    12dc:	01a50d33          	add	s10,a0,s10
    12e0:	000d2023          	sw	zero,0(s10)
    12e4:	00e50733          	add	a4,a0,a4
    12e8:	00f507b3          	add	a5,a0,a5
    12ec:	00072023          	sw	zero,0(a4)
    12f0:	0007a023          	sw	zero,0(a5)
    12f4:	00050a93          	mv	s5,a0
    12f8:	000b8513          	mv	a0,s7
    12fc:	5e8000ef          	jal	ra,0x18e4
    1300:	00050d13          	mv	s10,a0
    1304:	000b8513          	mv	a0,s7
    1308:	5dc000ef          	jal	ra,0x18e4
    130c:	01813603          	0x1813603
    1310:	001b079b          	0x1b079b
    1314:	00050b93          	mv	s7,a0
    1318:	02c7c7bb          	0x2c7c7bb
    131c:	00098d93          	mv	s11,s3
    1320:	00000693          	li	a3,0
    1324:	00000613          	li	a2,0
    1328:	00300813          	li	a6,3
    132c:	40f4093b          	0x40f4093b
    1330:	0169053b          	0x169053b
    1334:	02a05e63          	blez	a0,0x1370
    1338:	0016869b          	0x16869b
    133c:	00261793          	slli	a5,a2,0x2
    1340:	00068713          	mv	a4,a3
    1344:	00f487b3          	add	a5,s1,a5
    1348:	02a68463          	beq	a3,a0,0x1370
    134c:	030765bb          	0x30765bb
    1350:	fe0584e3          	beqz	a1,0x1338
    1354:	0016061b          	0x16061b
    1358:	00e7a023          	sw	a4,0(a5)
    135c:	0016869b          	0x16869b
    1360:	00261793          	slli	a5,a2,0x2
    1364:	00068713          	mv	a4,a3
    1368:	00f487b3          	add	a5,s1,a5
    136c:	fea690e3          	bne	a3,a0,0x134c
    1370:	008a0613          	addi	a2,s4,8
    1374:	000a8593          	mv	a1,s5
    1378:	00048513          	mv	a0,s1
    137c:	000c8713          	mv	a4,s9
    1380:	00098693          	mv	a3,s3
    1384:	d61ff0ef          	jal	ra,0x10e4
    1388:	000c8713          	mv	a4,s9
    138c:	00098693          	mv	a3,s3
    1390:	004a0613          	addi	a2,s4,4
    1394:	00048593          	mv	a1,s1
    1398:	000a8513          	mv	a0,s5
    139c:	d49ff0ef          	jal	ra,0x10e4
    13a0:	000c8713          	mv	a4,s9
    13a4:	00098693          	mv	a3,s3
    13a8:	000a0613          	mv	a2,s4
    13ac:	000a8593          	mv	a1,s5
    13b0:	00048513          	mv	a0,s1
    13b4:	d31ff0ef          	jal	ra,0x10e4
    13b8:	13305463          	blez	s3,0x14e0
    13bc:	fffd859b          	0xfffd859b
    13c0:	02059593          	slli	a1,a1,0x20
    13c4:	0205d593          	srli	a1,a1,0x20
    13c8:	00158593          	addi	a1,a1,1
    13cc:	00259593          	slli	a1,a1,0x2
    13d0:	000a8d93          	mv	s11,s5
    13d4:	015585b3          	add	a1,a1,s5
    13d8:	000a8613          	mv	a2,s5
    13dc:	fff00293          	li	t0,-1
    13e0:	fff00f93          	li	t6,-1
    13e4:	fff00893          	li	a7,-1
    13e8:	00000693          	li	a3,0
    13ec:	00300813          	li	a6,3
    13f0:	00100313          	li	t1,1
    13f4:	0340006f          	j	0x1428
    13f8:	0307c7bb          	0x307c7bb
    13fc:	0016869b          	0x16869b
    1400:	000f0893          	mv	a7,t5
    1404:	0087873b          	0x87873b
    1408:	00271713          	slli	a4,a4,0x2
    140c:	00e48733          	add	a4,s1,a4
    1410:	046e8a63          	beq	t4,t1,0x1464
    1414:	00d72023          	sw	a3,0(a4)
    1418:	00460613          	addi	a2,a2,4
    141c:	00050f93          	mv	t6,a0
    1420:	000e0293          	mv	t0,t3
    1424:	04c58e63          	beq	a1,a2,0x1480
    1428:	00062783          	lw	a5,0(a2)
    142c:	00279713          	slli	a4,a5,0x2
    1430:	00ea0733          	add	a4,s4,a4
    1434:	00072f03          	lw	t5,0(a4)
    1438:	0307eebb          	0x307eebb
    143c:	00472503          	lw	a0,4(a4)
    1440:	00872e03          	lw	t3,8(a4)
    1444:	fb1f1ae3          	bne	t5,a7,0x13f8
    1448:	faaf98e3          	bne	t6,a0,0x13f8
    144c:	fbc296e3          	bne	t0,t3,0x13f8
    1450:	0307c7bb          	0x307c7bb
    1454:	0087873b          	0x87873b
    1458:	00271713          	slli	a4,a4,0x2
    145c:	00e48733          	add	a4,s1,a4
    1460:	fa6e9ae3          	bne	t4,t1,0x1414
    1464:	00279793          	slli	a5,a5,0x2
    1468:	00f487b3          	add	a5,s1,a5
    146c:	00d7a023          	sw	a3,0(a5)
    1470:	00460613          	addi	a2,a2,4
    1474:	00050f93          	mv	t6,a0
    1478:	000e0293          	mv	t0,t3
    147c:	fac596e3          	bne	a1,a2,0x1428
    1480:	00048613          	mv	a2,s1
    1484:	00000713          	li	a4,0
    1488:	2d36c863          	blt	a3,s3,0x1758
    148c:	00062783          	lw	a5,0(a2)
    1490:	00460613          	addi	a2,a2,4
    1494:	00279793          	slli	a5,a5,0x2
    1498:	00fa87b3          	add	a5,s5,a5
    149c:	fee7ae23          	sw	a4,-4(a5)
    14a0:	0017071b          	0x17071b
    14a4:	fee994e3          	bne	s3,a4,0x148c
    14a8:	000a8593          	mv	a1,s5
    14ac:	00000513          	li	a0,0
    14b0:	00000613          	li	a2,0
    14b4:	0005a703          	lw	a4,0(a1)
    14b8:	00251793          	slli	a5,a0,0x2
    14bc:	0016061b          	0x16061b
    14c0:	0017169b          	0x17169b
    14c4:	00fd07b3          	add	a5,s10,a5
    14c8:	00e686bb          	0xe686bb
    14cc:	00875663          	bge	a4,s0,0x14d8
    14d0:	00d7a023          	sw	a3,0(a5)
    14d4:	0015051b          	0x15051b
    14d8:	00458593          	addi	a1,a1,4
    14dc:	fd364ce3          	blt	a2,s3,0x14b4
    14e0:	000c8713          	mv	a4,s9
    14e4:	00040693          	mv	a3,s0
    14e8:	000a0613          	mv	a2,s4
    14ec:	000b8593          	mv	a1,s7
    14f0:	000d0513          	mv	a0,s10
    14f4:	bf1ff0ef          	jal	ra,0x10e4
    14f8:	0b605e63          	blez	s6,0x15b4
    14fc:	0009839b          	0x9839b
    1500:	0004029b          	0x4029b
    1504:	004a8793          	addi	a5,s5,4
    1508:	00000813          	li	a6,0
    150c:	00000313          	li	t1,0
    1510:	00300f93          	li	t6,3
    1514:	fff38d9b          	0xfff38d9b
    1518:	00f13423          	0xf13423
    151c:	fff28d1b          	0xfff28d1b
    1520:	004b8c93          	addi	s9,s7,4
    1524:	00231713          	slli	a4,t1,0x2
    1528:	00eb8733          	add	a4,s7,a4
    152c:	00072883          	lw	a7,0(a4)
    1530:	00291613          	slli	a2,s2,0x2
    1534:	00ca8633          	add	a2,s5,a2
    1538:	03f8ce3b          	0x3f8ce3b
    153c:	00062783          	lw	a5,0(a2)
    1540:	00289513          	slli	a0,a7,0x2
    1544:	00aa0533          	add	a0,s4,a0
    1548:	00052e83          	lw	t4,0(a0)
    154c:	000e0593          	mv	a1,t3
    1550:	0c87d663          	bge	a5,s0,0x161c
    1554:	0017969b          	0x17969b
    1558:	00f686bb          	0xf686bb
    155c:	0016869b          	0x16869b
    1560:	00269593          	slli	a1,a3,0x2
    1564:	00ba05b3          	add	a1,s4,a1
    1568:	008787bb          	0x8787bb
    156c:	0005a503          	lw	a0,0(a1)
    1570:	00279793          	slli	a5,a5,0x2
    1574:	002e1593          	slli	a1,t3,0x2
    1578:	00f487b3          	add	a5,s1,a5
    157c:	00b485b3          	add	a1,s1,a1
    1580:	0007ae03          	lw	t3,0(a5)
    1584:	0005a783          	lw	a5,0(a1)
    1588:	07d54663          	blt	a0,t4,0x15f4
    158c:	07d50263          	beq	a0,t4,0x15f0
    1590:	00281693          	slli	a3,a6,0x2
    1594:	00dc07b3          	add	a5,s8,a3
    1598:	0018059b          	0x18059b
    159c:	0117a023          	sw	a7,0(a5)
    15a0:	0013031b          	0x13031b
    15a4:	0005879b          	0x5879b
    15a8:	12640263          	beq	s0,t1,0x16cc
    15ac:	00078813          	mv	a6,a5
    15b0:	f7684ae3          	blt	a6,s6,0x1524
    15b4:	08813083          	0x8813083
    15b8:	08013403          	0x8013403
    15bc:	07813483          	0x7813483
    15c0:	07013903          	0x7013903
    15c4:	06813983          	0x6813983
    15c8:	06013a03          	0x6013a03
    15cc:	05813a83          	0x5813a83
    15d0:	05013b03          	0x5013b03
    15d4:	04813b83          	0x4813b83
    15d8:	04013c03          	0x4013c03
    15dc:	03813c83          	0x3813c83
    15e0:	03013d03          	0x3013d03
    15e4:	02813d83          	0x2813d83
    15e8:	09010113          	addi	sp,sp,144
    15ec:	00008067          	ret
    15f0:	fbc7c0e3          	blt	a5,t3,0x1590
    15f4:	00281793          	slli	a5,a6,0x2
    15f8:	00fc05b3          	add	a1,s8,a5
    15fc:	0018061b          	0x18061b
    1600:	00d5a023          	sw	a3,0(a1)
    1604:	0019091b          	0x19091b
    1608:	0006069b          	0x6069b
    160c:	07298663          	beq	s3,s2,0x1678
    1610:	00068813          	mv	a6,a3
    1614:	f16848e3          	blt	a6,s6,0x1524
    1618:	f9dff06f          	j	0x15b4
    161c:	408787bb          	0x408787bb
    1620:	0017969b          	0x17969b
    1624:	00f686bb          	0xf686bb
    1628:	0026869b          	0x26869b
    162c:	00269e13          	slli	t3,a3,0x2
    1630:	01ca0e33          	add	t3,s4,t3
    1634:	00178793          	addi	a5,a5,1
    1638:	008585bb          	0x8585bb
    163c:	000e2f03          	lw	t5,0(t3)
    1640:	00279793          	slli	a5,a5,0x2
    1644:	00259593          	slli	a1,a1,0x2
    1648:	00f487b3          	add	a5,s1,a5
    164c:	00b485b3          	add	a1,s1,a1
    1650:	004e2e03          	lw	t3,4(t3)
    1654:	0007a783          	lw	a5,0(a5)
    1658:	00452503          	lw	a0,4(a0)
    165c:	0005a583          	lw	a1,0(a1)
    1660:	f9df4ae3          	blt	t5,t4,0x15f4
    1664:	f3df16e3          	bne	t5,t4,0x1590
    1668:	f8ae46e3          	blt	t3,a0,0x15f4
    166c:	f2ae12e3          	bne	t3,a0,0x1590
    1670:	f2f5c0e3          	blt	a1,a5,0x1590
    1674:	f81ff06f          	j	0x15f4
    1678:	10835a63          	bge	t1,s0,0x178c
    167c:	0003081b          	0x3081b
    1680:	410d06bb          	0x410d06bb
    1684:	02069693          	slli	a3,a3,0x20
    1688:	0206d693          	srli	a3,a3,0x20
    168c:	00668333          	add	t1,a3,t1
    1690:	00478793          	addi	a5,a5,4
    1694:	00231313          	slli	t1,t1,0x2
    1698:	00fc07b3          	add	a5,s8,a5
    169c:	01930333          	add	t1,t1,s9
    16a0:	00072683          	lw	a3,0(a4)
    16a4:	00478793          	addi	a5,a5,4
    16a8:	00470713          	addi	a4,a4,4
    16ac:	fed7ae23          	sw	a3,-4(a5)
    16b0:	fee318e3          	bne	t1,a4,0x16a0
    16b4:	4106083b          	0x4106083b
    16b8:	0058083b          	0x58083b
    16bc:	0018081b          	0x18081b
    16c0:	00040313          	mv	t1,s0
    16c4:	e76840e3          	blt	a6,s6,0x1524
    16c8:	eedff06f          	j	0x15b4
    16cc:	0d395063          	bge	s2,s3,0x178c
    16d0:	0009081b          	0x9081b
    16d4:	410d88bb          	0x410d88bb
    16d8:	02089893          	slli	a7,a7,0x20
    16dc:	0208d893          	srli	a7,a7,0x20
    16e0:	00813783          	0x813783
    16e4:	012888b3          	add	a7,a7,s2
    16e8:	00468693          	addi	a3,a3,4
    16ec:	00289893          	slli	a7,a7,0x2
    16f0:	00dc06b3          	add	a3,s8,a3
    16f4:	00f888b3          	add	a7,a7,a5
    16f8:	0180006f          	j	0x1710
    16fc:	0015079b          	0x15079b
    1700:	00f6a023          	sw	a5,0(a3)
    1704:	00460613          	addi	a2,a2,4
    1708:	00468693          	addi	a3,a3,4
    170c:	02c88a63          	beq	a7,a2,0x1740
    1710:	00062703          	lw	a4,0(a2)
    1714:	40870e3b          	0x40870e3b
    1718:	0017151b          	0x17151b
    171c:	001e179b          	0x1e179b
    1720:	00e5053b          	0xe5053b
    1724:	01c787bb          	0x1c787bb
    1728:	fc874ae3          	blt	a4,s0,0x16fc
    172c:	0027879b          	0x27879b
    1730:	00f6a023          	sw	a5,0(a3)
    1734:	00460613          	addi	a2,a2,4
    1738:	00468693          	addi	a3,a3,4
    173c:	fcc89ae3          	bne	a7,a2,0x1710
    1740:	4105883b          	0x4105883b
    1744:	0078083b          	0x78083b
    1748:	0018081b          	0x18081b
    174c:	00098913          	mv	s2,s3
    1750:	dd684ae3          	blt	a6,s6,0x1524
    1754:	e61ff06f          	j	0x15b4
    1758:	00098613          	mv	a2,s3
    175c:	000a8593          	mv	a1,s5
    1760:	00048513          	mv	a0,s1
    1764:	ac1ff0ef          	jal	ra,0x1224
    1768:	00000713          	li	a4,0
    176c:	000da783          	lw	a5,0(s11)
    1770:	0017071b          	0x17071b
    1774:	004d8d93          	addi	s11,s11,4
    1778:	00279793          	slli	a5,a5,0x2
    177c:	00f487b3          	add	a5,s1,a5
    1780:	00e7a023          	sw	a4,0(a5)
    1784:	ff3714e3          	bne	a4,s3,0x176c
    1788:	d21ff06f          	j	0x14a8
    178c:	0028081b          	0x28081b
    1790:	d9684ae3          	blt	a6,s6,0x1524
    1794:	e21ff06f          	j	0x15b4
    1798:	00005797          	auipc	a5,0x5
    179c:	28878793          	addi	a5,a5,648 # 0x6a20
    17a0:	0007b783          	0x7b783
    17a4:	fd010113          	addi	sp,sp,-48
    17a8:	00100513          	li	a0,1
    17ac:	0007a783          	lw	a5,0(a5)
    17b0:	02113423          	0x2113423
    17b4:	00913c23          	0x913c23
    17b8:	00005717          	auipc	a4,0x5
    17bc:	1cf72023          	sw	a5,448(a4) # 0x6978
    17c0:	00005497          	auipc	s1,0x5
    17c4:	1b848493          	addi	s1,s1,440 # 0x6978
    17c8:	02813023          	0x2813023
    17cc:	01213823          	0x1213823
    17d0:	01313423          	0x1313423
    17d4:	1b8000ef          	jal	ra,0x198c
    17d8:	0004a503          	lw	a0,0(s1)
    17dc:	00a5051b          	0xa5051b
    17e0:	00251513          	slli	a0,a0,0x2
    17e4:	100000ef          	jal	ra,0x18e4
    17e8:	0004a783          	lw	a5,0(s1)
    17ec:	00005717          	auipc	a4,0x5
    17f0:	18a73223          	0x18a73223
    17f4:	00a7851b          	0xa7851b
    17f8:	00251513          	slli	a0,a0,0x2
    17fc:	0e8000ef          	jal	ra,0x18e4
    1800:	0004a783          	lw	a5,0(s1)
    1804:	00005717          	auipc	a4,0x5
    1808:	16a73223          	0x16a73223
    180c:	02f05e63          	blez	a5,0x1848
    1810:	00000413          	li	s0,0
    1814:	00005997          	auipc	s3,0x5
    1818:	15c98993          	addi	s3,s3,348 # 0x6970
    181c:	01a00913          	li	s2,26
    1820:	184000ef          	jal	ra,0x19a4
    1824:	0325753b          	0x325753b
    1828:	0009b783          	0x9b783
    182c:	00241713          	slli	a4,s0,0x2
    1830:	0004a683          	lw	a3,0(s1)
    1834:	00e787b3          	add	a5,a5,a4
    1838:	00140413          	addi	s0,s0,1
    183c:	0004071b          	0x4071b
    1840:	00a7a023          	sw	a0,0(a5)
    1844:	fcd74ee3          	blt	a4,a3,0x1820
    1848:	02813083          	0x2813083
    184c:	02013403          	0x2013403
    1850:	01813483          	0x1813483
    1854:	01013903          	0x1013903
    1858:	00813983          	0x813983
    185c:	03010113          	addi	sp,sp,48
    1860:	00008067          	ret
    1864:	00005797          	auipc	a5,0x5
    1868:	11478793          	addi	a5,a5,276 # 0x6978
    186c:	0007a603          	lw	a2,0(a5)
    1870:	00005797          	auipc	a5,0x5
    1874:	0f878793          	addi	a5,a5,248 # 0x6968
    1878:	0007b583          	0x7b583
    187c:	00005797          	auipc	a5,0x5
    1880:	0f478793          	addi	a5,a5,244 # 0x6970
    1884:	0007b503          	0x7b503
    1888:	01a00693          	li	a3,26
    188c:	999ff06f          	j	0x1224
    1890:	00005797          	auipc	a5,0x5
    1894:	0e878793          	addi	a5,a5,232 # 0x6978
    1898:	0007a583          	lw	a1,0(a5)
    189c:	00005797          	auipc	a5,0x5
    18a0:	0cc78793          	addi	a5,a5,204 # 0x6968
    18a4:	0007b503          	0x7b503
    18a8:	00259593          	slli	a1,a1,0x2
    18ac:	ff010113          	addi	sp,sp,-16
    18b0:	00b505b3          	add	a1,a0,a1
    18b4:	00113423          	0x113423
    18b8:	120000ef          	jal	ra,0x19d8
    18bc:	00005797          	auipc	a5,0x5
    18c0:	16478793          	addi	a5,a5,356 # 0x6a20
    18c4:	0007b783          	0x7b783
    18c8:	00813083          	0x813083
    18cc:	0005051b          	0x5051b
    18d0:	0187a783          	lw	a5,24(a5)
    18d4:	01010113          	addi	sp,sp,16
    18d8:	40a78533          	sub	a0,a5,a0
    18dc:	00153513          	seqz	a0,a0
    18e0:	00008067          	ret
    18e4:	00005797          	auipc	a5,0x5
    18e8:	09c78793          	addi	a5,a5,156 # 0x6980
    18ec:	0007b703          	0x7b703
    18f0:	00750513          	addi	a0,a0,7
    18f4:	00005797          	auipc	a5,0x5
    18f8:	fe478793          	addi	a5,a5,-28 # 0x68d8
    18fc:	ff857513          	andi	a0,a0,-8
    1900:	0007b683          	0x7b683
    1904:	ff010113          	addi	sp,sp,-16
    1908:	00a70533          	add	a0,a4,a0
    190c:	00113423          	0x113423
    1910:	00005617          	auipc	a2,0x5
    1914:	06a63823          	0x6a63823
    1918:	04d56463          	bltu	a0,a3,0x1960
    191c:	0087b783          	0x87b783
    1920:	04f57063          	bgeu	a0,a5,0x1960
    1924:	00070793          	mv	a5,a4
    1928:	00e50863          	beq	a0,a4,0x1938
    192c:	0007b023          	0x7b023
    1930:	00878793          	addi	a5,a5,8
    1934:	fef51ce3          	bne	a0,a5,0x192c
    1938:	00005797          	auipc	a5,0x5
    193c:	0e878793          	addi	a5,a5,232 # 0x6a20
    1940:	0007b783          	0x7b783
    1944:	40d50533          	sub	a0,a0,a3
    1948:	0087b783          	0x87b783
    194c:	02a7ea63          	bltu	a5,a0,0x1980
    1950:	00813083          	0x813083
    1954:	00070513          	mv	a0,a4
    1958:	01010113          	addi	sp,sp,16
    195c:	00008067          	ret
    1960:	08d00613          	li	a2,141
    1964:	00004597          	auipc	a1,0x4
    1968:	0d458593          	addi	a1,a1,212 # 0x5a38
    196c:	00004517          	auipc	a0,0x4
    1970:	10450513          	addi	a0,a0,260 # 0x5a70
    1974:	3f9030ef          	jal	ra,0x556c
    1978:	00100513          	li	a0,1
    197c:	4ad020ef          	jal	ra,0x4628
    1980:	09100613          	li	a2,145
    1984:	fe1ff06f          	j	0x1964
    1988:	00008067          	ret
    198c:	000087b7          	lui	a5,0x8
    1990:	fff78793          	addi	a5,a5,-1 # 0x7fff
    1994:	00f57533          	and	a0,a0,a5
    1998:	00005797          	auipc	a5,0x5
    199c:	f2a7ac23          	sw	a0,-200(a5) # 0x68d0
    19a0:	00008067          	ret
    19a4:	00005697          	auipc	a3,0x5
    19a8:	f2c68693          	addi	a3,a3,-212 # 0x68d0
    19ac:	0006a783          	lw	a5,0(a3)
    19b0:	00034737          	lui	a4,0x34
    19b4:	3fd7071b          	0x3fd7071b
    19b8:	02e787bb          	0x2e787bb
    19bc:	0026a737          	lui	a4,0x26a
    19c0:	ec37071b          	0xec37071b
    19c4:	00e787bb          	0xe787bb
    19c8:	02179513          	slli	a0,a5,0x21
    19cc:	00f6a023          	sw	a5,0(a3)
    19d0:	03155513          	srli	a0,a0,0x31
    19d4:	00008067          	ret
    19d8:	811ca737          	lui	a4,0x811ca
    19dc:	01000637          	lui	a2,0x1000
    19e0:	00450513          	addi	a0,a0,4
    19e4:	dc570713          	addi	a4,a4,-571 # 0xffffffff811c9dc5
    19e8:	1936061b          	0x1936061b
    19ec:	02b57263          	bgeu	a0,a1,0x1a10
    19f0:	ffc50793          	addi	a5,a0,-4
    19f4:	0007c683          	lbu	a3,0(a5)
    19f8:	00178793          	addi	a5,a5,1
    19fc:	00d74733          	xor	a4,a4,a3
    1a00:	02e6073b          	0x2e6073b
    1a04:	fef518e3          	bne	a0,a5,0x19f4
    1a08:	00450513          	addi	a0,a0,4
    1a0c:	feb562e3          	bltu	a0,a1,0x19f0
    1a10:	00d7179b          	0xd7179b
    1a14:	00e787bb          	0xe787bb
    1a18:	4077d71b          	0x4077d71b
    1a1c:	00f74733          	xor	a4,a4,a5
    1a20:	0037179b          	0x37179b
    1a24:	00e7853b          	0xe7853b
    1a28:	4115579b          	0x4115579b
    1a2c:	00a7c7b3          	xor	a5,a5,a0
    1a30:	0057951b          	0x57951b
    1a34:	00f5053b          	0xf5053b
    1a38:	00008067          	ret
    1a3c:	00005797          	auipc	a5,0x5
    1a40:	f5078793          	addi	a5,a5,-176 # 0x698c
    1a44:	0007a783          	lw	a5,0(a5)
    1a48:	fd010113          	addi	sp,sp,-48
    1a4c:	01413023          	0x1413023
    1a50:	02113423          	0x2113423
    1a54:	02813023          	0x2813023
    1a58:	00913c23          	0x913c23
    1a5c:	01213823          	0x1213823
    1a60:	01313423          	0x1313423
    1a64:	00100a13          	li	s4,1
    1a68:	04a78c63          	beq	a5,a0,0x1ac0
    1a6c:	00c5e433          	or	s0,a1,a2
    1a70:	00a46433          	or	s0,s0,a0
    1a74:	fff44413          	not	s0,s0
    1a78:	00f47433          	and	s0,s0,a5
    1a7c:	00060913          	mv	s2,a2
    1a80:	00058993          	mv	s3,a1
    1a84:	00050493          	mv	s1,a0
    1a88:	00000a13          	li	s4,0
    1a8c:	02040a63          	beqz	s0,0x1ac0
    1a90:	408007bb          	0x408007bb
    1a94:	00f477b3          	and	a5,s0,a5
    1a98:	0007879b          	0x7879b
    1a9c:	0137e5b3          	or	a1,a5,s3
    1aa0:	00f96633          	or	a2,s2,a5
    1aa4:	0015959b          	0x15959b
    1aa8:	0016561b          	0x16561b
    1aac:	0097e533          	or	a0,a5,s1
    1ab0:	40f4043b          	0x40f4043b
    1ab4:	f89ff0ef          	jal	ra,0x1a3c
    1ab8:	01450a3b          	0x1450a3b
    1abc:	fc041ae3          	bnez	s0,0x1a90
    1ac0:	02813083          	0x2813083
    1ac4:	02013403          	0x2013403
    1ac8:	000a0513          	mv	a0,s4
    1acc:	01813483          	0x1813483
    1ad0:	01013903          	0x1013903
    1ad4:	00813983          	0x813983
    1ad8:	00013a03          	0x13a03
    1adc:	03010113          	addi	sp,sp,48
    1ae0:	00008067          	ret
    1ae4:	00005797          	auipc	a5,0x5
    1ae8:	f3c78793          	addi	a5,a5,-196 # 0x6a20
    1aec:	0007b783          	0x7b783
    1af0:	00005717          	auipc	a4,0x5
    1af4:	e8072c23          	sw	zero,-360(a4) # 0x6988
    1af8:	0007a703          	lw	a4,0(a5)
    1afc:	00100793          	li	a5,1
    1b00:	00e797bb          	0xe797bb
    1b04:	fff7879b          	0xfff7879b
    1b08:	00005717          	auipc	a4,0x5
    1b0c:	e8f72223          	sw	a5,-380(a4) # 0x698c
    1b10:	00008067          	ret
    1b14:	ff010113          	addi	sp,sp,-16
    1b18:	00000613          	li	a2,0
    1b1c:	00000593          	li	a1,0
    1b20:	00000513          	li	a0,0
    1b24:	00113423          	0x113423
    1b28:	f15ff0ef          	jal	ra,0x1a3c
    1b2c:	00813083          	0x813083
    1b30:	00005797          	auipc	a5,0x5
    1b34:	e4a7ac23          	sw	a0,-424(a5) # 0x6988
    1b38:	01010113          	addi	sp,sp,16
    1b3c:	00008067          	ret
    1b40:	00005797          	auipc	a5,0x5
    1b44:	ee078793          	addi	a5,a5,-288 # 0x6a20
    1b48:	0007b703          	0x7b703
    1b4c:	00005797          	auipc	a5,0x5
    1b50:	e3c78793          	addi	a5,a5,-452 # 0x6988
    1b54:	0007a783          	lw	a5,0(a5)
    1b58:	01872503          	lw	a0,24(a4)
    1b5c:	40f50533          	sub	a0,a0,a5
    1b60:	00153513          	seqz	a0,a0
    1b64:	00008067          	ret
    1b68:	00005797          	auipc	a5,0x5
    1b6c:	eb878793          	addi	a5,a5,-328 # 0x6a20
    1b70:	0007b783          	0x7b783
    1b74:	fe010113          	addi	sp,sp,-32
    1b78:	00100513          	li	a0,1
    1b7c:	0007a783          	lw	a5,0(a5)
    1b80:	00113c23          	0x113c23
    1b84:	00913423          	0x913423
    1b88:	00005717          	auipc	a4,0x5
    1b8c:	e0f72c23          	sw	a5,-488(a4) # 0x69a0
    1b90:	00005497          	auipc	s1,0x5
    1b94:	e1048493          	addi	s1,s1,-496 # 0x69a0
    1b98:	00813823          	0x813823
    1b9c:	01213023          	0x1213023
    1ba0:	dedff0ef          	jal	ra,0x198c
    1ba4:	0004a503          	lw	a0,0(s1)
    1ba8:	d3dff0ef          	jal	ra,0x18e4
    1bac:	0004a783          	lw	a5,0(s1)
    1bb0:	00005717          	auipc	a4,0x5
    1bb4:	dea73423          	0xdea73423
    1bb8:	02f05863          	blez	a5,0x1be8
    1bbc:	00000413          	li	s0,0
    1bc0:	00005917          	auipc	s2,0x5
    1bc4:	dd890913          	addi	s2,s2,-552 # 0x6998
    1bc8:	dddff0ef          	jal	ra,0x19a4
    1bcc:	00093783          	0x93783
    1bd0:	0004a703          	lw	a4,0(s1)
    1bd4:	008787b3          	add	a5,a5,s0
    1bd8:	00140413          	addi	s0,s0,1
    1bdc:	00a78023          	sb	a0,0(a5)
    1be0:	0004079b          	0x4079b
    1be4:	fee7c2e3          	blt	a5,a4,0x1bc8
    1be8:	01000513          	li	a0,16
    1bec:	cf9ff0ef          	jal	ra,0x18e4
    1bf0:	01813083          	0x1813083
    1bf4:	01013403          	0x1013403
    1bf8:	00005797          	auipc	a5,0x5
    1bfc:	d8a7bc23          	0xd8a7bc23
    1c00:	00813483          	0x813483
    1c04:	00013903          	0x13903
    1c08:	02010113          	addi	sp,sp,32
    1c0c:	00008067          	ret
    1c10:	00005797          	auipc	a5,0x5
    1c14:	d9078793          	addi	a5,a5,-624 # 0x69a0
    1c18:	0007a683          	lw	a3,0(a5)
    1c1c:	00005797          	auipc	a5,0x5
    1c20:	d7c78793          	addi	a5,a5,-644 # 0x6998
    1c24:	0007bf83          	0x7bf83
    1c28:	f5010113          	addi	sp,sp,-176
    1c2c:	00168793          	addi	a5,a3,1
    1c30:	00005717          	auipc	a4,0x5
    1c34:	d6070713          	addi	a4,a4,-672 # 0x6990
    1c38:	0a813423          	0xa813423
    1c3c:	0a913023          	0xa913023
    1c40:	09213c23          	0x9213c23
    1c44:	09313823          	0x9313823
    1c48:	09413423          	0x9413423
    1c4c:	09513023          	0x9513023
    1c50:	07613c23          	0x7613c23
    1c54:	07713823          	0x7713823
    1c58:	07813423          	0x7813423
    1c5c:	07913023          	0x7913023
    1c60:	05a13c23          	0x5a13c23
    1c64:	05b13823          	0x5b13823
    1c68:	03f7f513          	andi	a0,a5,63
    1c6c:	03800593          	li	a1,56
    1c70:	00073703          	0x73703
    1c74:	00df8633          	add	a2,t6,a3
    1c78:	00078f13          	mv	t5,a5
    1c7c:	2eb50a63          	beq	a0,a1,0x1f70
    1c80:	03800513          	li	a0,56
    1c84:	001f0f13          	addi	t5,t5,1
    1c88:	03ff7593          	andi	a1,t5,63
    1c8c:	fea59ce3          	bne	a1,a0,0x1c84
    1c90:	f8000593          	li	a1,-128
    1c94:	00b60023          	sb	a1,0(a2) # 0x1000000
    1c98:	2fe7f063          	bgeu	a5,t5,0x1f78
    1c9c:	00ff87b3          	add	a5,t6,a5
    1ca0:	01ef8633          	add	a2,t6,t5
    1ca4:	00078023          	sb	zero,0(a5)
    1ca8:	00178793          	addi	a5,a5,1
    1cac:	fef61ce3          	bne	a2,a5,0x1ca4
    1cb0:	0036951b          	0x36951b
    1cb4:	01d6d693          	srli	a3,a3,0x1d
    1cb8:	0006859b          	0x6859b
    1cbc:	0185581b          	0x185581b
    1cc0:	0085531b          	0x85531b
    1cc4:	0105589b          	0x105589b
    1cc8:	004f0793          	addi	a5,t5,4
    1ccc:	00a60023          	sb	a0,0(a2)
    1cd0:	010601a3          	sb	a6,3(a2)
    1cd4:	006600a3          	sb	t1,1(a2)
    1cd8:	01160123          	sb	a7,2(a2)
    1cdc:	00ff87b3          	add	a5,t6,a5
    1ce0:	0085d51b          	0x85d51b
    1ce4:	0105d61b          	0x105d61b
    1ce8:	d76aa3b7          	lui	t2,0xd76aa
    1cec:	0185d59b          	0x185d59b
    1cf0:	00a780a3          	sb	a0,1(a5)
    1cf4:	00c78123          	sb	a2,2(a5)
    1cf8:	00b781a3          	sb	a1,3(a5)
    1cfc:	00d78023          	sb	a3,0(a5)
    1d00:	10325637          	lui	a2,0x10325
    1d04:	98bae5b7          	lui	a1,0x98bae
    1d08:	efcdb537          	lui	a0,0xefcdb
    1d0c:	67452837          	lui	a6,0x67452
    1d10:	47838793          	addi	a5,t2,1144 # 0xffffffffd76aa478
    1d14:	47660613          	addi	a2,a2,1142 # 0x10325476
    1d18:	cfe58593          	addi	a1,a1,-770 # 0xffffffff98badcfe
    1d1c:	b8950513          	addi	a0,a0,-1143 # 0xffffffffefcdab89
    1d20:	30180813          	addi	a6,a6,769 # 0x67452301
    1d24:	00000293          	li	t0,0
    1d28:	05010c93          	addi	s9,sp,80
    1d2c:	00f13423          	0xf13423
    1d30:	00f00c13          	li	s8,15
    1d34:	01f00b93          	li	s7,31
    1d38:	02f00b13          	li	s6,47
    1d3c:	03f00a93          	li	s5,63
    1d40:	005f87b3          	add	a5,t6,t0
    1d44:	01010e13          	addi	t3,sp,16
    1d48:	0017c303          	lbu	t1,1(a5)
    1d4c:	0007ce83          	lbu	t4,0(a5)
    1d50:	0027c883          	lbu	a7,2(a5)
    1d54:	0037c683          	lbu	a3,3(a5)
    1d58:	00831313          	slli	t1,t1,0x8
    1d5c:	01d36333          	or	t1,t1,t4
    1d60:	01089893          	slli	a7,a7,0x10
    1d64:	0068e8b3          	or	a7,a7,t1
    1d68:	01869693          	slli	a3,a3,0x18
    1d6c:	0116e6b3          	or	a3,a3,a7
    1d70:	00de2023          	sw	a3,0(t3)
    1d74:	004e0e13          	addi	t3,t3,4
    1d78:	00478793          	addi	a5,a5,4
    1d7c:	fdcc96e3          	bne	s9,t3,0x1d48
    1d80:	00813d83          	0x813d83
    1d84:	00080793          	mv	a5,a6
    1d88:	00000e93          	li	t4,0
    1d8c:	00004a17          	auipc	s4,0x4
    1d90:	e30a0a13          	addi	s4,s4,-464 # 0x5bbc
    1d94:	00004997          	auipc	s3,0x4
    1d98:	f2898993          	addi	s3,s3,-216 # 0x5cbc
    1d9c:	00050893          	mv	a7,a0
    1da0:	00060e13          	mv	t3,a2
    1da4:	00058313          	mv	t1,a1
    1da8:	00100913          	li	s2,1
    1dac:	00500493          	li	s1,5
    1db0:	00000413          	li	s0,0
    1db4:	00700d13          	li	s10,7
    1db8:	01b78dbb          	0x1b78dbb
    1dbc:	09dc7263          	bgeu	s8,t4,0x1e40
    1dc0:	011347b3          	xor	a5,t1,a7
    1dc4:	01c7f7b3          	and	a5,a5,t3
    1dc8:	00f347b3          	xor	a5,t1,a5
    1dcc:	09dbe663          	bltu	s7,t4,0x1e58
    1dd0:	0007879b          	0x7879b
    1dd4:	00f97693          	andi	a3,s2,15
    1dd8:	02069693          	slli	a3,a3,0x20
    1ddc:	01e6d693          	srli	a3,a3,0x1e
    1de0:	05010393          	addi	t2,sp,80
    1de4:	00d386b3          	add	a3,t2,a3
    1de8:	fc06a683          	lw	a3,-64(a3)
    1dec:	01b787bb          	0x1b787bb
    1df0:	41a00dbb          	0x41a00dbb
    1df4:	00d787bb          	0xd787bb
    1df8:	01a796bb          	0x1a796bb
    1dfc:	01b7d7bb          	0x1b7d7bb
    1e00:	00f6e6b3          	or	a3,a3,a5
    1e04:	011686bb          	0x11686bb
    1e08:	000a2d83          	lw	s11,0(s4)
    1e0c:	000e079b          	0xe079b
    1e10:	001e8e9b          	0x1e8e9b
    1e14:	0009ad03          	lw	s10,0(s3)
    1e18:	00030e1b          	0x30e1b
    1e1c:	004a0a13          	addi	s4,s4,4
    1e20:	0008831b          	0x8831b
    1e24:	00498993          	addi	s3,s3,4
    1e28:	0074041b          	0x74041b
    1e2c:	0034849b          	0x34849b
    1e30:	0059091b          	0x59091b
    1e34:	00068893          	mv	a7,a3
    1e38:	01b78dbb          	0x1b78dbb
    1e3c:	f9dc62e3          	bltu	s8,t4,0x1dc0
    1e40:	01c347b3          	xor	a5,t1,t3
    1e44:	0117f7b3          	and	a5,a5,a7
    1e48:	00fe47b3          	xor	a5,t3,a5
    1e4c:	0007879b          	0x7879b
    1e50:	000e8693          	mv	a3,t4
    1e54:	f85ff06f          	j	0x1dd8
    1e58:	01c347b3          	xor	a5,t1,t3
    1e5c:	0117c7b3          	xor	a5,a5,a7
    1e60:	01db6863          	bltu	s6,t4,0x1e70
    1e64:	0007879b          	0x7879b
    1e68:	00f4f693          	andi	a3,s1,15
    1e6c:	f6dff06f          	j	0x1dd8
    1e70:	00f47793          	andi	a5,s0,15
    1e74:	05010693          	addi	a3,sp,80
    1e78:	00279793          	slli	a5,a5,0x2
    1e7c:	00f687b3          	add	a5,a3,a5
    1e80:	fc07a783          	lw	a5,-64(a5)
    1e84:	fffe4693          	not	a3,t3
    1e88:	0116e6b3          	or	a3,a3,a7
    1e8c:	0066c6b3          	xor	a3,a3,t1
    1e90:	00d787bb          	0xd787bb
    1e94:	01b787bb          	0x1b787bb
    1e98:	41a00dbb          	0x41a00dbb
    1e9c:	01a796bb          	0x1a796bb
    1ea0:	01b7d7bb          	0x1b7d7bb
    1ea4:	00f6e6b3          	or	a3,a3,a5
    1ea8:	011686bb          	0x11686bb
    1eac:	f55e9ee3          	bne	t4,s5,0x1e08
    1eb0:	04028293          	addi	t0,t0,64
    1eb4:	010e083b          	0x10e083b
    1eb8:	00a6853b          	0xa6853b
    1ebc:	00b885bb          	0xb885bb
    1ec0:	00c3063b          	0xc3063b
    1ec4:	e7e2eee3          	bltu	t0,t5,0x1d40
    1ec8:	0088549b          	0x88549b
    1ecc:	0108541b          	0x108541b
    1ed0:	0188539b          	0x188539b
    1ed4:	0085529b          	0x85529b
    1ed8:	01055f9b          	0x1055f9b
    1edc:	01855f1b          	0x1855f1b
    1ee0:	0085de9b          	0x85de9b
    1ee4:	0105de1b          	0x105de1b
    1ee8:	0185d31b          	0x185d31b
    1eec:	0086589b          	0x86589b
    1ef0:	0106569b          	0x106569b
    1ef4:	0186579b          	0x186579b
    1ef8:	01070023          	sb	a6,0(a4)
    1efc:	009700a3          	sb	s1,1(a4)
    1f00:	00870123          	sb	s0,2(a4)
    1f04:	007701a3          	sb	t2,3(a4)
    1f08:	00a70223          	sb	a0,4(a4)
    1f0c:	005702a3          	sb	t0,5(a4)
    1f10:	01f70323          	sb	t6,6(a4)
    1f14:	01e703a3          	sb	t5,7(a4)
    1f18:	00b70423          	sb	a1,8(a4)
    1f1c:	01d704a3          	sb	t4,9(a4)
    1f20:	01c70523          	sb	t3,10(a4)
    1f24:	006705a3          	sb	t1,11(a4)
    1f28:	00c70623          	sb	a2,12(a4)
    1f2c:	011706a3          	sb	a7,13(a4)
    1f30:	00d70723          	sb	a3,14(a4)
    1f34:	00f707a3          	sb	a5,15(a4)
    1f38:	0a813403          	0xa813403
    1f3c:	0a013483          	0xa013483
    1f40:	09813903          	0x9813903
    1f44:	09013983          	0x9013983
    1f48:	08813a03          	0x8813a03
    1f4c:	08013a83          	0x8013a83
    1f50:	07813b03          	0x7813b03
    1f54:	07013b83          	0x7013b83
    1f58:	06813c03          	0x6813c03
    1f5c:	06013c83          	0x6013c83
    1f60:	05813d03          	0x5813d03
    1f64:	05013d83          	0x5013d83
    1f68:	0b010113          	addi	sp,sp,176
    1f6c:	00008067          	ret
    1f70:	f8000793          	li	a5,-128
    1f74:	00f60023          	sb	a5,0(a2)
    1f78:	01ef8633          	add	a2,t6,t5
    1f7c:	d35ff06f          	j	0x1cb0
    1f80:	00005797          	auipc	a5,0x5
    1f84:	a1078793          	addi	a5,a5,-1520 # 0x6990
    1f88:	0007b503          	0x7b503
    1f8c:	ff010113          	addi	sp,sp,-16
    1f90:	00113423          	0x113423
    1f94:	01050593          	addi	a1,a0,16
    1f98:	a41ff0ef          	jal	ra,0x19d8
    1f9c:	00005797          	auipc	a5,0x5
    1fa0:	a8478793          	addi	a5,a5,-1404 # 0x6a20
    1fa4:	0007b783          	0x7b783
    1fa8:	00813083          	0x813083
    1fac:	0005051b          	0x5051b
    1fb0:	0187a783          	lw	a5,24(a5)
    1fb4:	01010113          	addi	sp,sp,16
    1fb8:	40a78533          	sub	a0,a5,a0
    1fbc:	00153513          	seqz	a0,a0
    1fc0:	00008067          	ret
    1fc4:	00005797          	auipc	a5,0x5
    1fc8:	a5c78793          	addi	a5,a5,-1444 # 0x6a20
    1fcc:	0007b783          	0x7b783
    1fd0:	ff010113          	addi	sp,sp,-16
    1fd4:	00813023          	0x813023
    1fd8:	0007a783          	lw	a5,0(a5)
    1fdc:	00113423          	0x113423
    1fe0:	02f7843b          	0x2f7843b
    1fe4:	00005717          	auipc	a4,0x5
    1fe8:	9ef72223          	sw	a5,-1564(a4) # 0x69c8
    1fec:	0024141b          	0x24141b
    1ff0:	00040513          	mv	a0,s0
    1ff4:	8f1ff0ef          	jal	ra,0x18e4
    1ff8:	00005797          	auipc	a5,0x5
    1ffc:	9ca7b423          	0x9ca7b423
    2000:	00040513          	mv	a0,s0
    2004:	8e1ff0ef          	jal	ra,0x18e4
    2008:	00005797          	auipc	a5,0x5
    200c:	9aa7b423          	0x9aa7b423
    2010:	00040513          	mv	a0,s0
    2014:	8d1ff0ef          	jal	ra,0x18e4
    2018:	00005797          	auipc	a5,0x5
    201c:	9aa7b023          	0x9aa7b023
    2020:	00040513          	mv	a0,s0
    2024:	8c1ff0ef          	jal	ra,0x18e4
    2028:	00813083          	0x813083
    202c:	00013403          	0x13403
    2030:	00005797          	auipc	a5,0x5
    2034:	96a7bc23          	0x96a7bc23
    2038:	01010113          	addi	sp,sp,16
    203c:	00008067          	ret
    2040:	00005797          	auipc	a5,0x5
    2044:	98878793          	addi	a5,a5,-1656 # 0x69c8
    2048:	0007a803          	lw	a6,0(a5)
    204c:	fc010113          	addi	sp,sp,-64
    2050:	00005797          	auipc	a5,0x5
    2054:	96078793          	addi	a5,a5,-1696 # 0x69b0
    2058:	0007b303          	0x7b303
    205c:	02813c23          	0x2813c23
    2060:	00005797          	auipc	a5,0x5
    2064:	95878793          	addi	a5,a5,-1704 # 0x69b8
    2068:	02913823          	0x2913823
    206c:	03213423          	0x3213423
    2070:	03313023          	0x3313023
    2074:	01413c23          	0x1413c23
    2078:	01513823          	0x1513823
    207c:	01613423          	0x1613423
    2080:	01713023          	0x1713023
    2084:	0007bf83          	0x7bf83
    2088:	25005e63          	blez	a6,0x22e4
    208c:	00005797          	auipc	a5,0x5
    2090:	93478793          	addi	a5,a5,-1740 # 0x69c0
    2094:	0007b403          	0x7b403
    2098:	fff8049b          	0xfff8049b
    209c:	0004839b          	0x4839b
    20a0:	00281893          	slli	a7,a6,0x2
    20a4:	00000993          	li	s3,0
    20a8:	00000913          	li	s2,0
    20ac:	00000293          	li	t0,0
    20b0:	0012829b          	0x12829b
    20b4:	00098713          	mv	a4,s3
    20b8:	00000793          	li	a5,0
    20bc:	0009059b          	0x9059b
    20c0:	40b786b3          	sub	a3,a5,a1
    20c4:	40578f33          	sub	t5,a5,t0
    20c8:	00e40eb3          	add	t4,s0,a4
    20cc:	00e30e33          	add	t3,t1,a4
    20d0:	00ef8533          	add	a0,t6,a4
    20d4:	0016b693          	seqz	a3,a3
    20d8:	0017879b          	0x17879b
    20dc:	00100613          	li	a2,1
    20e0:	00b38463          	beq	t2,a1,0x20e8
    20e4:	001f3613          	seqz	a2,t5
    20e8:	00cea023          	sw	a2,0(t4)
    20ec:	00ce2023          	sw	a2,0(t3)
    20f0:	00d52023          	sw	a3,0(a0)
    20f4:	00470713          	addi	a4,a4,4
    20f8:	fd0794e3          	bne	a5,a6,0x20c0
    20fc:	0019091b          	0x19091b
    2100:	011989b3          	add	s3,s3,a7
    2104:	fa5816e3          	bne	a6,t0,0x20b0
    2108:	00005797          	auipc	a5,0x5
    210c:	8a078793          	addi	a5,a5,-1888 # 0x69a8
    2110:	0007b283          	0x7b283
    2114:	02049493          	slli	s1,s1,0x20
    2118:	01e4d793          	srli	a5,s1,0x1e
    211c:	41f283b3          	sub	t2,t0,t6
    2120:	004f8413          	addi	s0,t6,4
    2124:	40f383b3          	sub	t2,t2,a5
    2128:	00430e13          	addi	t3,t1,4
    212c:	00428493          	addi	s1,t0,4
    2130:	80000eb7          	lui	t4,0x80000
    2134:	00f40433          	add	s0,s0,a5
    2138:	00fe0e33          	add	t3,t3,a5
    213c:	00f484b3          	add	s1,s1,a5
    2140:	01f00f13          	li	t5,31
    2144:	fd3ece93          	xori	t4,t4,-45
    2148:	ffc38393          	addi	t2,t2,-4
    214c:	001ef793          	andi	a5,t4,1
    2150:	0e079663          	bnez	a5,0x223c
    2154:	0b005a63          	blez	a6,0x2208
    2158:	00028b13          	mv	s6,t0
    215c:	00030a13          	mv	s4,t1
    2160:	00000a93          	li	s5,0
    2164:	00030993          	mv	s3,t1
    2168:	000b0513          	mv	a0,s6
    216c:	00000913          	li	s2,0
    2170:	00052023          	sw	zero,0(a0)
    2174:	00098593          	mv	a1,s3
    2178:	000a0613          	mv	a2,s4
    217c:	00000793          	li	a5,0
    2180:	00000693          	li	a3,0
    2184:	00062703          	lw	a4,0(a2)
    2188:	0005ab83          	lw	s7,0(a1)
    218c:	0016869b          	0x16869b
    2190:	00460613          	addi	a2,a2,4
    2194:	0377073b          	0x377073b
    2198:	011585b3          	add	a1,a1,a7
    219c:	00f707bb          	0xf707bb
    21a0:	00f52023          	sw	a5,0(a0)
    21a4:	ff06c0e3          	blt	a3,a6,0x2184
    21a8:	0019091b          	0x19091b
    21ac:	00450513          	addi	a0,a0,4
    21b0:	00498993          	addi	s3,s3,4
    21b4:	fb094ee3          	blt	s2,a6,0x2170
    21b8:	001a8a9b          	0x1a8a9b
    21bc:	011a0a33          	add	s4,s4,a7
    21c0:	011b0b33          	add	s6,s6,a7
    21c4:	fb0ac0e3          	blt	s5,a6,0x2164
    21c8:	00030913          	mv	s2,t1
    21cc:	00028513          	mv	a0,t0
    21d0:	00000593          	li	a1,0
    21d4:	00090693          	mv	a3,s2
    21d8:	00050713          	mv	a4,a0
    21dc:	00000793          	li	a5,0
    21e0:	00072603          	lw	a2,0(a4)
    21e4:	0017879b          	0x17879b
    21e8:	00470713          	addi	a4,a4,4
    21ec:	00c6a023          	sw	a2,0(a3)
    21f0:	00468693          	addi	a3,a3,4
    21f4:	ff07c6e3          	blt	a5,a6,0x21e0
    21f8:	0015859b          	0x15859b
    21fc:	01150533          	add	a0,a0,a7
    2200:	01190933          	add	s2,s2,a7
    2204:	fd05c8e3          	blt	a1,a6,0x21d4
    2208:	ffff0f1b          	0xffff0f1b
    220c:	401ede93          	srai	t4,t4,0x1
    2210:	f20f1ee3          	bnez	t5,0x214c
    2214:	03813403          	0x3813403
    2218:	03013483          	0x3013483
    221c:	02813903          	0x2813903
    2220:	02013983          	0x2013983
    2224:	01813a03          	0x1813a03
    2228:	01013a83          	0x1013a83
    222c:	00813b03          	0x813b03
    2230:	00013b83          	0x13b83
    2234:	04010113          	addi	sp,sp,64
    2238:	00008067          	ret
    223c:	fd0056e3          	blez	a6,0x2208
    2240:	00040913          	mv	s2,s0
    2244:	000f8a13          	mv	s4,t6
    2248:	00000a93          	li	s5,0
    224c:	01238533          	add	a0,t2,s2
    2250:	00030993          	mv	s3,t1
    2254:	00052023          	sw	zero,0(a0)
    2258:	00098613          	mv	a2,s3
    225c:	000a0713          	mv	a4,s4
    2260:	00000793          	li	a5,0
    2264:	00072683          	lw	a3,0(a4)
    2268:	00062583          	lw	a1,0(a2)
    226c:	00470713          	addi	a4,a4,4
    2270:	01160633          	add	a2,a2,a7
    2274:	02b686bb          	0x2b686bb
    2278:	00f687bb          	0xf687bb
    227c:	00f52023          	sw	a5,0(a0)
    2280:	fee912e3          	bne	s2,a4,0x2264
    2284:	00498993          	addi	s3,s3,4
    2288:	00450513          	addi	a0,a0,4
    228c:	fd3e14e3          	bne	t3,s3,0x2254
    2290:	001a8a9b          	0x1a8a9b
    2294:	011a0a33          	add	s4,s4,a7
    2298:	01190933          	add	s2,s2,a7
    229c:	fb0a98e3          	bne	s5,a6,0x224c
    22a0:	00048613          	mv	a2,s1
    22a4:	000f8913          	mv	s2,t6
    22a8:	00028513          	mv	a0,t0
    22ac:	00000593          	li	a1,0
    22b0:	00090713          	mv	a4,s2
    22b4:	00050793          	mv	a5,a0
    22b8:	0007a683          	lw	a3,0(a5)
    22bc:	00470713          	addi	a4,a4,4
    22c0:	00478793          	addi	a5,a5,4
    22c4:	fed72e23          	sw	a3,-4(a4)
    22c8:	fec798e3          	bne	a5,a2,0x22b8
    22cc:	0015859b          	0x15859b
    22d0:	01150533          	add	a0,a0,a7
    22d4:	01190933          	add	s2,s2,a7
    22d8:	01160633          	add	a2,a2,a7
    22dc:	fd059ae3          	bne	a1,a6,0x22b0
    22e0:	e79ff06f          	j	0x2158
    22e4:	00281893          	slli	a7,a6,0x2
    22e8:	fff8049b          	0xfff8049b
    22ec:	e1dff06f          	j	0x2108
    22f0:	00004797          	auipc	a5,0x4
    22f4:	6d878793          	addi	a5,a5,1752 # 0x69c8
    22f8:	0007a783          	lw	a5,0(a5)
    22fc:	00004717          	auipc	a4,0x4
    2300:	6bc70713          	addi	a4,a4,1724 # 0x69b8
    2304:	00073703          	0x73703
    2308:	fff7869b          	0xfff7869b
    230c:	02d787bb          	0x2d787bb
    2310:	00004617          	auipc	a2,0x4
    2314:	71060613          	addi	a2,a2,1808 # 0x6a20
    2318:	00063603          	0x63603
    231c:	01862603          	lw	a2,24(a2)
    2320:	00d787bb          	0xd787bb
    2324:	00279793          	slli	a5,a5,0x2
    2328:	00f707b3          	add	a5,a4,a5
    232c:	0007a503          	lw	a0,0(a5)
    2330:	40c50533          	sub	a0,a0,a2
    2334:	00153513          	seqz	a0,a0
    2338:	00008067          	ret
    233c:	00004797          	auipc	a5,0x4
    2340:	6e478793          	addi	a5,a5,1764 # 0x6a20
    2344:	0007b783          	0x7b783
    2348:	fd010113          	addi	sp,sp,-48
    234c:	00100513          	li	a0,1
    2350:	0007a783          	lw	a5,0(a5)
    2354:	02113423          	0x2113423
    2358:	00913c23          	0x913c23
    235c:	00004717          	auipc	a4,0x4
    2360:	68f72a23          	sw	a5,1684(a4) # 0x69f0
    2364:	02813023          	0x2813023
    2368:	01213823          	0x1213823
    236c:	01313423          	0x1313423
    2370:	e1cff0ef          	jal	ra,0x198c
    2374:	00011537          	lui	a0,0x11
    2378:	80850513          	addi	a0,a0,-2040 # 0x10808
    237c:	d68ff0ef          	jal	ra,0x18e4
    2380:	00004497          	auipc	s1,0x4
    2384:	67048493          	addi	s1,s1,1648 # 0x69f0
    2388:	00004797          	auipc	a5,0x4
    238c:	66a7b023          	0x66a7b023
    2390:	0004a503          	lw	a0,0(s1)
    2394:	d50ff0ef          	jal	ra,0x18e4
    2398:	0004a783          	lw	a5,0(s1)
    239c:	00004717          	auipc	a4,0x4
    23a0:	64a73223          	0x64a73223
    23a4:	1907851b          	0x1907851b
    23a8:	d3cff0ef          	jal	ra,0x18e4
    23ac:	0004a783          	lw	a5,0(s1)
    23b0:	00004717          	auipc	a4,0x4
    23b4:	62a73423          	0x62a73423
    23b8:	02f05e63          	blez	a5,0x23f4
    23bc:	00000413          	li	s0,0
    23c0:	00004997          	auipc	s3,0x4
    23c4:	62098993          	addi	s3,s3,1568 # 0x69e0
    23c8:	01a00913          	li	s2,26
    23cc:	dd8ff0ef          	jal	ra,0x19a4
    23d0:	0325753b          	0x325753b
    23d4:	0009b783          	0x9b783
    23d8:	0004a683          	lw	a3,0(s1)
    23dc:	008787b3          	add	a5,a5,s0
    23e0:	00140413          	addi	s0,s0,1
    23e4:	0004071b          	0x4071b
    23e8:	0615051b          	0x615051b
    23ec:	00a78023          	sb	a0,0(a5) # 0x6388
    23f0:	fcd74ee3          	blt	a4,a3,0x23cc
    23f4:	02813083          	0x2813083
    23f8:	02013403          	0x2013403
    23fc:	01813483          	0x1813483
    2400:	01013903          	0x1013903
    2404:	00813983          	0x813983
    2408:	03010113          	addi	sp,sp,48
    240c:	00008067          	ret
    2410:	00004797          	auipc	a5,0x4
    2414:	5d878793          	addi	a5,a5,1496 # 0x69e8
    2418:	0007b683          	0x7b683
    241c:	00004797          	auipc	a5,0x4
    2420:	5d478793          	addi	a5,a5,1492 # 0x69f0
    2424:	0007a603          	lw	a2,0(a5)
    2428:	00004797          	auipc	a5,0x4
    242c:	5b078793          	addi	a5,a5,1456 # 0x69d8
    2430:	0007b583          	0x7b583
    2434:	00004797          	auipc	a5,0x4
    2438:	5ac78793          	addi	a5,a5,1452 # 0x69e0
    243c:	0007b503          	0x7b503
    2440:	ff010113          	addi	sp,sp,-16
    2444:	00113423          	0x113423
    2448:	1bc000ef          	jal	ra,0x2604
    244c:	00813083          	0x813083
    2450:	00004797          	auipc	a5,0x4
    2454:	58a7a023          	sw	a0,1408(a5) # 0x69d0
    2458:	01010113          	addi	sp,sp,16
    245c:	00008067          	ret
    2460:	00004717          	auipc	a4,0x4
    2464:	57070713          	addi	a4,a4,1392 # 0x69d0
    2468:	00004797          	auipc	a5,0x4
    246c:	57078793          	addi	a5,a5,1392 # 0x69d8
    2470:	0007b783          	0x7b783
    2474:	00072583          	lw	a1,0(a4)
    2478:	ff010113          	addi	sp,sp,-16
    247c:	00078513          	mv	a0,a5
    2480:	00b785b3          	add	a1,a5,a1
    2484:	00113423          	0x113423
    2488:	d50ff0ef          	jal	ra,0x19d8
    248c:	00004797          	auipc	a5,0x4
    2490:	59478793          	addi	a5,a5,1428 # 0x6a20
    2494:	0007b783          	0x7b783
    2498:	00813083          	0x813083
    249c:	0005051b          	0x5051b
    24a0:	0187a783          	lw	a5,24(a5)
    24a4:	01010113          	addi	sp,sp,16
    24a8:	40a78533          	sub	a0,a5,a0
    24ac:	00153513          	seqz	a0,a0
    24b0:	00008067          	ret
    24b4:	ff010113          	addi	sp,sp,-16
    24b8:	00800613          	li	a2,8
    24bc:	00004597          	auipc	a1,0x4
    24c0:	92458593          	addi	a1,a1,-1756 # 0x5de0
    24c4:	00003517          	auipc	a0,0x3
    24c8:	5ac50513          	addi	a0,a0,1452 # 0x5a70
    24cc:	00113423          	0x113423
    24d0:	09c030ef          	jal	ra,0x556c
    24d4:	00100513          	li	a0,1
    24d8:	150020ef          	jal	ra,0x4628
    24dc:	ff010113          	addi	sp,sp,-16
    24e0:	09500613          	li	a2,149
    24e4:	00004597          	auipc	a1,0x4
    24e8:	93c58593          	addi	a1,a1,-1732 # 0x5e20
    24ec:	00003517          	auipc	a0,0x3
    24f0:	58450513          	addi	a0,a0,1412 # 0x5a70
    24f4:	00113423          	0x113423
    24f8:	074030ef          	jal	ra,0x556c
    24fc:	00100513          	li	a0,1
    2500:	128020ef          	jal	ra,0x4628
    2504:	00900793          	li	a5,9
    2508:	02a7e063          	bltu	a5,a0,0x2528
    250c:	02051513          	slli	a0,a0,0x20
    2510:	00004797          	auipc	a5,0x4
    2514:	8a878793          	addi	a5,a5,-1880 # 0x5db8
    2518:	01e55513          	srli	a0,a0,0x1e
    251c:	00a78533          	add	a0,a5,a0
    2520:	00052503          	lw	a0,0(a0)
    2524:	00008067          	ret
    2528:	fff00513          	li	a0,-1
    252c:	00008067          	ret
    2530:	00054783          	lbu	a5,0(a0)
    2534:	0027f793          	andi	a5,a5,2
    2538:	04079663          	bnez	a5,0x2584
    253c:	0ff00593          	li	a1,255
    2540:	00200793          	li	a5,2
    2544:	00100713          	li	a4,1
    2548:	00f50533          	add	a0,a0,a5
    254c:	00371693          	slli	a3,a4,0x3
    2550:	00000793          	li	a5,0
    2554:	00000713          	li	a4,0
    2558:	00054603          	lbu	a2,0(a0)
    255c:	00150513          	addi	a0,a0,1
    2560:	00e6163b          	0xe6163b
    2564:	00c7e7b3          	or	a5,a5,a2
    2568:	0087071b          	0x87071b
    256c:	0007879b          	0x7879b
    2570:	fee694e3          	bne	a3,a4,0x2558
    2574:	00b7f533          	and	a0,a5,a1
    2578:	02051513          	slli	a0,a0,0x20
    257c:	02055513          	srli	a0,a0,0x20
    2580:	00008067          	ret
    2584:	fff00593          	li	a1,-1
    2588:	00500793          	li	a5,5
    258c:	00400713          	li	a4,4
    2590:	fb9ff06f          	j	0x2548
    2594:	00054783          	lbu	a5,0(a0)
    2598:	0027f793          	andi	a5,a5,2
    259c:	02078e63          	beqz	a5,0x25d8
    25a0:	00254783          	lbu	a5,2(a0)
    25a4:	00154603          	lbu	a2,1(a0)
    25a8:	00354683          	lbu	a3,3(a0)
    25ac:	00454703          	lbu	a4,4(a0)
    25b0:	0087951b          	0x87951b
    25b4:	00c56533          	or	a0,a0,a2
    25b8:	0106969b          	0x106969b
    25bc:	00d56533          	or	a0,a0,a3
    25c0:	0187179b          	0x187179b
    25c4:	00f56533          	or	a0,a0,a5
    25c8:	0005051b          	0x5051b
    25cc:	02051513          	slli	a0,a0,0x20
    25d0:	02055513          	srli	a0,a0,0x20
    25d4:	00008067          	ret
    25d8:	00154503          	lbu	a0,1(a0)
    25dc:	02051513          	slli	a0,a0,0x20
    25e0:	02055513          	srli	a0,a0,0x20
    25e4:	00008067          	ret
    25e8:	00054783          	lbu	a5,0(a0)
    25ec:	0027f793          	andi	a5,a5,2
    25f0:	00079663          	bnez	a5,0x25fc
    25f4:	00300513          	li	a0,3
    25f8:	00008067          	ret
    25fc:	00900513          	li	a0,9
    2600:	00008067          	ret
    2604:	00100793          	li	a5,1
    2608:	f6010113          	addi	sp,sp,-160
    260c:	02079793          	slli	a5,a5,0x20
    2610:	00060713          	mv	a4,a2
    2614:	00c13823          	0xc13823
    2618:	08113c23          	0x8113c23
    261c:	08813823          	0x8813823
    2620:	08913423          	0x8913423
    2624:	09213023          	0x9213023
    2628:	07313c23          	0x7313c23
    262c:	07413823          	0x7413823
    2630:	07513423          	0x7513423
    2634:	07613023          	0x7613023
    2638:	05713c23          	0x5713c23
    263c:	05813823          	0x5813823
    2640:	05913423          	0x5913423
    2644:	05a13023          	0x5a13023
    2648:	03b13c23          	0x3b13c23
    264c:	fff60613          	addi	a2,a2,-1
    2650:	e6e78793          	addi	a5,a5,-402
    2654:	02b13023          	0x2b13023
    2658:	56c7ec63          	bltu	a5,a2,0x2bd0
    265c:	00300593          	li	a1,3
    2660:	0d700793          	li	a5,215
    2664:	00b13c23          	0xb13c23
    2668:	44e7ea63          	bltu	a5,a4,0x2abc
    266c:	000107b7          	lui	a5,0x10
    2670:	00011737          	lui	a4,0x11
    2674:	00878793          	addi	a5,a5,8 # 0x10008
    2678:	80870713          	addi	a4,a4,-2040 # 0x10808
    267c:	00f687b3          	add	a5,a3,a5
    2680:	00e68733          	add	a4,a3,a4
    2684:	00078023          	sb	zero,0(a5)
    2688:	00178793          	addi	a5,a5,1
    268c:	fef71ce3          	bne	a4,a5,0x2684
    2690:	00c50733          	add	a4,a0,a2
    2694:	02013783          	0x2013783
    2698:	01813603          	0x1813603
    269c:	02e13423          	0x2e13423
    26a0:	ff670c93          	addi	s9,a4,-10
    26a4:	00c78933          	add	s2,a5,a2
    26a8:	01213023          	0x1213023
    26ac:	00490e93          	addi	t4,s2,4
    26b0:	5cace463          	bltu	s9,a0,0x2c78
    26b4:	01013783          	0x1013783
    26b8:	ffc70d93          	addi	s11,a4,-4
    26bc:	0fe00d13          	li	s10,254
    26c0:	0017d793          	srli	a5,a5,0x1
    26c4:	00f507b3          	add	a5,a0,a5
    26c8:	00f13423          	0xf13423
    26cc:	80000737          	lui	a4,0x80000
    26d0:	00050793          	mv	a5,a0
    26d4:	00010c37          	lui	s8,0x10
    26d8:	00400a13          	li	s4,4
    26dc:	40fd82b3          	sub	t0,s11,a5
    26e0:	005d5463          	bge	s10,t0,0x26e8
    26e4:	0fe00293          	li	t0,254
    26e8:	0017c603          	lbu	a2,1(a5)
    26ec:	0027c803          	lbu	a6,2(a5)
    26f0:	0007c583          	lbu	a1,0(a5)
    26f4:	0086161b          	0x86161b
    26f8:	0108181b          	0x108181b
    26fc:	01066633          	or	a2,a2,a6
    2700:	00b66633          	or	a2,a2,a1
    2704:	00d6559b          	0xd6559b
    2708:	0096589b          	0x96589b
    270c:	00b8c8b3          	xor	a7,a7,a1
    2710:	00c8c8b3          	xor	a7,a7,a2
    2714:	7ff8f893          	andi	a7,a7,2047
    2718:	02089e13          	slli	t3,a7,0x20
    271c:	020e5e13          	srli	t3,t3,0x20
    2720:	005e1313          	slli	t1,t3,0x5
    2724:	00668333          	add	t1,a3,t1
    2728:	00833583          	0x833583
    272c:	01c68833          	add	a6,a3,t3
    2730:	010c0833          	add	a6,s8,a6
    2734:	ffe78a93          	addi	s5,a5,-2
    2738:	00128293          	addi	t0,t0,1
    273c:	00884383          	lbu	t2,8(a6)
    2740:	0955fe63          	bgeu	a1,s5,0x27dc
    2744:	2c039e63          	bnez	t2,0x2a20
    2748:	00f33423          	0xf33423
    274c:	00100613          	li	a2,1
    2750:	00c80423          	sb	a2,8(a6)
    2754:	0017571b          	0x17571b
    2758:	0007c603          	lbu	a2,0(a5)
    275c:	001e8e93          	addi	t4,t4,1 # 0xffffffff80000001
    2760:	00178793          	addi	a5,a5,1
    2764:	fece8fa3          	sb	a2,-1(t4)
    2768:	00177613          	andi	a2,a4,1
    276c:	0006059b          	0x6059b
    2770:	14fce263          	bltu	s9,a5,0x28b4
    2774:	f60584e3          	beqz	a1,0x26dc
    2778:	00813603          	0x813603
    277c:	00f67e63          	bgeu	a2,a5,0x2798
    2780:	00013583          	0x13583
    2784:	40a78633          	sub	a2,a5,a0
    2788:	40565813          	srai	a6,a2,0x5
    278c:	40be85b3          	sub	a1,t4,a1
    2790:	41060633          	sub	a2,a2,a6
    2794:	44b64a63          	blt	a2,a1,0x2be8
    2798:	80000637          	lui	a2,0x80000
    279c:	0017571b          	0x17571b
    27a0:	00c76733          	or	a4,a4,a2
    27a4:	0007071b          	0x7071b
    27a8:	00875813          	srli	a6,a4,0x8
    27ac:	01075593          	srli	a1,a4,0x10
    27b0:	01875613          	srli	a2,a4,0x18
    27b4:	00e90023          	sb	a4,0(s2)
    27b8:	010900a3          	sb	a6,1(s2)
    27bc:	00b90123          	sb	a1,2(s2)
    27c0:	00c901a3          	sb	a2,3(s2)
    27c4:	40fd82b3          	sub	t0,s11,a5
    27c8:	000e8913          	mv	s2,t4
    27cc:	80000737          	lui	a4,0x80000
    27d0:	004e8e93          	addi	t4,t4,4
    27d4:	f05d5ae3          	bge	s10,t0,0x26e8
    27d8:	f0dff06f          	j	0x26e4
    27dc:	00000f13          	li	t5,0
    27e0:	005e1593          	slli	a1,t3,0x5
    27e4:	0003899b          	0x3899b
    27e8:	00b685b3          	add	a1,a3,a1
    27ec:	00000f93          	li	t6,0
    27f0:	00100813          	li	a6,1
    27f4:	03387863          	bgeu	a6,s3,0x2824
    27f8:	0105b303          	0x105b303
    27fc:	020f1413          	slli	s0,t5,0x20
    2800:	02045413          	srli	s0,s0,0x20
    2804:	008784b3          	add	s1,a5,s0
    2808:	00830433          	add	s0,t1,s0
    280c:	0004c483          	lbu	s1,0(s1)
    2810:	00044403          	lbu	s0,0(s0)
    2814:	18848e63          	beq	s1,s0,0x29b0
    2818:	0018081b          	0x18081b
    281c:	00858593          	addi	a1,a1,8
    2820:	fd481ae3          	bne	a6,s4,0x27f4
    2824:	0033f593          	andi	a1,t2,3
    2828:	002e1613          	slli	a2,t3,0x2
    282c:	00b60633          	add	a2,a2,a1
    2830:	00361613          	slli	a2,a2,0x3
    2834:	00c68633          	add	a2,a3,a2
    2838:	01c68e33          	add	t3,a3,t3
    283c:	00f63423          	0xf63423
    2840:	01cc0e33          	add	t3,s8,t3
    2844:	0013839b          	0x13839b
    2848:	0017561b          	0x17561b
    284c:	007e0423          	sb	t2,8(t3)
    2850:	00200593          	li	a1,2
    2854:	0006071b          	0x6071b
    2858:	f1e5f0e3          	bgeu	a1,t5,0x2758
    285c:	0058989b          	0x58989b
    2860:	80000737          	lui	a4,0x80000
    2864:	020f1593          	slli	a1,t5,0x20
    2868:	00e66733          	or	a4,a2,a4
    286c:	0205d593          	srli	a1,a1,0x20
    2870:	011fefb3          	or	t6,t6,a7
    2874:	00900613          	li	a2,9
    2878:	0007071b          	0x7071b
    287c:	00b787b3          	add	a5,a5,a1
    2880:	000f8f9b          	0xf8f9b
    2884:	21e66863          	bltu	a2,t5,0x2a94
    2888:	ffef0f1b          	0xffef0f1b
    288c:	002f1f1b          	0x2f1f1b
    2890:	01efefb3          	or	t6,t6,t5
    2894:	000f8f9b          	0xf8f9b
    2898:	008fd613          	srli	a2,t6,0x8
    289c:	00ce80a3          	sb	a2,1(t4)
    28a0:	01fe8023          	sb	t6,0(t4)
    28a4:	00177613          	andi	a2,a4,1
    28a8:	002e8e93          	addi	t4,t4,2
    28ac:	0006059b          	0x6059b
    28b0:	ecfcf2e3          	bgeu	s9,a5,0x2774
    28b4:	02813303          	0x2813303
    28b8:	0017581b          	0x17581b
    28bc:	0008089b          	0x8089b
    28c0:	20f36463          	bltu	t1,a5,0x2ac8
    28c4:	02813583          	0x2813583
    28c8:	80000f37          	lui	t5,0x80000
    28cc:	00010e37          	lui	t3,0x10
    28d0:	ffd58313          	addi	t1,a1,-3
    28d4:	01013583          	0x1013583
    28d8:	00b50533          	add	a0,a0,a1
    28dc:	0900006f          	j	0x296c
    28e0:	0027589b          	0x27589b
    28e4:	00187593          	andi	a1,a6,1
    28e8:	000f8713          	mv	a4,t6
    28ec:	0007c803          	lbu	a6,0(a5)
    28f0:	06f36063          	bltu	t1,a5,0x2950
    28f4:	0017c603          	lbu	a2,1(a5)
    28f8:	0027cf83          	lbu	t6,2(a5)
    28fc:	0086161b          	0x86161b
    2900:	010f9f9b          	0x10f9f9b
    2904:	01f66633          	or	a2,a2,t6
    2908:	01066833          	or	a6,a2,a6
    290c:	00d85f9b          	0xd85f9b
    2910:	0098561b          	0x98561b
    2914:	01f64633          	xor	a2,a2,t6
    2918:	01064633          	xor	a2,a2,a6
    291c:	7ff67613          	andi	a2,a2,2047
    2920:	00c68833          	add	a6,a3,a2
    2924:	010e0833          	add	a6,t3,a6
    2928:	00884f83          	lbu	t6,8(a6)
    292c:	00261613          	slli	a2,a2,0x2
    2930:	003ff293          	andi	t0,t6,3
    2934:	00560633          	add	a2,a2,t0
    2938:	00361613          	slli	a2,a2,0x3
    293c:	00c68633          	add	a2,a3,a2
    2940:	00f63423          	0xf63423
    2944:	001f8f9b          	0x1f8f9b
    2948:	01f80423          	sb	t6,8(a6)
    294c:	0007c803          	lbu	a6,0(a5)
    2950:	010e8023          	sb	a6,0(t4)
    2954:	00178793          	addi	a5,a5,1
    2958:	001e8e93          	addi	t4,t4,1
    295c:	0007071b          	0x7071b
    2960:	16a78463          	beq	a5,a0,0x2ac8
    2964:	0017581b          	0x17581b
    2968:	00177613          	andi	a2,a4,1
    296c:	00080f9b          	0x80f9b
    2970:	f60608e3          	beqz	a2,0x28e0
    2974:	01e86833          	or	a6,a6,t5
    2978:	0008081b          	0x8081b
    297c:	00885593          	srli	a1,a6,0x8
    2980:	01885713          	srli	a4,a6,0x18
    2984:	01085613          	srli	a2,a6,0x10
    2988:	00b900a3          	sb	a1,1(s2)
    298c:	00e901a3          	sb	a4,3(s2)
    2990:	01090023          	sb	a6,0(s2)
    2994:	00c90123          	sb	a2,2(s2)
    2998:	200008b7          	lui	a7,0x20000
    299c:	000e8913          	mv	s2,t4
    29a0:	00000593          	li	a1,0
    29a4:	004e8e93          	addi	t4,t4,4
    29a8:	40000737          	lui	a4,0x40000
    29ac:	f41ff06f          	j	0x28ec
    29b0:	00134403          	lbu	s0,1(t1)
    29b4:	00234483          	lbu	s1,2(t1)
    29b8:	00034b03          	lbu	s6,0(t1)
    29bc:	0084141b          	0x84141b
    29c0:	0104949b          	0x104949b
    29c4:	00946433          	or	s0,s0,s1
    29c8:	01646433          	or	s0,s0,s6
    29cc:	e4c416e3          	bne	s0,a2,0x2818
    29d0:	e55374e3          	bgeu	t1,s5,0x2818
    29d4:	0037c483          	lbu	s1,3(a5)
    29d8:	00334403          	lbu	s0,3(t1)
    29dc:	28849a63          	bne	s1,s0,0x2c70
    29e0:	00300413          	li	s0,3
    29e4:	00546663          	bltu	s0,t0,0x29f0
    29e8:	2880006f          	j	0x2c70
    29ec:	0254f263          	bgeu	s1,t0,0x2a10
    29f0:	0014041b          	0x14041b
    29f4:	02041493          	slli	s1,s0,0x20
    29f8:	0204d493          	srli	s1,s1,0x20
    29fc:	00930bb3          	add	s7,t1,s1
    2a00:	00978b33          	add	s6,a5,s1
    2a04:	000bcb83          	lbu	s7,0(s7)
    2a08:	000b4b03          	lbu	s6,0(s6) # 0x3f4000
    2a0c:	ff6b80e3          	beq	s7,s6,0x29ec
    2a10:	e08f74e3          	bgeu	t5,s0,0x2818
    2a14:	00080f93          	mv	t6,a6
    2a18:	00040f13          	mv	t5,s0
    2a1c:	dfdff06f          	j	0x2818
    2a20:	0015c803          	lbu	a6,1(a1)
    2a24:	0025c303          	lbu	t1,2(a1)
    2a28:	0005cf03          	lbu	t5,0(a1)
    2a2c:	0088181b          	0x88181b
    2a30:	0103131b          	0x103131b
    2a34:	00686833          	or	a6,a6,t1
    2a38:	01e86833          	or	a6,a6,t5
    2a3c:	00000f13          	li	t5,0
    2a40:	dac810e3          	bne	a6,a2,0x27e0
    2a44:	0035c303          	lbu	t1,3(a1)
    2a48:	0037c803          	lbu	a6,3(a5)
    2a4c:	00300f13          	li	t5,3
    2a50:	d90318e3          	bne	t1,a6,0x27e0
    2a54:	0047c303          	lbu	t1,4(a5)
    2a58:	0045c803          	lbu	a6,4(a1)
    2a5c:	00400f13          	li	t5,4
    2a60:	d90310e3          	bne	t1,a6,0x27e0
    2a64:	005a6663          	bltu	s4,t0,0x2a70
    2a68:	d79ff06f          	j	0x27e0
    2a6c:	d6587ae3          	bgeu	a6,t0,0x27e0
    2a70:	001f0f1b          	0x1f0f1b
    2a74:	020f1813          	slli	a6,t5,0x20
    2a78:	02085813          	srli	a6,a6,0x20
    2a7c:	01058333          	add	t1,a1,a6
    2a80:	01078fb3          	add	t6,a5,a6
    2a84:	00034303          	lbu	t1,0(t1)
    2a88:	000fcf83          	lbu	t6,0(t6)
    2a8c:	fff300e3          	beq	t1,t6,0x2a6c
    2a90:	d51ff06f          	j	0x27e0
    2a94:	010f1f1b          	0x10f1f1b
    2a98:	01efef33          	or	t5,t6,t5
    2a9c:	000f0f1b          	0xf0f1b
    2aa0:	008f5593          	srli	a1,t5,0x8
    2aa4:	010f5613          	srli	a2,t5,0x10
    2aa8:	01ee8023          	sb	t5,0(t4)
    2aac:	00be80a3          	sb	a1,1(t4)
    2ab0:	00ce8123          	sb	a2,2(t4)
    2ab4:	003e8e93          	addi	t4,t4,3
    2ab8:	cb1ff06f          	j	0x2768
    2abc:	00900793          	li	a5,9
    2ac0:	00f13c23          	0xf13c23
    2ac4:	ba9ff06f          	j	0x266c
    2ac8:	00058663          	beqz	a1,0x2ad4
    2acc:	0180006f          	j	0x2ae4
    2ad0:	00078713          	mv	a4,a5
    2ad4:	0017579b          	0x17579b
    2ad8:	0017f613          	andi	a2,a5,1
    2adc:	fe060ae3          	beqz	a2,0x2ad0
    2ae0:	0027589b          	0x27589b
    2ae4:	800007b7          	lui	a5,0x80000
    2ae8:	00f8e8b3          	or	a7,a7,a5
    2aec:	0188d793          	srli	a5,a7,0x18
    2af0:	00f901a3          	sb	a5,3(s2)
    2af4:	00013783          	0x13783
    2af8:	0088d613          	srli	a2,a7,0x8
    2afc:	0108d713          	srli	a4,a7,0x10
    2b00:	40fe8533          	sub	a0,t4,a5
    2b04:	01190023          	sb	a7,0(s2)
    2b08:	00c900a3          	sb	a2,1(s2)
    2b0c:	00e90123          	sb	a4,2(s2)
    2b10:	00900793          	li	a5,9
    2b14:	00f55463          	bge	a0,a5,0x2b1c
    2b18:	00900513          	li	a0,9
    2b1c:	01813783          	0x1813783
    2b20:	00f50533          	add	a0,a0,a5
    2b24:	00100793          	li	a5,1
    2b28:	0006b023          	0x6b023
    2b2c:	01813683          	0x1813683
    2b30:	00300713          	li	a4,3
    2b34:	01014603          	lbu	a2,16(sp)
    2b38:	0ff57593          	andi	a1,a0,255
    2b3c:	08e68e63          	beq	a3,a4,0x2bd8
    2b40:	01012683          	lw	a3,16(sp)
    2b44:	02013e83          	0x2013e83
    2b48:	0005071b          	0x5071b
    2b4c:	00875e13          	srli	t3,a4,0x8
    2b50:	01075313          	srli	t1,a4,0x10
    2b54:	0086d893          	srli	a7,a3,0x8
    2b58:	0106d813          	srli	a6,a3,0x10
    2b5c:	01875713          	srli	a4,a4,0x18
    2b60:	0186d693          	srli	a3,a3,0x18
    2b64:	0027e793          	ori	a5,a5,2
    2b68:	00be80a3          	sb	a1,1(t4)
    2b6c:	01ce8123          	sb	t3,2(t4)
    2b70:	006e81a3          	sb	t1,3(t4)
    2b74:	00ee8223          	sb	a4,4(t4)
    2b78:	00ce82a3          	sb	a2,5(t4)
    2b7c:	011e8323          	sb	a7,6(t4)
    2b80:	010e83a3          	sb	a6,7(t4)
    2b84:	00de8423          	sb	a3,8(t4)
    2b88:	02013703          	0x2013703
    2b8c:	0487e793          	ori	a5,a5,72
    2b90:	00f70023          	sb	a5,0(a4) # 0x40000000
    2b94:	09813083          	0x9813083
    2b98:	09013403          	0x9013403
    2b9c:	08813483          	0x8813483
    2ba0:	08013903          	0x8013903
    2ba4:	07813983          	0x7813983
    2ba8:	07013a03          	0x7013a03
    2bac:	06813a83          	0x6813a83
    2bb0:	06013b03          	0x6013b03
    2bb4:	05813b83          	0x5813b83
    2bb8:	05013c03          	0x5013c03
    2bbc:	04813c83          	0x4813c83
    2bc0:	04013d03          	0x4013d03
    2bc4:	03813d83          	0x3813d83
    2bc8:	0a010113          	addi	sp,sp,160
    2bcc:	00008067          	ret
    2bd0:	00000513          	li	a0,0
    2bd4:	fc1ff06f          	j	0x2b94
    2bd8:	02013703          	0x2013703
    2bdc:	00b700a3          	sb	a1,1(a4)
    2be0:	00c70123          	sb	a2,2(a4)
    2be4:	fa5ff06f          	j	0x2b88
    2be8:	00013783          	0x13783
    2bec:	0a078863          	beqz	a5,0x2c9c
    2bf0:	0a050663          	beqz	a0,0x2c9c
    2bf4:	01013603          	0x1013603
    2bf8:	00013703          	0x13703
    2bfc:	00c507b3          	add	a5,a0,a2
    2c00:	02f77a63          	bgeu	a4,a5,0x2c34
    2c04:	02e57863          	bgeu	a0,a4,0x2c34
    2c08:	00c70733          	add	a4,a4,a2
    2c0c:	fff78793          	addi	a5,a5,-1 # 0xffffffff7fffffff
    2c10:	0007c603          	lbu	a2,0(a5)
    2c14:	fff70713          	addi	a4,a4,-1
    2c18:	00c70023          	sb	a2,0(a4)
    2c1c:	fef518e3          	bne	a0,a5,0x2c0c
    2c20:	01813783          	0x1813783
    2c24:	01013703          	0x1013703
    2c28:	00e78533          	add	a0,a5,a4
    2c2c:	00000793          	li	a5,0
    2c30:	ef9ff06f          	j	0x2b28
    2c34:	00013603          	0x13603
    2c38:	00150513          	addi	a0,a0,1
    2c3c:	fff54703          	lbu	a4,-1(a0)
    2c40:	00160613          	addi	a2,a2,1 # 0xffffffff80000001
    2c44:	00c13023          	0xc13023
    2c48:	fee60fa3          	sb	a4,-1(a2)
    2c4c:	fca78ae3          	beq	a5,a0,0x2c20
    2c50:	00013603          	0x13603
    2c54:	00150513          	addi	a0,a0,1
    2c58:	fff54703          	lbu	a4,-1(a0)
    2c5c:	00160613          	addi	a2,a2,1
    2c60:	00c13023          	0xc13023
    2c64:	fee60fa3          	sb	a4,-1(a2)
    2c68:	fca796e3          	bne	a5,a0,0x2c34
    2c6c:	fb5ff06f          	j	0x2c20
    2c70:	00300413          	li	s0,3
    2c74:	d9dff06f          	j	0x2a10
    2c78:	02813783          	0x2813783
    2c7c:	00013903          	0x13903
    2c80:	80000737          	lui	a4,0x80000
    2c84:	e4a7e8e3          	bltu	a5,a0,0x2ad4
    2c88:	00050793          	mv	a5,a0
    2c8c:	80000737          	lui	a4,0x80000
    2c90:	40000837          	lui	a6,0x40000
    2c94:	00000613          	li	a2,0
    2c98:	c2dff06f          	j	0x28c4
    2c9c:	819ff0ef          	jal	ra,0x24b4
    2ca0:	fe010113          	addi	sp,sp,-32
    2ca4:	00813823          	0x813823
    2ca8:	00913423          	0x913423
    2cac:	01213023          	0x1213023
    2cb0:	00113c23          	0x113c23
    2cb4:	00050913          	mv	s2,a0
    2cb8:	00058413          	mv	s0,a1
    2cbc:	00060493          	mv	s1,a2
    2cc0:	871ff0ef          	jal	ra,0x2530
    2cc4:	00094783          	lbu	a5,0(s2)
    2cc8:	0017f713          	andi	a4,a5,1
    2ccc:	16070063          	beqz	a4,0x2e2c
    2cd0:	00011737          	lui	a4,0x11
    2cd4:	000107b7          	lui	a5,0x10
    2cd8:	80070713          	addi	a4,a4,-2048 # 0x10800
    2cdc:	00f487b3          	add	a5,s1,a5
    2ce0:	00e48733          	add	a4,s1,a4
    2ce4:	00078023          	sb	zero,0(a5) # 0x10000
    2ce8:	00178793          	addi	a5,a5,1
    2cec:	fef71ce3          	bne	a4,a5,0x2ce4
    2cf0:	00094783          	lbu	a5,0(s2)
    2cf4:	00900713          	li	a4,9
    2cf8:	0027f793          	andi	a5,a5,2
    2cfc:	16078a63          	beqz	a5,0x2e70
    2d00:	fff50593          	addi	a1,a0,-1
    2d04:	00e907b3          	add	a5,s2,a4
    2d08:	00b405b3          	add	a1,s0,a1
    2d0c:	ff658e13          	addi	t3,a1,-10
    2d10:	fff40693          	addi	a3,s0,-1
    2d14:	00078893          	mv	a7,a5
    2d18:	00000613          	li	a2,0
    2d1c:	00000713          	li	a4,0
    2d20:	02000313          	li	t1,32
    2d24:	0008c803          	lbu	a6,0(a7) # 0x20000000
    2d28:	00188893          	addi	a7,a7,1
    2d2c:	00c8183b          	0xc8183b
    2d30:	01076733          	or	a4,a4,a6
    2d34:	0086061b          	0x86061b
    2d38:	0007071b          	0x7071b
    2d3c:	fe6614e3          	bne	a2,t1,0x2d24
    2d40:	00177613          	andi	a2,a4,1
    2d44:	00478793          	addi	a5,a5,4
    2d48:	16061863          	bnez	a2,0x2eb8
    2d4c:	17c46663          	bltu	s0,t3,0x2eb8
    2d50:	00a408b3          	add	a7,s0,a0
    2d54:	00100813          	li	a6,1
    2d58:	0285e263          	bltu	a1,s0,0x2d7c
    2d5c:	15070663          	beq	a4,a6,0x2ea8
    2d60:	0017571b          	0x17571b
    2d64:	0007c603          	lbu	a2,0(a5)
    2d68:	00140413          	addi	s0,s0,1
    2d6c:	00178793          	addi	a5,a5,1
    2d70:	fec40fa3          	sb	a2,-1(s0)
    2d74:	0007071b          	0x7071b
    2d78:	ff1412e3          	bne	s0,a7,0x2d5c
    2d7c:	ffd58593          	addi	a1,a1,-3
    2d80:	000108b7          	lui	a7,0x10
    2d84:	06b6f463          	bgeu	a3,a1,0x2dec
    2d88:	00168693          	addi	a3,a3,1
    2d8c:	0016c783          	lbu	a5,1(a3)
    2d90:	0026c703          	lbu	a4,2(a3)
    2d94:	0006c603          	lbu	a2,0(a3)
    2d98:	0087979b          	0x87979b
    2d9c:	0107171b          	0x107171b
    2da0:	00e7e7b3          	or	a5,a5,a4
    2da4:	00c7e733          	or	a4,a5,a2
    2da8:	00d7561b          	0xd7561b
    2dac:	0097579b          	0x97579b
    2db0:	00c7c7b3          	xor	a5,a5,a2
    2db4:	00e7c7b3          	xor	a5,a5,a4
    2db8:	7ff7f793          	andi	a5,a5,2047
    2dbc:	00f48733          	add	a4,s1,a5
    2dc0:	00e88733          	add	a4,a7,a4
    2dc4:	00074603          	lbu	a2,0(a4)
    2dc8:	00279793          	slli	a5,a5,0x2
    2dcc:	00367813          	andi	a6,a2,3
    2dd0:	010787b3          	add	a5,a5,a6
    2dd4:	00379793          	slli	a5,a5,0x3
    2dd8:	00f487b3          	add	a5,s1,a5
    2ddc:	00d7b023          	0xd7b023
    2de0:	0016061b          	0x16061b
    2de4:	00c70023          	sb	a2,0(a4)
    2de8:	fad590e3          	bne	a1,a3,0x2d88
    2dec:	000117b7          	lui	a5,0x11
    2df0:	00f486b3          	add	a3,s1,a5
    2df4:	80078713          	addi	a4,a5,-2048 # 0x10800
    2df8:	000107b7          	lui	a5,0x10
    2dfc:	8006b023          	0x8006b023
    2e00:	00f487b3          	add	a5,s1,a5
    2e04:	00e48733          	add	a4,s1,a4
    2e08:	00078023          	sb	zero,0(a5) # 0x10000
    2e0c:	00178793          	addi	a5,a5,1
    2e10:	fef71ce3          	bne	a4,a5,0x2e08
    2e14:	01813083          	0x1813083
    2e18:	01013403          	0x1013403
    2e1c:	00813483          	0x813483
    2e20:	00013903          	0x13903
    2e24:	02010113          	addi	sp,sp,32
    2e28:	00008067          	ret
    2e2c:	0027f793          	andi	a5,a5,2
    2e30:	00900713          	li	a4,9
    2e34:	04078263          	beqz	a5,0x2e78
    2e38:	00e907b3          	add	a5,s2,a4
    2e3c:	06040c63          	beqz	s0,0x2eb4
    2e40:	06078a63          	beqz	a5,0x2eb4
    2e44:	00a78733          	add	a4,a5,a0
    2e48:	04e47063          	bgeu	s0,a4,0x2e88
    2e4c:	0287fe63          	bgeu	a5,s0,0x2e88
    2e50:	00a40433          	add	s0,s0,a0
    2e54:	f8050ce3          	beqz	a0,0x2dec
    2e58:	fff70713          	addi	a4,a4,-1
    2e5c:	00074683          	lbu	a3,0(a4)
    2e60:	fff40413          	addi	s0,s0,-1
    2e64:	00d40023          	sb	a3,0(s0)
    2e68:	fee798e3          	bne	a5,a4,0x2e58
    2e6c:	f81ff06f          	j	0x2dec
    2e70:	00300713          	li	a4,3
    2e74:	e8dff06f          	j	0x2d00
    2e78:	00300713          	li	a4,3
    2e7c:	00e907b3          	add	a5,s2,a4
    2e80:	fc0410e3          	bnez	s0,0x2e40
    2e84:	0300006f          	j	0x2eb4
    2e88:	00a406b3          	add	a3,s0,a0
    2e8c:	f60500e3          	beqz	a0,0x2dec
    2e90:	00178793          	addi	a5,a5,1
    2e94:	fff7c703          	lbu	a4,-1(a5)
    2e98:	00140413          	addi	s0,s0,1
    2e9c:	fee40fa3          	sb	a4,-1(s0)
    2ea0:	fed418e3          	bne	s0,a3,0x2e90
    2ea4:	f49ff06f          	j	0x2dec
    2ea8:	00478793          	addi	a5,a5,4
    2eac:	40000737          	lui	a4,0x40000
    2eb0:	eb5ff06f          	j	0x2d64
    2eb4:	e00ff0ef          	jal	ra,0x24b4
    2eb8:	e24ff0ef          	jal	ra,0x24dc
    2ebc:	00008067          	ret
    2ec0:	00004797          	auipc	a5,0x4
    2ec4:	b6078793          	addi	a5,a5,-1184 # 0x6a20
    2ec8:	0007b703          	0x7b703
    2ecc:	00004797          	auipc	a5,0x4
    2ed0:	b2878793          	addi	a5,a5,-1240 # 0x69f4
    2ed4:	0007a783          	lw	a5,0(a5)
    2ed8:	01872503          	lw	a0,24(a4) # 0x40000018
    2edc:	40f50533          	sub	a0,a0,a5
    2ee0:	00153513          	seqz	a0,a0
    2ee4:	00008067          	ret
    2ee8:	00064783          	lbu	a5,0(a2)
    2eec:	fe010113          	addi	sp,sp,-32
    2ef0:	00913423          	0x913423
    2ef4:	00113c23          	0x113c23
    2ef8:	00813823          	0x813823
    2efc:	00060493          	mv	s1,a2
    2f00:	00078e63          	beqz	a5,0x2f1c
    2f04:	01462783          	lw	a5,20(a2)
    2f08:	fff5051b          	0xfff5051b
    2f0c:	00a7f7b3          	and	a5,a5,a0
    2f10:	02079793          	slli	a5,a5,0x20
    2f14:	01d7d793          	srli	a5,a5,0x1d
    2f18:	00f585b3          	add	a1,a1,a5
    2f1c:	0005b403          	0x5b403
    2f20:	00041863          	bnez	s0,0x2f30
    2f24:	01c0006f          	j	0x2f40
    2f28:	01843403          	0x1843403
    2f2c:	00040a63          	beqz	s0,0x2f40
    2f30:	00040513          	mv	a0,s0
    2f34:	00048593          	mv	a1,s1
    2f38:	294010ef          	jal	ra,0x41cc
    2f3c:	fe0506e3          	beqz	a0,0x2f28
    2f40:	00040513          	mv	a0,s0
    2f44:	01813083          	0x1813083
    2f48:	01013403          	0x1013403
    2f4c:	00813483          	0x813483
    2f50:	02010113          	addi	sp,sp,32
    2f54:	00008067          	ret
    2f58:	ed010113          	addi	sp,sp,-304
    2f5c:	03810513          	addi	a0,sp,56
    2f60:	12113423          	0x12113423
    2f64:	12813023          	0x12813023
    2f68:	10913c23          	0x10913c23
    2f6c:	11213823          	0x11213823
    2f70:	11313423          	0x11313423
    2f74:	11413023          	0x11413023
    2f78:	0f513c23          	0xf513c23
    2f7c:	0f613823          	0xf613823
    2f80:	0f713423          	0xf713423
    2f84:	0f813023          	0xf813023
    2f88:	0d913c23          	0xd913c23
    2f8c:	0da13823          	0xda13823
    2f90:	0db13423          	0xdb13423
    2f94:	749000ef          	jal	ra,0x3edc
    2f98:	00004797          	auipc	a5,0x4
    2f9c:	a8878793          	addi	a5,a5,-1400 # 0x6a20
    2fa0:	0007b783          	0x7b783
    2fa4:	00100713          	li	a4,1
    2fa8:	0007a783          	lw	a5,0(a5)
    2fac:	02e78863          	beq	a5,a4,0x2fdc
    2fb0:	00200713          	li	a4,2
    2fb4:	1ae78ae3          	beq	a5,a4,0x3968
    2fb8:	02b00613          	li	a2,43
    2fbc:	140780e3          	beqz	a5,0x38fc
    2fc0:	00003597          	auipc	a1,0x3
    2fc4:	ee058593          	addi	a1,a1,-288 # 0x5ea0
    2fc8:	00003517          	auipc	a0,0x3
    2fcc:	aa850513          	addi	a0,a0,-1368 # 0x5a70
    2fd0:	59c020ef          	jal	ra,0x556c
    2fd4:	00100513          	li	a0,1
    2fd8:	650010ef          	jal	ra,0x4628
    2fdc:	08010493          	addi	s1,sp,128
    2fe0:	00004597          	auipc	a1,0x4
    2fe4:	87058593          	addi	a1,a1,-1936 # 0x6850
    2fe8:	00048513          	mv	a0,s1
    2fec:	090010ef          	jal	ra,0x407c
    2ff0:	08012783          	lw	a5,128(sp)
    2ff4:	08014803          	lbu	a6,128(sp)
    2ff8:	03810713          	addi	a4,sp,56
    2ffc:	02f12c23          	sw	a5,56(sp)
    3000:	09412783          	lw	a5,148(sp)
    3004:	09010413          	addi	s0,sp,144
    3008:	04f12623          	sw	a5,76(sp)
    300c:	00048793          	mv	a5,s1
    3010:	0047c503          	lbu	a0,4(a5)
    3014:	0057c583          	lbu	a1,5(a5)
    3018:	0067c603          	lbu	a2,6(a5)
    301c:	0077c683          	lbu	a3,7(a5)
    3020:	00a70223          	sb	a0,4(a4)
    3024:	00b702a3          	sb	a1,5(a4)
    3028:	00c70323          	sb	a2,6(a4)
    302c:	00d703a3          	sb	a3,7(a4)
    3030:	00478793          	addi	a5,a5,4
    3034:	00470713          	addi	a4,a4,4
    3038:	fcf41ce3          	bne	s0,a5,0x3010
    303c:	00001cb7          	lui	s9,0x1
    3040:	800c8793          	addi	a5,s9,-2048 # 0x800
    3044:	00f13423          	0xf13423
    3048:	0a0806e3          	beqz	a6,0x38f4
    304c:	00040613          	mv	a2,s0
    3050:	03810593          	addi	a1,sp,56
    3054:	0d010813          	addi	a6,sp,208
    3058:	01000513          	li	a0,16
    305c:	ff060793          	addi	a5,a2,-16
    3060:	00058713          	mv	a4,a1
    3064:	00470683          	lb	a3,4(a4)
    3068:	06069c63          	bnez	a3,0x30e0
    306c:	00a7a023          	sw	a0,0(a5)
    3070:	00478793          	addi	a5,a5,4
    3074:	00170713          	addi	a4,a4,1
    3078:	fec796e3          	bne	a5,a2,0x3064
    307c:	01078613          	addi	a2,a5,16
    3080:	00458593          	addi	a1,a1,4
    3084:	fcc81ce3          	bne	a6,a2,0x305c
    3088:	08012683          	lw	a3,128(sp)
    308c:	00100513          	li	a0,1
    3090:	00000613          	li	a2,0
    3094:	00100793          	li	a5,1
    3098:	01000593          	li	a1,16
    309c:	00279713          	slli	a4,a5,0x2
    30a0:	0c010813          	addi	a6,sp,192
    30a4:	00e80733          	add	a4,a6,a4
    30a8:	fc072703          	lw	a4,-64(a4)
    30ac:	00d75463          	bge	a4,a3,0x30b4
    30b0:	0016061b          	0x16061b
    30b4:	0017879b          	0x17879b
    30b8:	00078713          	mv	a4,a5
    30bc:	feb790e3          	bne	a5,a1,0x309c
    30c0:	0015079b          	0x15079b
    30c4:	02e78263          	beq	a5,a4,0x30e8
    30c8:	00251513          	slli	a0,a0,0x2
    30cc:	0c010713          	addi	a4,sp,192
    30d0:	00a70533          	add	a0,a4,a0
    30d4:	fc052683          	lw	a3,-64(a0)
    30d8:	00078513          	mv	a0,a5
    30dc:	fc1ff06f          	j	0x309c
    30e0:	00d7a023          	sw	a3,0(a5)
    30e4:	f8dff06f          	j	0x3070
    30e8:	03914683          	lbu	a3,57(sp)
    30ec:	03a14703          	lbu	a4,58(sp)
    30f0:	00600793          	li	a5,6
    30f4:	40d787bb          	0x40d787bb
    30f8:	40e787bb          	0x40e787bb
    30fc:	00c787bb          	0xc787bb
    3100:	0017f793          	andi	a5,a5,1
    3104:	7e079863          	bnez	a5,0x38f4
    3108:	02000513          	li	a0,32
    310c:	fd8fe0ef          	jal	ra,0x18e4
    3110:	00813783          	0x813783
    3114:	00050d93          	mv	s11,a0
    3118:	00f52023          	sw	a5,0(a0)
    311c:	00379513          	slli	a0,a5,0x3
    3120:	fc4fe0ef          	jal	ra,0x18e4
    3124:	000da783          	lw	a5,0(s11)
    3128:	00adb823          	0xadb823
    312c:	0017879b          	0x17879b
    3130:	00379513          	slli	a0,a5,0x3
    3134:	fb0fe0ef          	jal	ra,0x18e4
    3138:	000da783          	lw	a5,0(s11)
    313c:	00adb423          	0xadb423
    3140:	000dbc23          	0xdbc23
    3144:	02f05263          	blez	a5,0x3168
    3148:	fff7879b          	0xfff7879b
    314c:	02079793          	slli	a5,a5,0x20
    3150:	01d7d793          	srli	a5,a5,0x1d
    3154:	00850713          	addi	a4,a0,8
    3158:	00e787b3          	add	a5,a5,a4
    315c:	00053023          	0x53023
    3160:	00850513          	addi	a0,a0,8
    3164:	fef51ce3          	bne	a0,a5,0x315c
    3168:	00000613          	li	a2,0
    316c:	03810593          	addi	a1,sp,56
    3170:	000d8513          	mv	a0,s11
    3174:	160010ef          	jal	ra,0x42d4
    3178:	018da603          	lw	a2,24(s11)
    317c:	fff00793          	li	a5,-1
    3180:	00004717          	auipc	a4,0x4
    3184:	86f72a23          	sw	a5,-1932(a4) # 0x69f4
    3188:	00000913          	li	s2,0
    318c:	42060e63          	beqz	a2,0x35c8
    3190:	00448793          	addi	a5,s1,4
    3194:	00100b13          	li	s6,1
    3198:	01448c13          	addi	s8,s1,20
    319c:	01048b93          	addi	s7,s1,16
    31a0:	06010993          	addi	s3,sp,96
    31a4:	02f13423          	0x2f13423
    31a8:	010dbf03          	0x10dbf03
    31ac:	00048713          	mv	a4,s1
    31b0:	00048693          	mv	a3,s1
    31b4:	008f3783          	0x8f3783
    31b8:	00378583          	lb	a1,3(a5)
    31bc:	0007cd03          	lbu	s10,0(a5)
    31c0:	0017ca03          	lbu	s4,1(a5)
    31c4:	0027ca83          	lbu	s5,2(a5)
    31c8:	0007ae83          	lw	t4,0(a5)
    31cc:	0147ac83          	lw	s9,20(a5)
    31d0:	00b13823          	0xb13823
    31d4:	00478793          	addi	a5,a5,4
    31d8:	0007c303          	lbu	t1,0(a5)
    31dc:	0017c883          	lbu	a7,1(a5)
    31e0:	0027c503          	lbu	a0,2(a5)
    31e4:	0037c583          	lbu	a1,3(a5)
    31e8:	00668223          	sb	t1,4(a3)
    31ec:	011682a3          	sb	a7,5(a3)
    31f0:	00a68323          	sb	a0,6(a3)
    31f4:	00b683a3          	sb	a1,7(a3)
    31f8:	00468693          	addi	a3,a3,4
    31fc:	00478793          	addi	a5,a5,4
    3200:	fc869ce3          	bne	a3,s0,0x31d8
    3204:	57660263          	beq	a2,s6,0x3768
    3208:	00cb58e3          	bge	s6,a2,0x3a18
    320c:	00361613          	slli	a2,a2,0x3
    3210:	00cf0633          	add	a2,t5,a2
    3214:	00063783          	0x63783
    3218:	000d8513          	mv	a0,s11
    321c:	02e13023          	0x2e13023
    3220:	00ff3423          	0xff3423
    3224:	0367a023          	sw	s6,32(a5)
    3228:	018da783          	lw	a5,24(s11)
    322c:	01d13c23          	0x1d13c23
    3230:	fff7879b          	0xfff7879b
    3234:	00fdac23          	sw	a5,24(s11)
    3238:	2e0010ef          	jal	ra,0x4518
    323c:	02013703          	0x2013703
    3240:	01813e83          	0x1813e83
    3244:	07912223          	sw	s9,100(sp)
    3248:	05010c93          	addi	s9,sp,80
    324c:	05d12823          	sw	t4,80(sp)
    3250:	000c8793          	mv	a5,s9
    3254:	00474503          	lbu	a0,4(a4)
    3258:	00574583          	lbu	a1,5(a4)
    325c:	00674603          	lbu	a2,6(a4)
    3260:	00774683          	lbu	a3,7(a4)
    3264:	00a78223          	sb	a0,4(a5)
    3268:	00b782a3          	sb	a1,5(a5)
    326c:	00c78323          	sb	a2,6(a5)
    3270:	00d783a3          	sb	a3,7(a5)
    3274:	00470713          	addi	a4,a4,4
    3278:	00478793          	addi	a5,a5,4
    327c:	fce41ce3          	bne	s0,a4,0x3254
    3280:	0019091b          	0x19091b
    3284:	00048713          	mv	a4,s1
    3288:	00000793          	li	a5,0
    328c:	00f00693          	li	a3,15
    3290:	0017879b          	0x17879b
    3294:	00f72023          	sw	a5,0(a4)
    3298:	00470713          	addi	a4,a4,4
    329c:	fed79ae3          	bne	a5,a3,0x3290
    32a0:	00048593          	mv	a1,s1
    32a4:	06810513          	addi	a0,sp,104
    32a8:	0a012e23          	sw	zero,188(sp)
    32ac:	5d1000ef          	jal	ra,0x407c
    32b0:	06810593          	addi	a1,sp,104
    32b4:	05010513          	addi	a0,sp,80
    32b8:	715000ef          	jal	ra,0x41cc
    32bc:	72051463          	bnez	a0,0x39e4
    32c0:	2e0d0c63          	beqz	s10,0x35b8
    32c4:	00300793          	li	a5,3
    32c8:	4afa8463          	beq	s5,a5,0x3770
    32cc:	00048613          	mv	a2,s1
    32d0:	00048713          	mv	a4,s1
    32d4:	05010793          	addi	a5,sp,80
    32d8:	0047c303          	lbu	t1,4(a5)
    32dc:	0057c503          	lbu	a0,5(a5)
    32e0:	0067c583          	lbu	a1,6(a5)
    32e4:	0077c683          	lbu	a3,7(a5)
    32e8:	00670223          	sb	t1,4(a4)
    32ec:	00a702a3          	sb	a0,5(a4)
    32f0:	00b70323          	sb	a1,6(a4)
    32f4:	00d703a3          	sb	a3,7(a4)
    32f8:	00478793          	addi	a5,a5,4
    32fc:	00470713          	addi	a4,a4,4
    3300:	fcf99ce3          	bne	s3,a5,0x32d8
    3304:	000a079b          	0xa079b
    3308:	000a8d1b          	0xa8d1b
    330c:	00279693          	slli	a3,a5,0x2
    3310:	00f13c23          	0xf13c23
    3314:	0c010793          	addi	a5,sp,192
    3318:	001d059b          	0x1d059b
    331c:	00d786b3          	add	a3,a5,a3
    3320:	00b687b3          	add	a5,a3,a1
    3324:	f9478503          	lb	a0,-108(a5)
    3328:	00058313          	mv	t1,a1
    332c:	0ff5f593          	andi	a1,a1,255
    3330:	fff5079b          	0xfff5079b
    3334:	41f7d71b          	0x41f7d71b
    3338:	01e7571b          	0x1e7571b
    333c:	00e787bb          	0xe787bb
    3340:	0037f793          	andi	a5,a5,3
    3344:	40e787bb          	0x40e787bb
    3348:	41a7873b          	0x41a7873b
    334c:	406787bb          	0x406787bb
    3350:	41f75f1b          	0x41f75f1b
    3354:	41f7de9b          	0x41f7de9b
    3358:	00ef4333          	xor	t1,t5,a4
    335c:	00fec7b3          	xor	a5,t4,a5
    3360:	41d787bb          	0x41d787bb
    3364:	41e3033b          	0x41e3033b
    3368:	40f3033b          	0x40f3033b
    336c:	01013783          	0x1013783
    3370:	01a68e33          	add	t3,a3,s10
    3374:	00b686b3          	add	a3,a3,a1
    3378:	00f3033b          	0xf3033b
    337c:	02813583          	0x2813583
    3380:	fcae0223          	sb	a0,-60(t3) # 0xffc4
    3384:	0183131b          	0x183131b
    3388:	001a8e1b          	0x1a8e1b
    338c:	4183531b          	0x4183531b
    3390:	0ffe7e13          	andi	t3,t3,255
    3394:	fc068223          	sb	zero,-60(a3)
    3398:	00000713          	li	a4,0
    339c:	7b500513          	li	a0,1973
    33a0:	ffc58793          	addi	a5,a1,-4
    33a4:	02e5073b          	0x2e5073b
    33a8:	00478683          	lb	a3,4(a5)
    33ac:	00178793          	addi	a5,a5,1
    33b0:	00d7073b          	0xd7073b
    33b4:	feb798e3          	bne	a5,a1,0x33a4
    33b8:	00478593          	addi	a1,a5,4
    33bc:	febc12e3          	bne	s8,a1,0x33a0
    33c0:	00100793          	li	a5,1
    33c4:	06f10423          	sb	a5,104(sp)
    33c8:	074104a3          	sb	s4,105(sp)
    33cc:	07c10523          	sb	t3,106(sp)
    33d0:	066105a3          	sb	t1,107(sp)
    33d4:	06e12e23          	sw	a4,124(sp)
    33d8:	06810793          	addi	a5,sp,104
    33dc:	00464503          	lbu	a0,4(a2)
    33e0:	00564583          	lbu	a1,5(a2)
    33e4:	00664683          	lbu	a3,6(a2)
    33e8:	00764703          	lbu	a4,7(a2)
    33ec:	00a78223          	sb	a0,4(a5)
    33f0:	00b782a3          	sb	a1,5(a5)
    33f4:	00d78323          	sb	a3,6(a5)
    33f8:	00e783a3          	sb	a4,7(a5)
    33fc:	00460613          	addi	a2,a2,4
    3400:	00478793          	addi	a5,a5,4
    3404:	fd761ce3          	bne	a2,s7,0x33dc
    3408:	008db583          	0x8db583
    340c:	000da503          	lw	a0,0(s11)
    3410:	05010613          	addi	a2,sp,80
    3414:	ad5ff0ef          	jal	ra,0x2ee8
    3418:	4c050663          	beqz	a0,0x38e4
    341c:	02452603          	lw	a2,36(a0)
    3420:	0016061b          	0x16061b
    3424:	06810593          	addi	a1,sp,104
    3428:	000d8513          	mv	a0,s11
    342c:	6a9000ef          	jal	ra,0x42d4
    3430:	340a9663          	bnez	s5,0x377c
    3434:	00300793          	li	a5,3
    3438:	1efa0c63          	beq	s4,a5,0x3630
    343c:	00048593          	mv	a1,s1
    3440:	00048713          	mv	a4,s1
    3444:	05010793          	addi	a5,sp,80
    3448:	0047c303          	lbu	t1,4(a5)
    344c:	0057c503          	lbu	a0,5(a5)
    3450:	0067c603          	lbu	a2,6(a5)
    3454:	0077c683          	lbu	a3,7(a5)
    3458:	00670223          	sb	t1,4(a4)
    345c:	00a702a3          	sb	a0,5(a4)
    3460:	00c70323          	sb	a2,6(a4)
    3464:	00d703a3          	sb	a3,7(a4)
    3468:	00478793          	addi	a5,a5,4
    346c:	00470713          	addi	a4,a4,4
    3470:	fd379ce3          	bne	a5,s3,0x3448
    3474:	01813803          	0x1813803
    3478:	0c010693          	addi	a3,sp,192
    347c:	0018071b          	0x18071b
    3480:	00271793          	slli	a5,a4,0x2
    3484:	00f687b3          	add	a5,a3,a5
    3488:	01a787b3          	add	a5,a5,s10
    348c:	f9478683          	lb	a3,-108(a5)
    3490:	00070313          	mv	t1,a4
    3494:	0ff77613          	andi	a2,a4,255
    3498:	fff6871b          	0xfff6871b
    349c:	41f7579b          	0x41f7579b
    34a0:	01e7d79b          	0x1e7d79b
    34a4:	00e787bb          	0xe787bb
    34a8:	4027d79b          	0x4027d79b
    34ac:	4107873b          	0x4107873b
    34b0:	406787bb          	0x406787bb
    34b4:	41f75e9b          	0x41f75e9b
    34b8:	41f7d31b          	0x41f7d31b
    34bc:	00eece33          	xor	t3,t4,a4
    34c0:	00f347b3          	xor	a5,t1,a5
    34c4:	406787bb          	0x406787bb
    34c8:	41de0e3b          	0x41de0e3b
    34cc:	0c010713          	addi	a4,sp,192
    34d0:	00281513          	slli	a0,a6,0x2
    34d4:	00a70533          	add	a0,a4,a0
    34d8:	40fe0e3b          	0x40fe0e3b
    34dc:	00261713          	slli	a4,a2,0x2
    34e0:	0c010793          	addi	a5,sp,192
    34e4:	00e787b3          	add	a5,a5,a4
    34e8:	01013703          	0x1013703
    34ec:	01a50633          	add	a2,a0,s10
    34f0:	fcd60223          	sb	a3,-60(a2)
    34f4:	00ee0e3b          	0xee0e3b
    34f8:	001a0e9b          	0x1a0e9b
    34fc:	01a787b3          	add	a5,a5,s10
    3500:	00448313          	addi	t1,s1,4
    3504:	018e1e1b          	0x18e1e1b
    3508:	418e5e1b          	0x418e5e1b
    350c:	0ffefe93          	andi	t4,t4,255
    3510:	fc078223          	sb	zero,-60(a5)
    3514:	00030693          	mv	a3,t1
    3518:	00000713          	li	a4,0
    351c:	7b500513          	li	a0,1973
    3520:	ffc68793          	addi	a5,a3,-4
    3524:	02e5073b          	0x2e5073b
    3528:	00478603          	lb	a2,4(a5)
    352c:	00178793          	addi	a5,a5,1
    3530:	00c7073b          	0xc7073b
    3534:	fef698e3          	bne	a3,a5,0x3524
    3538:	00468693          	addi	a3,a3,4
    353c:	fedc12e3          	bne	s8,a3,0x3520
    3540:	00100793          	li	a5,1
    3544:	06f10423          	sb	a5,104(sp)
    3548:	07d104a3          	sb	t4,105(sp)
    354c:	07510523          	sb	s5,106(sp)
    3550:	07c105a3          	sb	t3,107(sp)
    3554:	06e12e23          	sw	a4,124(sp)
    3558:	06810793          	addi	a5,sp,104
    355c:	0045c503          	lbu	a0,4(a1)
    3560:	0055c603          	lbu	a2,5(a1)
    3564:	0065c683          	lbu	a3,6(a1)
    3568:	0075c703          	lbu	a4,7(a1)
    356c:	00a78223          	sb	a0,4(a5)
    3570:	00c782a3          	sb	a2,5(a5)
    3574:	00d78323          	sb	a3,6(a5)
    3578:	00e783a3          	sb	a4,7(a5)
    357c:	00030593          	mv	a1,t1
    3580:	00478793          	addi	a5,a5,4
    3584:	09730063          	beq	t1,s7,0x3604
    3588:	00430313          	addi	t1,t1,4
    358c:	fd1ff06f          	j	0x355c
    3590:	008db583          	0x8db583
    3594:	000da503          	lw	a0,0(s11)
    3598:	05010613          	addi	a2,sp,80
    359c:	94dff0ef          	jal	ra,0x2ee8
    35a0:	42050e63          	beqz	a0,0x39dc
    35a4:	02452603          	lw	a2,36(a0)
    35a8:	0016061b          	0x16061b
    35ac:	06810593          	addi	a1,sp,104
    35b0:	000d8513          	mv	a0,s11
    35b4:	521000ef          	jal	ra,0x42d4
    35b8:	018da603          	lw	a2,24(s11)
    35bc:	00060663          	beqz	a2,0x35c8
    35c0:	00813783          	0x813783
    35c4:	bf2792e3          	bne	a5,s2,0x31a8
    35c8:	12813083          	0x12813083
    35cc:	12013403          	0x12013403
    35d0:	11813483          	0x11813483
    35d4:	11013903          	0x11013903
    35d8:	10813983          	0x10813983
    35dc:	10013a03          	0x10013a03
    35e0:	0f813a83          	0xf813a83
    35e4:	0f013b03          	0xf013b03
    35e8:	0e813b83          	0xe813b83
    35ec:	0e013c03          	0xe013c03
    35f0:	0d813c83          	0xd813c83
    35f4:	0d013d03          	0xd013d03
    35f8:	0c813d83          	0xc813d83
    35fc:	13010113          	addi	sp,sp,304
    3600:	00008067          	ret
    3604:	008db583          	0x8db583
    3608:	000da503          	lw	a0,0(s11)
    360c:	05010613          	addi	a2,sp,80
    3610:	8d9ff0ef          	jal	ra,0x2ee8
    3614:	2c050c63          	beqz	a0,0x38ec
    3618:	02452603          	lw	a2,36(a0)
    361c:	0016061b          	0x16061b
    3620:	06810593          	addi	a1,sp,104
    3624:	000d8513          	mv	a0,s11
    3628:	4ad000ef          	jal	ra,0x42d4
    362c:	f80a06e3          	beqz	s4,0x35b8
    3630:	00048313          	mv	t1,s1
    3634:	00048793          	mv	a5,s1
    3638:	004cc583          	lbu	a1,4(s9)
    363c:	005cc603          	lbu	a2,5(s9)
    3640:	006cc683          	lbu	a3,6(s9)
    3644:	007cc703          	lbu	a4,7(s9)
    3648:	00b78223          	sb	a1,4(a5)
    364c:	00c782a3          	sb	a2,5(a5)
    3650:	00d78323          	sb	a3,6(a5)
    3654:	00e783a3          	sb	a4,7(a5)
    3658:	004c8c93          	addi	s9,s9,4
    365c:	00478793          	addi	a5,a5,4
    3660:	fd999ce3          	bne	s3,s9,0x3638
    3664:	01813803          	0x1813803
    3668:	0c010793          	addi	a5,sp,192
    366c:	fff8061b          	0xfff8061b
    3670:	00060513          	mv	a0,a2
    3674:	00261613          	slli	a2,a2,0x2
    3678:	00c78633          	add	a2,a5,a2
    367c:	01a60633          	add	a2,a2,s10
    3680:	f9460683          	lb	a3,-108(a2)
    3684:	00281593          	slli	a1,a6,0x2
    3688:	00b785b3          	add	a1,a5,a1
    368c:	fff6879b          	0xfff6879b
    3690:	41f7d71b          	0x41f7d71b
    3694:	01e7571b          	0x1e7571b
    3698:	00f7073b          	0xf7073b
    369c:	4027571b          	0x4027571b
    36a0:	410707bb          	0x410707bb
    36a4:	40a7073b          	0x40a7073b
    36a8:	41f7de1b          	0x41f7de1b
    36ac:	41f7589b          	0x41f7589b
    36b0:	00fe4533          	xor	a0,t3,a5
    36b4:	00e8c7b3          	xor	a5,a7,a4
    36b8:	411787bb          	0x411787bb
    36bc:	41c5053b          	0x41c5053b
    36c0:	40f5053b          	0x40f5053b
    36c4:	01013783          	0x1013783
    36c8:	01a58d33          	add	s10,a1,s10
    36cc:	fcdd0223          	sb	a3,-60(s10)
    36d0:	00f5053b          	0xf5053b
    36d4:	fffa069b          	0xfffa069b
    36d8:	00448e13          	addi	t3,s1,4
    36dc:	0185151b          	0x185151b
    36e0:	4185551b          	0x4185551b
    36e4:	0ff6f693          	andi	a3,a3,255
    36e8:	fc060223          	sb	zero,-60(a2)
    36ec:	000e0593          	mv	a1,t3
    36f0:	00000713          	li	a4,0
    36f4:	7b500893          	li	a7,1973
    36f8:	ffc58793          	addi	a5,a1,-4
    36fc:	02e8873b          	0x2e8873b
    3700:	00478603          	lb	a2,4(a5)
    3704:	00178793          	addi	a5,a5,1
    3708:	00c7073b          	0xc7073b
    370c:	feb798e3          	bne	a5,a1,0x36fc
    3710:	00478593          	addi	a1,a5,4
    3714:	febc12e3          	bne	s8,a1,0x36f8
    3718:	00100793          	li	a5,1
    371c:	06f10423          	sb	a5,104(sp)
    3720:	06d104a3          	sb	a3,105(sp)
    3724:	07510523          	sb	s5,106(sp)
    3728:	06a105a3          	sb	a0,107(sp)
    372c:	06e12e23          	sw	a4,124(sp)
    3730:	06810793          	addi	a5,sp,104
    3734:	00434583          	lbu	a1,4(t1)
    3738:	00534603          	lbu	a2,5(t1)
    373c:	00634683          	lbu	a3,6(t1)
    3740:	00734703          	lbu	a4,7(t1)
    3744:	00b78223          	sb	a1,4(a5)
    3748:	00c782a3          	sb	a2,5(a5)
    374c:	00d78323          	sb	a3,6(a5)
    3750:	00e783a3          	sb	a4,7(a5)
    3754:	000e0313          	mv	t1,t3
    3758:	00478793          	addi	a5,a5,4
    375c:	e37e0ae3          	beq	t3,s7,0x3590
    3760:	004e0e13          	addi	t3,t3,4
    3764:	fd1ff06f          	j	0x3734
    3768:	000dac23          	sw	zero,24(s11)
    376c:	ad9ff06f          	j	0x3244
    3770:	000a079b          	0xa079b
    3774:	00f13c23          	0xf13c23
    3778:	00300d13          	li	s10,3
    377c:	00048593          	mv	a1,s1
    3780:	00048713          	mv	a4,s1
    3784:	05010793          	addi	a5,sp,80
    3788:	0047c303          	lbu	t1,4(a5)
    378c:	0057c503          	lbu	a0,5(a5)
    3790:	0067c603          	lbu	a2,6(a5)
    3794:	0077c683          	lbu	a3,7(a5)
    3798:	00670223          	sb	t1,4(a4)
    379c:	00a702a3          	sb	a0,5(a4)
    37a0:	00c70323          	sb	a2,6(a4)
    37a4:	00d703a3          	sb	a3,7(a4)
    37a8:	00478793          	addi	a5,a5,4
    37ac:	00470713          	addi	a4,a4,4
    37b0:	fd379ce3          	bne	a5,s3,0x3788
    37b4:	01813703          	0x1813703
    37b8:	fffd079b          	0xfffd079b
    37bc:	0007861b          	0x7861b
    37c0:	00271513          	slli	a0,a4,0x2
    37c4:	0c010713          	addi	a4,sp,192
    37c8:	00a70533          	add	a0,a4,a0
    37cc:	00060e13          	mv	t3,a2
    37d0:	00c50633          	add	a2,a0,a2
    37d4:	f9460303          	lb	t1,-108(a2)
    37d8:	01a50533          	add	a0,a0,s10
    37dc:	fffa869b          	0xfffa869b
    37e0:	fff3079b          	0xfff3079b
    37e4:	41f7d71b          	0x41f7d71b
    37e8:	01e7571b          	0x1e7571b
    37ec:	00e787bb          	0xe787bb
    37f0:	0037f793          	andi	a5,a5,3
    37f4:	40e787bb          	0x40e787bb
    37f8:	41a7873b          	0x41a7873b
    37fc:	41c787bb          	0x41c787bb
    3800:	41f75f1b          	0x41f75f1b
    3804:	41f7de9b          	0x41f7de9b
    3808:	00ef4e33          	xor	t3,t5,a4
    380c:	00fec7b3          	xor	a5,t4,a5
    3810:	41d787bb          	0x41d787bb
    3814:	41ee0e3b          	0x41ee0e3b
    3818:	40fe0e3b          	0x40fe0e3b
    381c:	01013783          	0x1013783
    3820:	fc650223          	sb	t1,-60(a0)
    3824:	00448313          	addi	t1,s1,4
    3828:	00fe0e3b          	0xfe0e3b
    382c:	018e1e1b          	0x18e1e1b
    3830:	fc060223          	sb	zero,-60(a2)
    3834:	418e5e1b          	0x418e5e1b
    3838:	0ff6fe93          	andi	t4,a3,255
    383c:	00030613          	mv	a2,t1
    3840:	00000713          	li	a4,0
    3844:	7b500513          	li	a0,1973
    3848:	ffc60793          	addi	a5,a2,-4
    384c:	02e5073b          	0x2e5073b
    3850:	00478683          	lb	a3,4(a5)
    3854:	00178793          	addi	a5,a5,1
    3858:	00d7073b          	0xd7073b
    385c:	fec798e3          	bne	a5,a2,0x384c
    3860:	00478613          	addi	a2,a5,4
    3864:	fecc12e3          	bne	s8,a2,0x3848
    3868:	00100793          	li	a5,1
    386c:	06f10423          	sb	a5,104(sp)
    3870:	074104a3          	sb	s4,105(sp)
    3874:	07d10523          	sb	t4,106(sp)
    3878:	07c105a3          	sb	t3,107(sp)
    387c:	06e12e23          	sw	a4,124(sp)
    3880:	06810793          	addi	a5,sp,104
    3884:	0045c503          	lbu	a0,4(a1)
    3888:	0055c603          	lbu	a2,5(a1)
    388c:	0065c683          	lbu	a3,6(a1)
    3890:	0075c703          	lbu	a4,7(a1)
    3894:	00a78223          	sb	a0,4(a5)
    3898:	00c782a3          	sb	a2,5(a5)
    389c:	00d78323          	sb	a3,6(a5)
    38a0:	00e783a3          	sb	a4,7(a5)
    38a4:	00030593          	mv	a1,t1
    38a8:	00478793          	addi	a5,a5,4
    38ac:	006b8663          	beq	s7,t1,0x38b8
    38b0:	00430313          	addi	t1,t1,4
    38b4:	fd1ff06f          	j	0x3884
    38b8:	008db583          	0x8db583
    38bc:	000da503          	lw	a0,0(s11)
    38c0:	05010613          	addi	a2,sp,80
    38c4:	e24ff0ef          	jal	ra,0x2ee8
    38c8:	10050663          	beqz	a0,0x39d4
    38cc:	02452603          	lw	a2,36(a0)
    38d0:	0016061b          	0x16061b
    38d4:	06810593          	addi	a1,sp,104
    38d8:	000d8513          	mv	a0,s11
    38dc:	1f9000ef          	jal	ra,0x42d4
    38e0:	b55ff06f          	j	0x3434
    38e4:	80000637          	lui	a2,0x80000
    38e8:	b3dff06f          	j	0x3424
    38ec:	80000637          	lui	a2,0x80000
    38f0:	d31ff06f          	j	0x3620
    38f4:	02d00613          	li	a2,45
    38f8:	ec8ff06f          	j	0x2fc0
    38fc:	08010493          	addi	s1,sp,128
    3900:	00003597          	auipc	a1,0x3
    3904:	f1058593          	addi	a1,a1,-240 # 0x6810
    3908:	00048513          	mv	a0,s1
    390c:	770000ef          	jal	ra,0x407c
    3910:	08012783          	lw	a5,128(sp)
    3914:	08014803          	lbu	a6,128(sp)
    3918:	03810713          	addi	a4,sp,56
    391c:	02f12c23          	sw	a5,56(sp)
    3920:	09412783          	lw	a5,148(sp)
    3924:	09010413          	addi	s0,sp,144
    3928:	04f12623          	sw	a5,76(sp)
    392c:	00048793          	mv	a5,s1
    3930:	0047c503          	lbu	a0,4(a5)
    3934:	0057c583          	lbu	a1,5(a5)
    3938:	0067c603          	lbu	a2,6(a5)
    393c:	0077c683          	lbu	a3,7(a5)
    3940:	00a70223          	sb	a0,4(a4)
    3944:	00b702a3          	sb	a1,5(a4)
    3948:	00c70323          	sb	a2,6(a4)
    394c:	00d703a3          	sb	a3,7(a4)
    3950:	00478793          	addi	a5,a5,4
    3954:	00470713          	addi	a4,a4,4
    3958:	fc879ce3          	bne	a5,s0,0x3930
    395c:	00a00793          	li	a5,10
    3960:	00f13423          	0xf13423
    3964:	ee4ff06f          	j	0x3048
    3968:	08010493          	addi	s1,sp,128
    396c:	00003597          	auipc	a1,0x3
    3970:	f2458593          	addi	a1,a1,-220 # 0x6890
    3974:	00048513          	mv	a0,s1
    3978:	704000ef          	jal	ra,0x407c
    397c:	08012783          	lw	a5,128(sp)
    3980:	08014803          	lbu	a6,128(sp)
    3984:	03810713          	addi	a4,sp,56
    3988:	02f12c23          	sw	a5,56(sp)
    398c:	09412783          	lw	a5,148(sp)
    3990:	09010413          	addi	s0,sp,144
    3994:	04f12623          	sw	a5,76(sp)
    3998:	00048793          	mv	a5,s1
    399c:	0047c503          	lbu	a0,4(a5)
    39a0:	0057c583          	lbu	a1,5(a5)
    39a4:	0067c603          	lbu	a2,6(a5)
    39a8:	0077c683          	lbu	a3,7(a5)
    39ac:	00a70223          	sb	a0,4(a4)
    39b0:	00b702a3          	sb	a1,5(a4)
    39b4:	00c70323          	sb	a2,6(a4)
    39b8:	00d703a3          	sb	a3,7(a4)
    39bc:	00478793          	addi	a5,a5,4
    39c0:	00470713          	addi	a4,a4,4
    39c4:	fc879ce3          	bne	a5,s0,0x399c
    39c8:	000047b7          	lui	a5,0x4
    39cc:	00f13423          	0xf13423
    39d0:	e78ff06f          	j	0x3048
    39d4:	80000637          	lui	a2,0x80000
    39d8:	efdff06f          	j	0x38d4
    39dc:	80000637          	lui	a2,0x80000
    39e0:	bcdff06f          	j	0x35ac
    39e4:	008db583          	0x8db583
    39e8:	000da503          	lw	a0,0(s11)
    39ec:	05010613          	addi	a2,sp,80
    39f0:	cf8ff0ef          	jal	ra,0x2ee8
    39f4:	00050c63          	beqz	a0,0x3a0c
    39f8:	02452783          	lw	a5,36(a0)
    39fc:	02f9093b          	0x2f9093b
    3a00:	00003797          	auipc	a5,0x3
    3a04:	ff27aa23          	sw	s2,-12(a5) # 0x69f4
    3a08:	bc1ff06f          	j	0x35c8
    3a0c:	800007b7          	lui	a5,0x80000
    3a10:	fff7c793          	not	a5,a5
    3a14:	fe9ff06f          	j	0x39fc
    3a18:	05600613          	li	a2,86
    3a1c:	00002597          	auipc	a1,0x2
    3a20:	44458593          	addi	a1,a1,1092 # 0x5e60
    3a24:	00002517          	auipc	a0,0x2
    3a28:	04c50513          	addi	a0,a0,76 # 0x5a70
    3a2c:	341010ef          	jal	ra,0x556c
    3a30:	00100513          	li	a0,1
    3a34:	3f5000ef          	jal	ra,0x4628
    3a38:	00c52783          	lw	a5,12(a0)
    3a3c:	fc010113          	addi	sp,sp,-64
    3a40:	01413823          	0x1413823
    3a44:	01613023          	0x1613023
    3a48:	02113c23          	0x2113c23
    3a4c:	02813823          	0x2813823
    3a50:	02913423          	0x2913423
    3a54:	03213023          	0x3213023
    3a58:	01313c23          	0x1313c23
    3a5c:	01513423          	0x1513423
    3a60:	00060a13          	mv	s4,a2
    3a64:	00060b13          	mv	s6,a2
    3a68:	0cb78663          	beq	a5,a1,0x3b34
    3a6c:	00000b13          	li	s6,0
    3a70:	0c060263          	beqz	a2,0x3b34
    3a74:	03053783          	0x3053783
    3a78:	00259993          	slli	s3,a1,0x2
    3a7c:	fff00713          	li	a4,-1
    3a80:	013787b3          	add	a5,a5,s3
    3a84:	0007a403          	lw	s0,0(a5) # 0xffffffff80000000
    3a88:	00050913          	mv	s2,a0
    3a8c:	0ae40463          	beq	s0,a4,0x3b34
    3a90:	fff00a93          	li	s5,-1
    3a94:	0180006f          	j	0x3aac
    3a98:	02093783          	0x2093783
    3a9c:	00241413          	slli	s0,s0,0x2
    3aa0:	00878433          	add	s0,a5,s0
    3aa4:	00042403          	lw	s0,0(s0)
    3aa8:	09540663          	beq	s0,s5,0x3b34
    3aac:	01093703          	0x1093703
    3ab0:	00441493          	slli	s1,s0,0x4
    3ab4:	02893783          	0x2893783
    3ab8:	009704b3          	add	s1,a4,s1
    3abc:	0044a583          	lw	a1,4(s1)
    3ac0:	01378733          	add	a4,a5,s3
    3ac4:	00072703          	lw	a4,0(a4)
    3ac8:	00259693          	slli	a3,a1,0x2
    3acc:	00d787b3          	add	a5,a5,a3
    3ad0:	0007a683          	lw	a3,0(a5)
    3ad4:	0017079b          	0x17079b
    3ad8:	fcd790e3          	bne	a5,a3,0x3a98
    3adc:	0084a603          	lw	a2,8(s1)
    3ae0:	00c4a783          	lw	a5,12(s1)
    3ae4:	00090513          	mv	a0,s2
    3ae8:	40f607bb          	0x40f607bb
    3aec:	00078613          	mv	a2,a5
    3af0:	00fa5463          	bge	s4,a5,0x3af8
    3af4:	000a061b          	0xa061b
    3af8:	f41ff0ef          	jal	ra,0x3a38
    3afc:	00144793          	xori	a5,s0,1
    3b00:	00479793          	slli	a5,a5,0x4
    3b04:	f8a05ae3          	blez	a0,0x3a98
    3b08:	00c4a683          	lw	a3,12(s1)
    3b0c:	01093703          	0x1093703
    3b10:	40aa0a3b          	0x40aa0a3b
    3b14:	00a686bb          	0xa686bb
    3b18:	00d4a623          	sw	a3,12(s1)
    3b1c:	00f707b3          	add	a5,a4,a5
    3b20:	00c7a703          	lw	a4,12(a5)
    3b24:	01650b3b          	0x1650b3b
    3b28:	40a7053b          	0x40a7053b
    3b2c:	00a7a623          	sw	a0,12(a5)
    3b30:	f60a14e3          	bnez	s4,0x3a98
    3b34:	03813083          	0x3813083
    3b38:	03013403          	0x3013403
    3b3c:	000b0513          	mv	a0,s6
    3b40:	02813483          	0x2813483
    3b44:	02013903          	0x2013903
    3b48:	01813983          	0x1813983
    3b4c:	01013a03          	0x1013a03
    3b50:	00813a83          	0x813a83
    3b54:	00013b03          	0x13b03
    3b58:	04010113          	addi	sp,sp,64
    3b5c:	00008067          	ret
    3b60:	f7010113          	addi	sp,sp,-144
    3b64:	08113423          	0x8113423
    3b68:	08813023          	0x8813023
    3b6c:	06913c23          	0x6913c23
    3b70:	07213823          	0x7213823
    3b74:	07313423          	0x7313423
    3b78:	07413023          	0x7413023
    3b7c:	05513c23          	0x5513c23
    3b80:	05613823          	0x5613823
    3b84:	05713423          	0x5713423
    3b88:	05813023          	0x5813023
    3b8c:	03913c23          	0x3913c23
    3b90:	03a13823          	0x3a13823
    3b94:	03b13423          	0x3b13423
    3b98:	28050a63          	beqz	a0,0x3e2c
    3b9c:	00002597          	auipc	a1,0x2
    3ba0:	d5c58593          	addi	a1,a1,-676 # 0x58f8
    3ba4:	00050413          	mv	s0,a0
    3ba8:	271010ef          	jal	ra,0x5618
    3bac:	28050063          	beqz	a0,0x3e2c
    3bb0:	00002597          	auipc	a1,0x2
    3bb4:	cd058593          	addi	a1,a1,-816 # 0x5880
    3bb8:	00040513          	mv	a0,s0
    3bbc:	25d010ef          	jal	ra,0x5618
    3bc0:	00050c93          	mv	s9,a0
    3bc4:	00050e63          	beqz	a0,0x3be0
    3bc8:	00002597          	auipc	a1,0x2
    3bcc:	cc058593          	addi	a1,a1,-832 # 0x5888
    3bd0:	00040513          	mv	a0,s0
    3bd4:	245010ef          	jal	ra,0x5618
    3bd8:	00100c93          	li	s9,1
    3bdc:	2c051863          	bnez	a0,0x3eac
    3be0:	301000ef          	jal	ra,0x46e0
    3be4:	00040593          	mv	a1,s0
    3be8:	00002517          	auipc	a0,0x2
    3bec:	ce050513          	addi	a0,a0,-800 # 0x58c8
    3bf0:	17d010ef          	jal	ra,0x556c
    3bf4:	1c5010ef          	jal	ra,0x55b8
    3bf8:	001c8493          	addi	s1,s9,1
    3bfc:	00549493          	slli	s1,s1,0x5
    3c00:	0005079b          	0x5079b
    3c04:	fe048a13          	addi	s4,s1,-32
    3c08:	00f13c23          	0xf13c23
    3c0c:	00002d17          	auipc	s10,0x2
    3c10:	6b4d0d13          	addi	s10,s10,1716 # 0x62c0
    3c14:	00003a97          	auipc	s5,0x3
    3c18:	bfca8a93          	addi	s5,s5,-1028 # 0x6810
    3c1c:	00100c13          	li	s8,1
    3c20:	00013823          	0x13823
    3c24:	00003917          	auipc	s2,0x3
    3c28:	df490913          	addi	s2,s2,-524 # 0x6a18
    3c2c:	00848493          	addi	s1,s1,8
    3c30:	00003417          	auipc	s0,0x3
    3c34:	ca840413          	addi	s0,s0,-856 # 0x68d8
    3c38:	00002997          	auipc	s3,0x2
    3c3c:	cc898993          	addi	s3,s3,-824 # 0x5900
    3c40:	00002d97          	auipc	s11,0x2
    3c44:	cd0d8d93          	addi	s11,s11,-816 # 0x5910
    3c48:	0200006f          	j	0x3c68
    3c4c:	121010ef          	jal	ra,0x556c
    3c50:	000d8593          	mv	a1,s11
    3c54:	00002517          	auipc	a0,0x2
    3c58:	cd450513          	addi	a0,a0,-812 # 0x5928
    3c5c:	111010ef          	jal	ra,0x556c
    3c60:	088d0d13          	addi	s10,s10,136
    3c64:	13aa8a63          	beq	s5,s10,0x3d98
    3c68:	00043603          	0x43603
    3c6c:	00843703          	0x843703
    3c70:	014d06b3          	add	a3,s10,s4
    3c74:	0306b683          	0x306b683
    3c78:	01a485b3          	add	a1,s1,s10
    3c7c:	00003797          	auipc	a5,0x3
    3c80:	dab7b223          	0xdab7b223
    3c84:	40c70733          	sub	a4,a4,a2
    3c88:	00003797          	auipc	a5,0x3
    3c8c:	d9a7b823          	0xd9a7b823
    3c90:	018d3583          	0x18d3583
    3c94:	020d3603          	0x20d3603
    3c98:	00098513          	mv	a0,s3
    3c9c:	fad768e3          	bltu	a4,a3,0x3c4c
    3ca0:	0cd010ef          	jal	ra,0x556c
    3ca4:	00093683          	0x93683
    3ca8:	00043703          	0x43703
    3cac:	0006b683          	0x6b683
    3cb0:	00770713          	addi	a4,a4,7
    3cb4:	ff877713          	andi	a4,a4,-8
    3cb8:	00003797          	auipc	a5,0x3
    3cbc:	cce7b423          	0xcce7b423
    3cc0:	000680e7          	jalr	a3
    3cc4:	0f5010ef          	jal	ra,0x55b8
    3cc8:	00093703          	0x93703
    3ccc:	00050b1b          	0x50b1b
    3cd0:	00873703          	0x873703
    3cd4:	000700e7          	jalr	a4
    3cd8:	0e1010ef          	jal	ra,0x55b8
    3cdc:	00093703          	0x93703
    3ce0:	00050b9b          	0x50b9b
    3ce4:	01073703          	0x1073703
    3ce8:	000700e7          	jalr	a4
    3cec:	00050713          	mv	a4,a0
    3cf0:	14050a63          	beqz	a0,0x3e44
    3cf4:	00177713          	andi	a4,a4,1
    3cf8:	00002517          	auipc	a0,0x2
    3cfc:	c4050513          	addi	a0,a0,-960 # 0x5938
    3d00:	00e13423          	0xe13423
    3d04:	069010ef          	jal	ra,0x556c
    3d08:	00813703          	0x813703
    3d0c:	14070263          	beqz	a4,0x3e50
    3d10:	00002517          	auipc	a0,0x2
    3d14:	c3050513          	addi	a0,a0,-976 # 0x5940
    3d18:	055010ef          	jal	ra,0x556c
    3d1c:	00813703          	0x813703
    3d20:	020b9613          	slli	a2,s7,0x20
    3d24:	020b1693          	slli	a3,s6,0x20
    3d28:	02065613          	srli	a2,a2,0x20
    3d2c:	0206d693          	srli	a3,a3,0x20
    3d30:	40d60633          	sub	a2,a2,a3
    3d34:	00ec7c33          	and	s8,s8,a4
    3d38:	02060663          	beqz	a2,0x3d64
    3d3c:	00003797          	auipc	a5,0x3
    3d40:	ce478793          	addi	a5,a5,-796 # 0x6a20
    3d44:	0007b703          	0x7b703
    3d48:	06400793          	li	a5,100
    3d4c:	01073703          	0x1073703
    3d50:	02e78733          	mul	a4,a5,a4
    3d54:	01013783          	0x1013783
    3d58:	02c75633          	divu	a2,a4,a2
    3d5c:	00c787b3          	add	a5,a5,a2
    3d60:	00f13823          	0xf13823
    3d64:	00002517          	auipc	a0,0x2
    3d68:	c6c50513          	addi	a0,a0,-916 # 0x59d0
    3d6c:	00c13423          	0xc13423
    3d70:	7fc010ef          	jal	ra,0x556c
    3d74:	00813603          	0x813603
    3d78:	ee0c84e3          	beqz	s9,0x3c60
    3d7c:	0006061b          	0x6061b
    3d80:	416b85bb          	0x416b85bb
    3d84:	00002517          	auipc	a0,0x2
    3d88:	bdc50513          	addi	a0,a0,-1060 # 0x5960
    3d8c:	088d0d13          	addi	s10,s10,136
    3d90:	7dc010ef          	jal	ra,0x556c
    3d94:	edaa9ae3          	bne	s5,s10,0x3c68
    3d98:	021010ef          	jal	ra,0x55b8
    3d9c:	0005041b          	0x5041b
    3da0:	00002517          	auipc	a0,0x2
    3da4:	bd850513          	addi	a0,a0,-1064 # 0x5978
    3da8:	7c4010ef          	jal	ra,0x556c
    3dac:	00002597          	auipc	a1,0x2
    3db0:	a9c58593          	addi	a1,a1,-1380 # 0x5848
    3db4:	0a0c0863          	beqz	s8,0x3e64
    3db8:	00002517          	auipc	a0,0x2
    3dbc:	bf850513          	addi	a0,a0,-1032 # 0x59b0
    3dc0:	7ac010ef          	jal	ra,0x556c
    3dc4:	00200793          	li	a5,2
    3dc8:	0afc8463          	beq	s9,a5,0x3e70
    3dcc:	00002517          	auipc	a0,0x2
    3dd0:	c0450513          	addi	a0,a0,-1020 # 0x59d0
    3dd4:	798010ef          	jal	ra,0x556c
    3dd8:	01813783          	0x1813783
    3ddc:	00002517          	auipc	a0,0x2
    3de0:	c3c50513          	addi	a0,a0,-964 # 0x5a18
    3de4:	40f405bb          	0x40f405bb
    3de8:	784010ef          	jal	ra,0x556c
    3dec:	08813083          	0x8813083
    3df0:	08013403          	0x8013403
    3df4:	07813483          	0x7813483
    3df8:	07013903          	0x7013903
    3dfc:	06813983          	0x6813983
    3e00:	06013a03          	0x6013a03
    3e04:	05813a83          	0x5813a83
    3e08:	05013b03          	0x5013b03
    3e0c:	04813b83          	0x4813b83
    3e10:	04013c03          	0x4013c03
    3e14:	03813c83          	0x3813c83
    3e18:	03013d03          	0x3013d03
    3e1c:	02813d83          	0x2813d83
    3e20:	00000513          	li	a0,0
    3e24:	09010113          	addi	sp,sp,144
    3e28:	00008067          	ret
    3e2c:	00002517          	auipc	a0,0x2
    3e30:	a2c50513          	addi	a0,a0,-1492 # 0x5858
    3e34:	738010ef          	jal	ra,0x556c
    3e38:	00002417          	auipc	s0,0x2
    3e3c:	a0840413          	addi	s0,s0,-1528 # 0x5840
    3e40:	d71ff06f          	j	0x3bb0
    3e44:	00002517          	auipc	a0,0x2
    3e48:	bec50513          	addi	a0,a0,-1044 # 0x5a30
    3e4c:	720010ef          	jal	ra,0x556c
    3e50:	00002517          	auipc	a0,0x2
    3e54:	b0050513          	addi	a0,a0,-1280 # 0x5950
    3e58:	714010ef          	jal	ra,0x556c
    3e5c:	00000713          	li	a4,0
    3e60:	ec1ff06f          	j	0x3d20
    3e64:	00002597          	auipc	a1,0x2
    3e68:	9ec58593          	addi	a1,a1,-1556 # 0x5850
    3e6c:	f4dff06f          	j	0x3db8
    3e70:	01013783          	0x1013783
    3e74:	00a00593          	li	a1,10
    3e78:	00002517          	auipc	a0,0x2
    3e7c:	b4850513          	addi	a0,a0,-1208 # 0x59c0
    3e80:	02b7d5b3          	divu	a1,a5,a1
    3e84:	0005859b          	0x5859b
    3e88:	6e4010ef          	jal	ra,0x556c
    3e8c:	000185b7          	lui	a1,0x18
    3e90:	00002617          	auipc	a2,0x2
    3e94:	b4860613          	addi	a2,a2,-1208 # 0x59d8
    3e98:	6a058593          	addi	a1,a1,1696 # 0x186a0
    3e9c:	00002517          	auipc	a0,0x2
    3ea0:	b5450513          	addi	a0,a0,-1196 # 0x59f0
    3ea4:	6c8010ef          	jal	ra,0x556c
    3ea8:	f31ff06f          	j	0x3dd8
    3eac:	00002597          	auipc	a1,0x2
    3eb0:	99458593          	addi	a1,a1,-1644 # 0x5840
    3eb4:	00040513          	mv	a0,s0
    3eb8:	760010ef          	jal	ra,0x5618
    3ebc:	00200c93          	li	s9,2
    3ec0:	d20500e3          	beqz	a0,0x3be0
    3ec4:	00040593          	mv	a1,s0
    3ec8:	00002517          	auipc	a0,0x2
    3ecc:	9c850513          	addi	a0,a0,-1592 # 0x5890
    3ed0:	69c010ef          	jal	ra,0x556c
    3ed4:	00100513          	li	a0,1
    3ed8:	750000ef          	jal	ra,0x4628
    3edc:	f6010113          	addi	sp,sp,-160
    3ee0:	05813823          	0x5813823
    3ee4:	08113c23          	0x8113c23
    3ee8:	08813823          	0x8813823
    3eec:	08913423          	0x8913423
    3ef0:	09213023          	0x9213023
    3ef4:	07313c23          	0x7313c23
    3ef8:	07413823          	0x7413823
    3efc:	07513423          	0x7513423
    3f00:	07613023          	0x7613023
    3f04:	05713c23          	0x5713c23
    3f08:	05913423          	0x5913423
    3f0c:	00100793          	li	a5,1
    3f10:	00f50023          	sb	a5,0(a0)
    3f14:	00050c13          	mv	s8,a0
    3f18:	000501a3          	sb	zero,3(a0)
    3f1c:	00010713          	mv	a4,sp
    3f20:	00000793          	li	a5,0
    3f24:	01000693          	li	a3,16
    3f28:	00f72023          	sw	a5,0(a4)
    3f2c:	0017879b          	0x17879b
    3f30:	00470713          	addi	a4,a4,4
    3f34:	fed79ae3          	bne	a5,a3,0x3f28
    3f38:	03c10a13          	addi	s4,sp,60
    3f3c:	000c0413          	mv	s0,s8
    3f40:	00000993          	li	s3,0
    3f44:	00000c93          	li	s9,0
    3f48:	00400913          	li	s2,4
    3f4c:	ff000a93          	li	s5,-16
    3f50:	000a0b93          	mv	s7,s4
    3f54:	00000b13          	li	s6,0
    3f58:	0109849b          	0x109849b
    3f5c:	a49fd0ef          	jal	ra,0x19a4
    3f60:	416487bb          	0x416487bb
    3f64:	02f5753b          	0x2f5753b
    3f68:	04010793          	addi	a5,sp,64
    3f6c:	000b071b          	0xb071b
    3f70:	01640833          	add	a6,s0,s6
    3f74:	00251513          	slli	a0,a0,0x2
    3f78:	00a787b3          	add	a5,a5,a0
    3f7c:	fc07a583          	lw	a1,-64(a5)
    3f80:	fff5879b          	0xfff5879b
    3f84:	41f7d69b          	0x41f7d69b
    3f88:	01e6d61b          	0x1e6d61b
    3f8c:	00f607bb          	0xf607bb
    3f90:	0037f693          	andi	a3,a5,3
    3f94:	40c686bb          	0x40c686bb
    3f98:	4027d79b          	0x4027d79b
    3f9c:	419787bb          	0x419787bb
    3fa0:	40e6873b          	0x40e6873b
    3fa4:	41f7d61b          	0x41f7d61b
    3fa8:	41f7569b          	0x41f7569b
    3fac:	00f647b3          	xor	a5,a2,a5
    3fb0:	00e6c733          	xor	a4,a3,a4
    3fb4:	40c787bb          	0x40c787bb
    3fb8:	40d7073b          	0x40d7073b
    3fbc:	00b80223          	sb	a1,4(a6) # 0x40000004
    3fc0:	00e787bb          	0xe787bb
    3fc4:	0a059463          	bnez	a1,0x406c
    3fc8:	019c00a3          	sb	s9,1(s8) # 0x10001
    3fcc:	016c0123          	sb	s6,2(s8)
    3fd0:	000ba783          	lw	a5,0(s7)
    3fd4:	04010713          	addi	a4,sp,64
    3fd8:	00a70533          	add	a0,a4,a0
    3fdc:	001b0b13          	addi	s6,s6,1
    3fe0:	fcf52023          	sw	a5,-64(a0)
    3fe4:	ffcb8b93          	addi	s7,s7,-4
    3fe8:	f72b1ae3          	bne	s6,s2,0x3f5c
    3fec:	ffc9899b          	0xffc9899b
    3ff0:	001c8c9b          	0x1c8c9b
    3ff4:	ff0a0a13          	addi	s4,s4,-16
    3ff8:	00440413          	addi	s0,s0,4
    3ffc:	f5599ae3          	bne	s3,s5,0x3f50
    4000:	000c2a23          	sw	zero,20(s8)
    4004:	004c0613          	addi	a2,s8,4
    4008:	014c0513          	addi	a0,s8,20
    400c:	00000713          	li	a4,0
    4010:	7b500593          	li	a1,1973
    4014:	ffc60793          	addi	a5,a2,-4
    4018:	02e5873b          	0x2e5873b
    401c:	00478683          	lb	a3,4(a5)
    4020:	00178793          	addi	a5,a5,1
    4024:	00d7073b          	0xd7073b
    4028:	fec798e3          	bne	a5,a2,0x4018
    402c:	00478613          	addi	a2,a5,4
    4030:	fec512e3          	bne	a0,a2,0x4014
    4034:	00ec2a23          	sw	a4,20(s8)
    4038:	09813083          	0x9813083
    403c:	09013403          	0x9013403
    4040:	08813483          	0x8813483
    4044:	08013903          	0x8013903
    4048:	07813983          	0x7813983
    404c:	07013a03          	0x7013a03
    4050:	06813a83          	0x6813a83
    4054:	06013b03          	0x6013b03
    4058:	05813b83          	0x5813b83
    405c:	05013c03          	0x5013c03
    4060:	04813c83          	0x4813c83
    4064:	0a010113          	addi	sp,sp,160
    4068:	00008067          	ret
    406c:	003c4703          	lbu	a4,3(s8)
    4070:	00e787bb          	0xe787bb
    4074:	00fc01a3          	sb	a5,3(s8)
    4078:	f59ff06f          	j	0x3fd0
    407c:	ff010113          	addi	sp,sp,-16
    4080:	00100793          	li	a5,1
    4084:	00010313          	mv	t1,sp
    4088:	00f50023          	sb	a5,0(a0)
    408c:	000501a3          	sb	zero,3(a0)
    4090:	01010e13          	addi	t3,sp,16
    4094:	00030793          	mv	a5,t1
    4098:	00078023          	sb	zero,0(a5)
    409c:	00178793          	addi	a5,a5,1
    40a0:	ffc79ce3          	bne	a5,t3,0x4098
    40a4:	00050e93          	mv	t4,a0
    40a8:	00000893          	li	a7,0
    40ac:	00100f93          	li	t6,1
    40b0:	00400f13          	li	t5,4
    40b4:	00058813          	mv	a6,a1
    40b8:	00000613          	li	a2,0
    40bc:	00082703          	lw	a4,0(a6)
    40c0:	00ce87b3          	add	a5,t4,a2
    40c4:	0006029b          	0x6029b
    40c8:	00e78223          	sb	a4,4(a5)
    40cc:	00082683          	lw	a3,0(a6)
    40d0:	fff6871b          	0xfff6871b
    40d4:	41f7579b          	0x41f7579b
    40d8:	01e7d79b          	0x1e7d79b
    40dc:	00e787bb          	0xe787bb
    40e0:	4027d79b          	0x4027d79b
    40e4:	411787bb          	0x411787bb
    40e8:	41f7d71b          	0x41f7d71b
    40ec:	00f747b3          	xor	a5,a4,a5
    40f0:	40e787bb          	0x40e787bb
    40f4:	01010713          	addi	a4,sp,16
    40f8:	00d70733          	add	a4,a4,a3
    40fc:	fff70823          	sb	t6,-16(a4)
    4100:	06069c63          	bnez	a3,0x4178
    4104:	011500a3          	sb	a7,1(a0)
    4108:	00c50123          	sb	a2,2(a0)
    410c:	00160613          	addi	a2,a2,1
    4110:	00480813          	addi	a6,a6,4
    4114:	fbe614e3          	bne	a2,t5,0x40bc
    4118:	0018889b          	0x18889b
    411c:	01058593          	addi	a1,a1,16
    4120:	004e8e93          	addi	t4,t4,4
    4124:	f9e898e3          	bne	a7,t5,0x40b4
    4128:	00034783          	lbu	a5,0(t1)
    412c:	00130313          	addi	t1,t1,1
    4130:	08078863          	beqz	a5,0x41c0
    4134:	ffc31ae3          	bne	t1,t3,0x4128
    4138:	00052a23          	sw	zero,20(a0)
    413c:	00450613          	addi	a2,a0,4
    4140:	01450813          	addi	a6,a0,20
    4144:	00000713          	li	a4,0
    4148:	7b500593          	li	a1,1973
    414c:	ffc60793          	addi	a5,a2,-4
    4150:	02e5873b          	0x2e5873b
    4154:	00478683          	lb	a3,4(a5)
    4158:	00178793          	addi	a5,a5,1
    415c:	00d7073b          	0xd7073b
    4160:	fec798e3          	bne	a5,a2,0x4150
    4164:	00478613          	addi	a2,a5,4
    4168:	fec812e3          	bne	a6,a2,0x414c
    416c:	00e52a23          	sw	a4,20(a0)
    4170:	01010113          	addi	sp,sp,16
    4174:	00008067          	ret
    4178:	00354703          	lbu	a4,3(a0)
    417c:	00e787bb          	0xe787bb
    4180:	0ff7f793          	andi	a5,a5,255
    4184:	00f501a3          	sb	a5,3(a0)
    4188:	00082683          	lw	a3,0(a6)
    418c:	fff6869b          	0xfff6869b
    4190:	41f6d71b          	0x41f6d71b
    4194:	01e7539b          	0x1e7539b
    4198:	0076873b          	0x76873b
    419c:	00377713          	andi	a4,a4,3
    41a0:	4077073b          	0x4077073b
    41a4:	4057073b          	0x4057073b
    41a8:	41f7569b          	0x41f7569b
    41ac:	00e6c733          	xor	a4,a3,a4
    41b0:	40d7073b          	0x40d7073b
    41b4:	00f707bb          	0xf707bb
    41b8:	00f501a3          	sb	a5,3(a0)
    41bc:	f51ff06f          	j	0x410c
    41c0:	00050023          	sb	zero,0(a0)
    41c4:	01010113          	addi	sp,sp,16
    41c8:	00008067          	ret
    41cc:	00054703          	lbu	a4,0(a0)
    41d0:	04070463          	beqz	a4,0x4218
    41d4:	0005c703          	lbu	a4,0(a1)
    41d8:	04070063          	beqz	a4,0x4218
    41dc:	0145a683          	lw	a3,20(a1)
    41e0:	01452783          	lw	a5,20(a0)
    41e4:	02f69e63          	bne	a3,a5,0x4220
    41e8:	00800693          	li	a3,8
    41ec:	01800893          	li	a7,24
    41f0:	ffc68793          	addi	a5,a3,-4
    41f4:	00f50833          	add	a6,a0,a5
    41f8:	00f58633          	add	a2,a1,a5
    41fc:	00084803          	lbu	a6,0(a6)
    4200:	00064603          	lbu	a2,0(a2)
    4204:	00178793          	addi	a5,a5,1
    4208:	00c81c63          	bne	a6,a2,0x4220
    420c:	fed794e3          	bne	a5,a3,0x41f4
    4210:	00468693          	addi	a3,a3,4
    4214:	fd169ee3          	bne	a3,a7,0x41f0
    4218:	00070513          	mv	a0,a4
    421c:	00008067          	ret
    4220:	00000713          	li	a4,0
    4224:	00070513          	mv	a0,a4
    4228:	00008067          	ret
    422c:	00100793          	li	a5,1
    4230:	08f58e63          	beq	a1,a5,0x42cc
    4234:	01f5d71b          	0x1f5d71b
    4238:	01053783          	0x1053783
    423c:	00b7073b          	0xb7073b
    4240:	4017571b          	0x4017571b
    4244:	00371613          	slli	a2,a4,0x3
    4248:	00359813          	slli	a6,a1,0x3
    424c:	00c78633          	add	a2,a5,a2
    4250:	010787b3          	add	a5,a5,a6
    4254:	00063883          	0x63883
    4258:	0007b683          	0x7b683
    425c:	00100e93          	li	t4,1
    4260:	0288ae03          	lw	t3,40(a7) # 0x10028
    4264:	0286a303          	lw	t1,40(a3)
    4268:	03c34863          	blt	t1,t3,0x4298
    426c:	0640006f          	j	0x42d0
    4270:	01053683          	0x1053683
    4274:	00070593          	mv	a1,a4
    4278:	00078713          	mv	a4,a5
    427c:	00c68633          	add	a2,a3,a2
    4280:	010687b3          	add	a5,a3,a6
    4284:	00063883          	0x63883
    4288:	0007b683          	0x7b683
    428c:	0288ae03          	lw	t3,40(a7)
    4290:	0286a303          	lw	t1,40(a3)
    4294:	03c35c63          	bge	t1,t3,0x42cc
    4298:	0117b023          	0x117b023
    429c:	00d63023          	0xd63023
    42a0:	02e6a023          	sw	a4,32(a3)
    42a4:	01053683          	0x1053683
    42a8:	01f7579b          	0x1f7579b
    42ac:	00e787bb          	0xe787bb
    42b0:	010686b3          	add	a3,a3,a6
    42b4:	0006b683          	0x6b683
    42b8:	4017d79b          	0x4017d79b
    42bc:	00379613          	slli	a2,a5,0x3
    42c0:	02b6a023          	sw	a1,32(a3)
    42c4:	00371813          	slli	a6,a4,0x3
    42c8:	fbd714e3          	bne	a4,t4,0x4270
    42cc:	00008067          	ret
    42d0:	00008067          	ret
    42d4:	fd010113          	addi	sp,sp,-48
    42d8:	01313423          	0x1313423
    42dc:	00052983          	lw	s3,0(a0)
    42e0:	00913c23          	0x913c23
    42e4:	00058493          	mv	s1,a1
    42e8:	00853583          	0x853583
    42ec:	02813023          	0x2813023
    42f0:	01213823          	0x1213823
    42f4:	00050413          	mv	s0,a0
    42f8:	00060913          	mv	s2,a2
    42fc:	00098513          	mv	a0,s3
    4300:	00048613          	mv	a2,s1
    4304:	02113423          	0x2113423
    4308:	be1fe0ef          	jal	ra,0x2ee8
    430c:	04050263          	beqz	a0,0x4350
    4310:	02c54783          	lbu	a5,44(a0)
    4314:	02079063          	bnez	a5,0x4334
    4318:	00054703          	lbu	a4,0(a0)
    431c:	04000793          	li	a5,64
    4320:	00070463          	beqz	a4,0x4328
    4324:	00350783          	lb	a5,3(a0)
    4328:	02852703          	lw	a4,40(a0)
    432c:	00f907bb          	0xf907bb
    4330:	16e7cc63          	blt	a5,a4,0x44a8
    4334:	02813083          	0x2813083
    4338:	02013403          	0x2013403
    433c:	01813483          	0x1813483
    4340:	01013903          	0x1013903
    4344:	00813983          	0x813983
    4348:	03010113          	addi	sp,sp,48
    434c:	00008067          	ret
    4350:	01842783          	lw	a5,24(s0)
    4354:	1af9c263          	blt	s3,a5,0x44f8
    4358:	0017879b          	0x17879b
    435c:	00f42c23          	sw	a5,24(s0)
    4360:	03800513          	li	a0,56
    4364:	d80fd0ef          	jal	ra,0x18e4
    4368:	0004c803          	lbu	a6,0(s1)
    436c:	00843683          	0x843683
    4370:	00000713          	li	a4,0
    4374:	12081663          	bnez	a6,0x44a0
    4378:	00042603          	lw	a2,0(s0)
    437c:	01842883          	lw	a7,24(s0)
    4380:	00448793          	addi	a5,s1,4
    4384:	fff6061b          	0xfff6061b
    4388:	00c77733          	and	a4,a4,a2
    438c:	02071713          	slli	a4,a4,0x20
    4390:	01d75713          	srli	a4,a4,0x1d
    4394:	00e68733          	add	a4,a3,a4
    4398:	00073303          	0x73303
    439c:	01050023          	sb	a6,0(a0)
    43a0:	0014c683          	lbu	a3,1(s1)
    43a4:	00450713          	addi	a4,a0,4
    43a8:	01448593          	addi	a1,s1,20
    43ac:	00d500a3          	sb	a3,1(a0)
    43b0:	0024c683          	lbu	a3,2(s1)
    43b4:	00d50123          	sb	a3,2(a0)
    43b8:	00348603          	lb	a2,3(s1)
    43bc:	00c501a3          	sb	a2,3(a0)
    43c0:	0144a683          	lw	a3,20(s1)
    43c4:	00d52a23          	sw	a3,20(a0)
    43c8:	00078683          	lb	a3,0(a5)
    43cc:	00470713          	addi	a4,a4,4
    43d0:	00478793          	addi	a5,a5,4
    43d4:	fed70e23          	sb	a3,-4(a4)
    43d8:	ffd78683          	lb	a3,-3(a5)
    43dc:	fed70ea3          	sb	a3,-3(a4)
    43e0:	ffe78683          	lb	a3,-2(a5)
    43e4:	fed70f23          	sb	a3,-2(a4)
    43e8:	fff78683          	lb	a3,-1(a5)
    43ec:	fed70fa3          	sb	a3,-1(a4)
    43f0:	fcf59ce3          	bne	a1,a5,0x43c8
    43f4:	00653c23          	0x653c23
    43f8:	03152023          	sw	a7,32(a0)
    43fc:	03252223          	sw	s2,36(a0)
    4400:	0c080863          	beqz	a6,0x44d0
    4404:	0126093b          	0x126093b
    4408:	03252423          	sw	s2,40(a0)
    440c:	02050623          	sb	zero,44(a0)
    4410:	02053823          	0x2053823
    4414:	0004c703          	lbu	a4,0(s1)
    4418:	00843683          	0x843683
    441c:	00000793          	li	a5,0
    4420:	00070463          	beqz	a4,0x4428
    4424:	0144a783          	lw	a5,20(s1)
    4428:	00042603          	lw	a2,0(s0)
    442c:	01842583          	lw	a1,24(s0)
    4430:	01043703          	0x1043703
    4434:	fff6061b          	0xfff6061b
    4438:	00c7f7b3          	and	a5,a5,a2
    443c:	02079793          	slli	a5,a5,0x20
    4440:	01d7d793          	srli	a5,a5,0x1d
    4444:	00f687b3          	add	a5,a3,a5
    4448:	00359693          	slli	a3,a1,0x3
    444c:	00a7b023          	0xa7b023
    4450:	00d707b3          	add	a5,a4,a3
    4454:	00a7b023          	0xa7b023
    4458:	00040513          	mv	a0,s0
    445c:	dd1ff0ef          	jal	ra,0x422c
    4460:	01842703          	lw	a4,24(s0)
    4464:	01c42783          	lw	a5,28(s0)
    4468:	0007069b          	0x7069b
    446c:	0007861b          	0x7861b
    4470:	02d64263          	blt	a2,a3,0x4494
    4474:	00f42e23          	sw	a5,28(s0)
    4478:	02813083          	0x2813083
    447c:	02013403          	0x2013403
    4480:	01813483          	0x1813483
    4484:	01013903          	0x1013903
    4488:	00813983          	0x813983
    448c:	03010113          	addi	sp,sp,48
    4490:	00008067          	ret
    4494:	00070793          	mv	a5,a4
    4498:	00f42e23          	sw	a5,28(s0)
    449c:	fddff06f          	j	0x4478
    44a0:	0144a703          	lw	a4,20(s1)
    44a4:	ed5ff06f          	j	0x4378
    44a8:	02f52423          	sw	a5,40(a0)
    44ac:	02052583          	lw	a1,32(a0)
    44b0:	00040513          	mv	a0,s0
    44b4:	02013403          	0x2013403
    44b8:	02813083          	0x2813083
    44bc:	01813483          	0x1813483
    44c0:	01013903          	0x1013903
    44c4:	00813983          	0x813983
    44c8:	03010113          	addi	sp,sp,48
    44cc:	d61ff06f          	j	0x422c
    44d0:	04000613          	li	a2,64
    44d4:	0126093b          	0x126093b
    44d8:	03252423          	sw	s2,40(a0)
    44dc:	02050623          	sb	zero,44(a0)
    44e0:	02053823          	0x2053823
    44e4:	0004c703          	lbu	a4,0(s1)
    44e8:	00843683          	0x843683
    44ec:	00000793          	li	a5,0
    44f0:	f2070ce3          	beqz	a4,0x4428
    44f4:	f31ff06f          	j	0x4424
    44f8:	09800613          	li	a2,152
    44fc:	00002597          	auipc	a1,0x2
    4500:	96458593          	addi	a1,a1,-1692 # 0x5e60
    4504:	00001517          	auipc	a0,0x1
    4508:	56c50513          	addi	a0,a0,1388 # 0x5a70
    450c:	060010ef          	jal	ra,0x556c
    4510:	00100513          	li	a0,1
    4514:	114000ef          	jal	ra,0x4628
    4518:	ff010113          	addi	sp,sp,-16
    451c:	00813423          	0x813423
    4520:	00100593          	li	a1,1
    4524:	01852803          	lw	a6,24(a0)
    4528:	0015969b          	0x15969b
    452c:	00168f1b          	0x168f1b
    4530:	00168793          	addi	a5,a3,1
    4534:	00359713          	slli	a4,a1,0x3
    4538:	000f0e93          	mv	t4,t5
    453c:	003f1f93          	slli	t6,t5,0x3
    4540:	00379613          	slli	a2,a5,0x3
    4544:	0906d663          	bge	a3,a6,0x45d0
    4548:	01053783          	0x1053783
    454c:	00369413          	slli	s0,a3,0x3
    4550:	00e78833          	add	a6,a5,a4
    4554:	00e80733          	add	a4,a6,a4
    4558:	00083303          	0x83303
    455c:	00073e03          	0x73e03
    4560:	01f783b3          	add	t2,a5,t6
    4564:	00c787b3          	add	a5,a5,a2
    4568:	0007b283          	0x7b283
    456c:	02832603          	lw	a2,40(t1)
    4570:	028e2783          	lw	a5,40(t3)
    4574:	0282a283          	lw	t0,40(t0)
    4578:	02f65863          	bge	a2,a5,0x45a8
    457c:	08564e63          	blt	a2,t0,0x4618
    4580:	0003b783          	0x3b783
    4584:	0063b023          	0x63b023
    4588:	00f83023          	0xf83023
    458c:	02b7a023          	sw	a1,32(a5)
    4590:	01053783          	0x1053783
    4594:	000f0593          	mv	a1,t5
    4598:	01f78fb3          	add	t6,a5,t6
    459c:	000fb783          	0xfb783
    45a0:	03d7a023          	sw	t4,32(a5)
    45a4:	f81ff06f          	j	0x4524
    45a8:	fc57dce3          	bge	a5,t0,0x4580
    45ac:	00673023          	0x673023
    45b0:	01c83023          	0x1c83023
    45b4:	02be2023          	sw	a1,32(t3)
    45b8:	01053783          	0x1053783
    45bc:	00068593          	mv	a1,a3
    45c0:	008787b3          	add	a5,a5,s0
    45c4:	0007b783          	0x7b783
    45c8:	02d7a023          	sw	a3,32(a5)
    45cc:	f59ff06f          	j	0x4524
    45d0:	05069463          	bne	a3,a6,0x4618
    45d4:	01053783          	0x1053783
    45d8:	00359713          	slli	a4,a1,0x3
    45dc:	00369613          	slli	a2,a3,0x3
    45e0:	00c78833          	add	a6,a5,a2
    45e4:	00e787b3          	add	a5,a5,a4
    45e8:	0007b883          	0x7b883
    45ec:	00083703          	0x83703
    45f0:	0288a303          	lw	t1,40(a7)
    45f4:	02872e03          	lw	t3,40(a4)
    45f8:	026e5063          	bge	t3,t1,0x4618
    45fc:	01183023          	0x1183023
    4600:	00e7b023          	0xe7b023
    4604:	02b72023          	sw	a1,32(a4)
    4608:	01053783          	0x1053783
    460c:	00c78633          	add	a2,a5,a2
    4610:	00063783          	0x63783
    4614:	02d7a023          	sw	a3,32(a5)
    4618:	00813403          	0x813403
    461c:	01010113          	addi	sp,sp,16
    4620:	00008067          	ret
    4624:	0540006f          	j	0x4678
    4628:	ff010113          	addi	sp,sp,-16
    462c:	00113423          	0x113423
    4630:	00050593          	mv	a1,a0
    4634:	00050513          	mv	a0,a0
    4638:	0005006b          	0x5006b
    463c:	00002517          	auipc	a0,0x2
    4640:	8a450513          	addi	a0,a0,-1884 # 0x5ee0
    4644:	729000ef          	jal	ra,0x556c
    4648:	0000006f          	j	0x4648
    464c:	ff010113          	addi	sp,sp,-16
    4650:	00113423          	0x113423
    4654:	014000ef          	jal	ra,0x4668
    4658:	00002517          	auipc	a0,0x2
    465c:	89d50513          	addi	a0,a0,-1891 # 0x5ef5
    4660:	d00ff0ef          	jal	ra,0x3b60
    4664:	fc5ff0ef          	jal	ra,0x4628
    4668:	406007b7          	lui	a5,0x40600
    466c:	00300713          	li	a4,3
    4670:	00e78623          	sb	a4,12(a5) # 0x4060000c
    4674:	00008067          	ret
    4678:	ff010113          	addi	sp,sp,-16
    467c:	00813023          	0x813023
    4680:	00113423          	0x113423
    4684:	00a00793          	li	a5,10
    4688:	00050413          	mv	s0,a0
    468c:	02f50463          	beq	a0,a5,0x46b4
    4690:	40600737          	lui	a4,0x40600
    4694:	00874783          	lbu	a5,8(a4) # 0x40600008
    4698:	0087f793          	andi	a5,a5,8
    469c:	fe079ce3          	bnez	a5,0x4694
    46a0:	00870223          	sb	s0,4(a4)
    46a4:	00813083          	0x813083
    46a8:	00013403          	0x13403
    46ac:	01010113          	addi	sp,sp,16
    46b0:	00008067          	ret
    46b4:	00d00513          	li	a0,13
    46b8:	fc1ff0ef          	jal	ra,0x4678
    46bc:	fd5ff06f          	j	0x4690
    46c0:	40600737          	lui	a4,0x40600
    46c4:	00874783          	lbu	a5,8(a4) # 0x40600008
    46c8:	00000513          	li	a0,0
    46cc:	0017f793          	andi	a5,a5,1
    46d0:	00079463          	bnez	a5,0x46d8
    46d4:	00008067          	ret
    46d8:	00074503          	lbu	a0,0(a4)
    46dc:	00008067          	ret
    46e0:	ff010113          	addi	sp,sp,-16
    46e4:	00113423          	0x113423
    46e8:	428000ef          	jal	ra,0x4b10
    46ec:	388000ef          	jal	ra,0x4a74
    46f0:	44c000ef          	jal	ra,0x4b3c
    46f4:	00813083          	0x813083
    46f8:	00000513          	li	a0,0
    46fc:	01010113          	addi	sp,sp,16
    4700:	00008067          	ret
    4704:	0000b7b7          	lui	a5,0xb
    4708:	c0378713          	addi	a4,a5,-1021 # 0xac03
    470c:	00058813          	mv	a6,a1
    4710:	00060593          	mv	a1,a2
    4714:	02e50c63          	beq	a0,a4,0x474c
    4718:	02a77063          	bgeu	a4,a0,0x4738
    471c:	c0478713          	addi	a4,a5,-1020
    4720:	02e50c63          	beq	a0,a4,0x4758
    4724:	c0778793          	addi	a5,a5,-1017
    4728:	02f51e63          	bne	a0,a5,0x4764
    472c:	00068613          	mv	a2,a3
    4730:	00080513          	mv	a0,a6
    4734:	40c0006f          	j	0x4b40
    4738:	c0278793          	addi	a5,a5,-1022
    473c:	02f51463          	bne	a0,a5,0x4764
    4740:	00068613          	mv	a2,a3
    4744:	00080513          	mv	a0,a6
    4748:	0240006f          	j	0x476c
    474c:	00068613          	mv	a2,a3
    4750:	00080513          	mv	a0,a6
    4754:	2440006f          	j	0x4998
    4758:	00068613          	mv	a2,a3
    475c:	00080513          	mv	a0,a6
    4760:	3380006f          	j	0x4a98
    4764:	00000513          	li	a0,0
    4768:	00008067          	ret
    476c:	00100793          	li	a5,1
    4770:	00f50663          	beq	a0,a5,0x477c
    4774:	00000513          	li	a0,0
    4778:	00008067          	ret
    477c:	00002797          	auipc	a5,0x2
    4780:	28078793          	addi	a5,a5,640 # 0x69fc
    4784:	fe010113          	addi	sp,sp,-32
    4788:	0007a783          	lw	a5,0(a5)
    478c:	00813823          	0x813823
    4790:	00913423          	0x913423
    4794:	00113c23          	0x113c23
    4798:	01213023          	0x1213023
    479c:	00058023          	sb	zero,0(a1)
    47a0:	000580a3          	sb	zero,1(a1)
    47a4:	00058123          	sb	zero,2(a1)
    47a8:	000581a3          	sb	zero,3(a1)
    47ac:	00058223          	sb	zero,4(a1)
    47b0:	000582a3          	sb	zero,5(a1)
    47b4:	00058323          	sb	zero,6(a1)
    47b8:	000583a3          	sb	zero,7(a1)
    47bc:	00058413          	mv	s0,a1
    47c0:	00050493          	mv	s1,a0
    47c4:	12079a63          	bnez	a5,0x48f8
    47c8:	ef9ff0ef          	jal	ra,0x46c0
    47cc:	0ff00793          	li	a5,255
    47d0:	08f50063          	beq	a0,a5,0x4850
    47d4:	0005079b          	0x5079b
    47d8:	07f00713          	li	a4,127
    47dc:	18f76e63          	bltu	a4,a5,0x4978
    47e0:	00001797          	auipc	a5,0x1
    47e4:	75878793          	addi	a5,a5,1880 # 0x5f38
    47e8:	00251513          	slli	a0,a0,0x2
    47ec:	00a78533          	add	a0,a5,a0
    47f0:	00052783          	lw	a5,0(a0)
    47f4:	00002917          	auipc	s2,0x2
    47f8:	20490913          	addi	s2,s2,516 # 0x69f8
    47fc:	00092703          	lw	a4,0(s2)
    4800:	04078e63          	beqz	a5,0x485c
    4804:	08070e63          	beqz	a4,0x48a0
    4808:	08e78c63          	beq	a5,a4,0x48a0
    480c:	0087559b          	0x87559b
    4810:	0107561b          	0x107561b
    4814:	0187569b          	0x187569b
    4818:	00e40223          	sb	a4,4(s0)
    481c:	00040023          	sb	zero,0(s0)
    4820:	00002717          	auipc	a4,0x2
    4824:	1cf72c23          	sw	a5,472(a4) # 0x69f8
    4828:	000400a3          	sb	zero,1(s0)
    482c:	00040123          	sb	zero,2(s0)
    4830:	000401a3          	sb	zero,3(s0)
    4834:	00b402a3          	sb	a1,5(s0)
    4838:	00c40323          	sb	a2,6(s0)
    483c:	00d403a3          	sb	a3,7(s0)
    4840:	00002797          	auipc	a5,0x2
    4844:	1a97ae23          	sw	s1,444(a5) # 0x69fc
    4848:	00800513          	li	a0,8
    484c:	03c0006f          	j	0x4888
    4850:	00002917          	auipc	s2,0x2
    4854:	1a890913          	addi	s2,s2,424 # 0x69f8
    4858:	00092703          	lw	a4,0(s2)
    485c:	02070463          	beqz	a4,0x4884
    4860:	559000ef          	jal	ra,0x55b8
    4864:	00002797          	auipc	a5,0x2
    4868:	19c78793          	addi	a5,a5,412 # 0x6a00
    486c:	0007b703          	0x7b703
    4870:	02051513          	slli	a0,a0,0x20
    4874:	02055513          	srli	a0,a0,0x20
    4878:	1f400793          	li	a5,500
    487c:	40e50533          	sub	a0,a0,a4
    4880:	0aa7e863          	bltu	a5,a0,0x4930
    4884:	00800513          	li	a0,8
    4888:	01813083          	0x1813083
    488c:	01013403          	0x1013403
    4890:	00813483          	0x813483
    4894:	00013903          	0x13903
    4898:	02010113          	addi	sp,sp,32
    489c:	00008067          	ret
    48a0:	0187d71b          	0x187d71b
    48a4:	0087d61b          	0x87d61b
    48a8:	0107d69b          	0x107d69b
    48ac:	00100593          	li	a1,1
    48b0:	00e403a3          	sb	a4,7(s0)
    48b4:	00b40023          	sb	a1,0(s0)
    48b8:	000400a3          	sb	zero,1(s0)
    48bc:	00040123          	sb	zero,2(s0)
    48c0:	000401a3          	sb	zero,3(s0)
    48c4:	00f40223          	sb	a5,4(s0)
    48c8:	00c402a3          	sb	a2,5(s0)
    48cc:	00d40323          	sb	a3,6(s0)
    48d0:	00002717          	auipc	a4,0x2
    48d4:	12f72423          	sw	a5,296(a4) # 0x69f8
    48d8:	00002797          	auipc	a5,0x2
    48dc:	1207a223          	sw	zero,292(a5) # 0x69fc
    48e0:	4d9000ef          	jal	ra,0x55b8
    48e4:	02051513          	slli	a0,a0,0x20
    48e8:	02055513          	srli	a0,a0,0x20
    48ec:	00002797          	auipc	a5,0x2
    48f0:	10a7ba23          	0x10a7ba23
    48f4:	f91ff06f          	j	0x4884
    48f8:	00002797          	auipc	a5,0x2
    48fc:	10078793          	addi	a5,a5,256 # 0x69f8
    4900:	0007a783          	lw	a5,0(a5)
    4904:	00a40023          	sb	a0,0(s0)
    4908:	00002617          	auipc	a2,0x2
    490c:	0f064603          	lbu	a2,240(a2) # 0x69f8
    4910:	0087d69b          	0x87d69b
    4914:	0107d71b          	0x107d71b
    4918:	0187d79b          	0x187d79b
    491c:	00c58223          	sb	a2,4(a1)
    4920:	00d582a3          	sb	a3,5(a1)
    4924:	00e58323          	sb	a4,6(a1)
    4928:	00f583a3          	sb	a5,7(a1)
    492c:	fadff06f          	j	0x48d8
    4930:	00092783          	lw	a5,0(s2)
    4934:	00002617          	auipc	a2,0x2
    4938:	0c464603          	lbu	a2,196(a2) # 0x69f8
    493c:	00040023          	sb	zero,0(s0)
    4940:	0087d69b          	0x87d69b
    4944:	0107d71b          	0x107d71b
    4948:	0187d79b          	0x187d79b
    494c:	00f403a3          	sb	a5,7(s0)
    4950:	000400a3          	sb	zero,1(s0)
    4954:	00040123          	sb	zero,2(s0)
    4958:	000401a3          	sb	zero,3(s0)
    495c:	00c40223          	sb	a2,4(s0)
    4960:	00d402a3          	sb	a3,5(s0)
    4964:	00e40323          	sb	a4,6(s0)
    4968:	00002797          	auipc	a5,0x2
    496c:	0807a823          	sw	zero,144(a5) # 0x69f8
    4970:	00800513          	li	a0,8
    4974:	f15ff06f          	j	0x4888
    4978:	02c00613          	li	a2,44
    497c:	00001597          	auipc	a1,0x1
    4980:	58458593          	addi	a1,a1,1412 # 0x5f00
    4984:	00001517          	auipc	a0,0x1
    4988:	0ec50513          	addi	a0,a0,236 # 0x5a70
    498c:	3e1000ef          	jal	ra,0x556c
    4990:	00100513          	li	a0,1
    4994:	c95ff0ef          	jal	ra,0x4628
    4998:	00100793          	li	a5,1
    499c:	08f50263          	beq	a0,a5,0x4a20
    49a0:	00200793          	li	a5,2
    49a4:	06f51a63          	bne	a0,a5,0x4a18
    49a8:	fe200793          	li	a5,-30
    49ac:	00f58023          	sb	a5,0(a1)
    49b0:	00700793          	li	a5,7
    49b4:	00058a23          	sb	zero,20(a1)
    49b8:	00058aa3          	sb	zero,21(a1)
    49bc:	00058b23          	sb	zero,22(a1)
    49c0:	00058ba3          	sb	zero,23(a1)
    49c4:	00058823          	sb	zero,16(a1)
    49c8:	000588a3          	sb	zero,17(a1)
    49cc:	00058923          	sb	zero,18(a1)
    49d0:	000589a3          	sb	zero,19(a1)
    49d4:	00058623          	sb	zero,12(a1)
    49d8:	000586a3          	sb	zero,13(a1)
    49dc:	00058723          	sb	zero,14(a1)
    49e0:	000587a3          	sb	zero,15(a1)
    49e4:	00058423          	sb	zero,8(a1)
    49e8:	000584a3          	sb	zero,9(a1)
    49ec:	00058523          	sb	zero,10(a1)
    49f0:	000585a3          	sb	zero,11(a1)
    49f4:	00058223          	sb	zero,4(a1)
    49f8:	000582a3          	sb	zero,5(a1)
    49fc:	00058323          	sb	zero,6(a1)
    4a00:	000583a3          	sb	zero,7(a1)
    4a04:	00f580a3          	sb	a5,1(a1)
    4a08:	00058123          	sb	zero,2(a1)
    4a0c:	000581a3          	sb	zero,3(a1)
    4a10:	01800513          	li	a0,24
    4a14:	00008067          	ret
    4a18:	00000513          	li	a0,0
    4a1c:	00008067          	ret
    4a20:	3800c7b7          	lui	a5,0x3800c
    4a24:	ff87b783          	0xff87b783
    4a28:	3e800713          	li	a4,1000
    4a2c:	00058023          	sb	zero,0(a1)
    4a30:	02e7d7b3          	divu	a5,a5,a4
    4a34:	00002717          	auipc	a4,0x2
    4a38:	fd470713          	addi	a4,a4,-44 # 0x6a08
    4a3c:	00073703          	0x73703
    4a40:	000580a3          	sb	zero,1(a1)
    4a44:	00058123          	sb	zero,2(a1)
    4a48:	000581a3          	sb	zero,3(a1)
    4a4c:	00800513          	li	a0,8
    4a50:	40e787bb          	0x40e787bb
    4a54:	0087d61b          	0x87d61b
    4a58:	0107d69b          	0x107d69b
    4a5c:	0187d71b          	0x187d71b
    4a60:	00f58223          	sb	a5,4(a1)
    4a64:	00c582a3          	sb	a2,5(a1)
    4a68:	00d58323          	sb	a3,6(a1)
    4a6c:	00e583a3          	sb	a4,7(a1)
    4a70:	00008067          	ret
    4a74:	3800c7b7          	lui	a5,0x3800c
    4a78:	ff87b783          	0xff87b783
    4a7c:	3e800713          	li	a4,1000
    4a80:	02e7d7b3          	divu	a5,a5,a4
    4a84:	02079793          	slli	a5,a5,0x20
    4a88:	0207d793          	srli	a5,a5,0x20
    4a8c:	00002717          	auipc	a4,0x2
    4a90:	f6f73e23          	0xf6f73e23
    4a94:	00008067          	ret
    4a98:	00100793          	li	a5,1
    4a9c:	00f50663          	beq	a0,a5,0x4aa8
    4aa0:	00000513          	li	a0,0
    4aa4:	00008067          	ret
    4aa8:	00002797          	auipc	a5,0x2
    4aac:	f6c78793          	addi	a5,a5,-148 # 0x6a14
    4ab0:	0007a703          	lw	a4,0(a5)
    4ab4:	00002797          	auipc	a5,0x2
    4ab8:	f5c78793          	addi	a5,a5,-164 # 0x6a10
    4abc:	0007a783          	lw	a5,0(a5)
    4ac0:	0087589b          	0x87589b
    4ac4:	0107581b          	0x107581b
    4ac8:	00002517          	auipc	a0,0x2
    4acc:	f4854503          	lbu	a0,-184(a0) # 0x6a10
    4ad0:	0087d61b          	0x87d61b
    4ad4:	0107d69b          	0x107d69b
    4ad8:	00002317          	auipc	t1,0x2
    4adc:	f3c34303          	lbu	t1,-196(t1) # 0x6a14
    4ae0:	0187571b          	0x187571b
    4ae4:	0187d79b          	0x187d79b
    4ae8:	00a58223          	sb	a0,4(a1)
    4aec:	00658023          	sb	t1,0(a1)
    4af0:	011580a3          	sb	a7,1(a1)
    4af4:	01058123          	sb	a6,2(a1)
    4af8:	00e581a3          	sb	a4,3(a1)
    4afc:	00c582a3          	sb	a2,5(a1)
    4b00:	00d58323          	sb	a3,6(a1)
    4b04:	00f583a3          	sb	a5,7(a1)
    4b08:	00800513          	li	a0,8
    4b0c:	00008067          	ret
    4b10:	400017b7          	lui	a5,0x40001
    4b14:	0007a783          	lw	a5,0(a5) # 0x40001000
    4b18:	0007879b          	0x7879b
    4b1c:	0107d71b          	0x107d71b
    4b20:	03079793          	slli	a5,a5,0x30
    4b24:	0307d793          	srli	a5,a5,0x30
    4b28:	00002697          	auipc	a3,0x2
    4b2c:	eee6a623          	sw	a4,-276(a3) # 0x6a14
    4b30:	00002717          	auipc	a4,0x2
    4b34:	eef72023          	sw	a5,-288(a4) # 0x6a10
    4b38:	00008067          	ret
    4b3c:	00008067          	ret
    4b40:	00000513          	li	a0,0
    4b44:	00008067          	ret
    4b48:	08058c63          	beqz	a1,0x4be0
    4b4c:	fd010113          	addi	sp,sp,-48
    4b50:	02813023          	0x2813023
    4b54:	00913c23          	0x913c23
    4b58:	01213823          	0x1213823
    4b5c:	01313423          	0x1313423
    4b60:	02113423          	0x2113423
    4b64:	fff5849b          	0xfff5849b
    4b68:	00060413          	mv	s0,a2
    4b6c:	00050993          	mv	s3,a0
    4b70:	fff00913          	li	s2,-1
    4b74:	0280006f          	j	0x4b9c
    4b78:	01843703          	0x1843703
    4b7c:	00e78663          	beq	a5,a4,0x4b88
    4b80:	00d43823          	0xd43823
    4b84:	01378023          	sb	s3,0(a5)
    4b88:	02043783          	0x2043783
    4b8c:	fff4849b          	0xfff4849b
    4b90:	00178793          	addi	a5,a5,1
    4b94:	02f43023          	0x2f43023
    4b98:	03248663          	beq	s1,s2,0x4bc4
    4b9c:	01043783          	0x1043783
    4ba0:	00178693          	addi	a3,a5,1
    4ba4:	fc079ae3          	bnez	a5,0x4b78
    4ba8:	00098513          	mv	a0,s3
    4bac:	a79ff0ef          	jal	ra,0x4624
    4bb0:	02043783          	0x2043783
    4bb4:	fff4849b          	0xfff4849b
    4bb8:	00178793          	addi	a5,a5,1
    4bbc:	02f43023          	0x2f43023
    4bc0:	fd249ee3          	bne	s1,s2,0x4b9c
    4bc4:	02813083          	0x2813083
    4bc8:	02013403          	0x2013403
    4bcc:	01813483          	0x1813483
    4bd0:	01013903          	0x1013903
    4bd4:	00813983          	0x813983
    4bd8:	03010113          	addi	sp,sp,48
    4bdc:	00008067          	ret
    4be0:	00008067          	ret
    4be4:	f1010113          	addi	sp,sp,-240
    4be8:	0e813023          	0xe813023
    4bec:	0d413023          	0xd413023
    4bf0:	0e113423          	0xe113423
    4bf4:	0c913c23          	0xc913c23
    4bf8:	0d213823          	0xd213823
    4bfc:	0d313423          	0xd313423
    4c00:	0b513c23          	0xb513c23
    4c04:	0b613823          	0xb613823
    4c08:	0b713423          	0xb713423
    4c0c:	0b813023          	0xb813023
    4c10:	09913c23          	0x9913c23
    4c14:	09a13823          	0x9a13823
    4c18:	09b13423          	0x9b13423
    4c1c:	00013c23          	0x13c23
    4c20:	02013023          	0x2013023
    4c24:	02013c23          	0x2013c23
    4c28:	02a13423          	0x2a13423
    4c2c:	00060413          	mv	s0,a2
    4c30:	00068a13          	mv	s4,a3
    4c34:	00050663          	beqz	a0,0x4c40
    4c38:	00b50533          	add	a0,a0,a1
    4c3c:	58058863          	beqz	a1,0x51cc
    4c40:	02a13823          	0x2a13823
    4c44:	00001917          	auipc	s2,0x1
    4c48:	4f490913          	addi	s2,s2,1268 # 0x6138
    4c4c:	03900a93          	li	s5,57
    4c50:	00001997          	auipc	s3,0x1
    4c54:	65898993          	addi	s3,s3,1624 # 0x62a8
    4c58:	00044503          	lbu	a0,0(s0)
    4c5c:	02050263          	beqz	a0,0x4c80
    4c60:	02500793          	li	a5,37
    4c64:	00140413          	addi	s0,s0,1
    4c68:	06f50263          	beq	a0,a5,0x4ccc
    4c6c:	01810613          	addi	a2,sp,24
    4c70:	00100593          	li	a1,1
    4c74:	ed5ff0ef          	jal	ra,0x4b48
    4c78:	00044503          	lbu	a0,0(s0)
    4c7c:	fe0512e3          	bnez	a0,0x4c60
    4c80:	02813783          	0x2813783
    4c84:	00078463          	beqz	a5,0x4c8c
    4c88:	00078023          	sb	zero,0(a5)
    4c8c:	0e813083          	0xe813083
    4c90:	0e013403          	0xe013403
    4c94:	03812503          	lw	a0,56(sp)
    4c98:	0d813483          	0xd813483
    4c9c:	0d013903          	0xd013903
    4ca0:	0c813983          	0xc813983
    4ca4:	0c013a03          	0xc013a03
    4ca8:	0b813a83          	0xb813a83
    4cac:	0b013b03          	0xb013b03
    4cb0:	0a813b83          	0xa813b83
    4cb4:	0a013c03          	0xa013c03
    4cb8:	09813c83          	0x9813c83
    4cbc:	09013d03          	0x9013d03
    4cc0:	08813d83          	0x8813d83
    4cc4:	0f010113          	addi	sp,sp,240
    4cc8:	00008067          	ret
    4ccc:	02000793          	li	a5,32
    4cd0:	00f10e23          	sb	a5,28(sp)
    4cd4:	00012c23          	sw	zero,24(sp)
    4cd8:	02012023          	sw	zero,32(sp)
    4cdc:	00040793          	mv	a5,s0
    4ce0:	00000b93          	li	s7,0
    4ce4:	00000b13          	li	s6,0
    4ce8:	00000c13          	li	s8,0
    4cec:	05800693          	li	a3,88
    4cf0:	06c00e13          	li	t3,108
    4cf4:	06800313          	li	t1,104
    4cf8:	02f00593          	li	a1,47
    4cfc:	02d00e93          	li	t4,45
    4d00:	00900613          	li	a2,9
    4d04:	02000813          	li	a6,32
    4d08:	00100513          	li	a0,1
    4d0c:	02b00893          	li	a7,43
    4d10:	02b00f13          	li	t5,43
    4d14:	0007c703          	lbu	a4,0(a5)
    4d18:	00140413          	addi	s0,s0,1
    4d1c:	fe07079b          	0xfe07079b
    4d20:	0ff7f793          	andi	a5,a5,255
    4d24:	f2f6eae3          	bltu	a3,a5,0x4c58
    4d28:	00279793          	slli	a5,a5,0x2
    4d2c:	012787b3          	add	a5,a5,s2
    4d30:	0007a783          	lw	a5,0(a5)
    4d34:	012787b3          	add	a5,a5,s2
    4d38:	00078067          	jr	a5
    4d3c:	fd070c1b          	0xfd070c1b
    4d40:	00044703          	lbu	a4,0(s0)
    4d44:	00140413          	addi	s0,s0,1
    4d48:	02e5f463          	bgeu	a1,a4,0x4d70
    4d4c:	fceae8e3          	bltu	s5,a4,0x4d1c
    4d50:	002c179b          	0x2c179b
    4d54:	01878c3b          	0x1878c3b
    4d58:	001c1c1b          	0x1c1c1b
    4d5c:	00140413          	addi	s0,s0,1
    4d60:	00ec0c3b          	0xec0c3b
    4d64:	fff44703          	lbu	a4,-1(s0)
    4d68:	fd0c0c1b          	0xfd0c0c1b
    4d6c:	fee5e0e3          	bltu	a1,a4,0x4d4c
    4d70:	fbd716e3          	bne	a4,t4,0x4d1c
    4d74:	41800c3b          	0x41800c3b
    4d78:	00040793          	mv	a5,s0
    4d7c:	f99ff06f          	j	0x4d14
    4d80:	00200793          	li	a5,2
    4d84:	008a0513          	addi	a0,s4,8
    4d88:	74fb8063          	beq	s7,a5,0x54c8
    4d8c:	4b77da63          	bge	a5,s7,0x5240
    4d90:	00300793          	li	a5,3
    4d94:	00fb8663          	beq	s7,a5,0x4da0
    4d98:	00400793          	li	a5,4
    4d9c:	72fb9a63          	bne	s7,a5,0x54d0
    4da0:	000a3483          	0xa3483
    4da4:	01810c93          	addi	s9,sp,24
    4da8:	00050a13          	mv	s4,a0
    4dac:	06010fa3          	sb	zero,127(sp)
    4db0:	07f10713          	addi	a4,sp,127
    4db4:	00f00613          	li	a2,15
    4db8:	0080006f          	j	0x4dc0
    4dbc:	00068493          	mv	s1,a3
    4dc0:	00f4f793          	andi	a5,s1,15
    4dc4:	00f987b3          	add	a5,s3,a5
    4dc8:	0007c783          	lbu	a5,0(a5)
    4dcc:	fff70713          	addi	a4,a4,-1
    4dd0:	0044d693          	srli	a3,s1,0x4
    4dd4:	00f70023          	sb	a5,0(a4)
    4dd8:	fe9662e3          	bltu	a2,s1,0x4dbc
    4ddc:	08010793          	addi	a5,sp,128
    4de0:	40e7873b          	0x40e7873b
    4de4:	fff70d1b          	0xfff70d1b
    4de8:	ffe7079b          	0xffe7079b
    4dec:	fffd4493          	not	s1,s10
    4df0:	00f13023          	0xf13023
    4df4:	08010793          	addi	a5,sp,128
    4df8:	009784b3          	add	s1,a5,s1
    4dfc:	00000b93          	li	s7,0
    4e00:	136d5a63          	bge	s10,s6,0x4f34
    4e04:	41ab083b          	0x41ab083b
    4e08:	01780b3b          	0x1780b3b
    4e0c:	01ab073b          	0x1ab073b
    4e10:	00000d93          	li	s11,0
    4e14:	01875463          	bge	a4,s8,0x4e1c
    4e18:	40ec0dbb          	0x40ec0dbb
    4e1c:	01813683          	0x1813683
    4e20:	fff00713          	li	a4,-1
    4e24:	01875713          	srli	a4,a4,0x18
    4e28:	00e6f6b3          	and	a3,a3,a4
    4e2c:	00100713          	li	a4,1
    4e30:	02571713          	slli	a4,a4,0x25
    4e34:	3ae68063          	beq	a3,a4,0x51d4
    4e38:	3a0b9c63          	bnez	s7,0x51f0
    4e3c:	01813683          	0x1813683
    4e40:	fff00713          	li	a4,-1
    4e44:	01875713          	srli	a4,a4,0x18
    4e48:	00e6f6b3          	and	a3,a3,a4
    4e4c:	00300713          	li	a4,3
    4e50:	02471713          	slli	a4,a4,0x24
    4e54:	3ce68863          	beq	a3,a4,0x5224
    4e58:	000c8613          	mv	a2,s9
    4e5c:	00080593          	mv	a1,a6
    4e60:	03000513          	li	a0,48
    4e64:	ce5ff0ef          	jal	ra,0x4b48
    4e68:	020d0463          	beqz	s10,0x4e90
    4e6c:	00016b03          	0x16b03
    4e70:	001b0b13          	addi	s6,s6,1
    4e74:	01648b33          	add	s6,s1,s6
    4e78:	00148493          	addi	s1,s1,1
    4e7c:	fff4c503          	lbu	a0,-1(s1)
    4e80:	000c8613          	mv	a2,s9
    4e84:	00100593          	li	a1,1
    4e88:	cc1ff0ef          	jal	ra,0x4b48
    4e8c:	ff6496e3          	bne	s1,s6,0x4e78
    4e90:	01812783          	lw	a5,24(sp)
    4e94:	dc0782e3          	beqz	a5,0x4c58
    4e98:	01c14503          	lbu	a0,28(sp)
    4e9c:	000c8613          	mv	a2,s9
    4ea0:	000d8593          	mv	a1,s11
    4ea4:	ca5ff0ef          	jal	ra,0x4b48
    4ea8:	db1ff06f          	j	0x4c58
    4eac:	01812783          	lw	a5,24(sp)
    4eb0:	ec0794e3          	bnez	a5,0x4d78
    4eb4:	03000793          	li	a5,48
    4eb8:	00f10e23          	sb	a5,28(sp)
    4ebc:	00040793          	mv	a5,s0
    4ec0:	e55ff06f          	j	0x4d14
    4ec4:	00200793          	li	a5,2
    4ec8:	60fb8e63          	beq	s7,a5,0x54e4
    4ecc:	4377d663          	bge	a5,s7,0x52f8
    4ed0:	00300793          	li	a5,3
    4ed4:	64fb8063          	beq	s7,a5,0x5514
    4ed8:	00400793          	li	a5,4
    4edc:	00a00713          	li	a4,10
    4ee0:	60fb9a63          	bne	s7,a5,0x54f4
    4ee4:	00800693          	li	a3,8
    4ee8:	008a0513          	addi	a0,s4,8
    4eec:	000a3783          	0xa3783
    4ef0:	44d70263          	beq	a4,a3,0x5334
    4ef4:	00a00693          	li	a3,10
    4ef8:	00050a13          	mv	s4,a0
    4efc:	66d70463          	beq	a4,a3,0x5564
    4f00:	fff00793          	li	a5,-1
    4f04:	00f13023          	0xf13023
    4f08:	fff00493          	li	s1,-1
    4f0c:	00000b93          	li	s7,0
    4f10:	00000d13          	li	s10,0
    4f14:	08010793          	addi	a5,sp,128
    4f18:	009784b3          	add	s1,a5,s1
    4f1c:	01810c93          	addi	s9,sp,24
    4f20:	ee0b80e3          	beqz	s7,0x4e00
    4f24:	02012b83          	lw	s7,32(sp)
    4f28:	01810c93          	addi	s9,sp,24
    4f2c:	01703bb3          	snez	s7,s7
    4f30:	ed6d4ae3          	blt	s10,s6,0x4e04
    4f34:	000b8b13          	mv	s6,s7
    4f38:	00000813          	li	a6,0
    4f3c:	ed1ff06f          	j	0x4e0c
    4f40:	008a0c93          	addi	s9,s4,8
    4f44:	000a3483          	0xa3483
    4f48:	500b0a63          	beqz	s6,0x545c
    4f4c:	fffb0b9b          	0xfffb0b9b
    4f50:	000c8a13          	mv	s4,s9
    4f54:	00000d13          	li	s10,0
    4f58:	018b5463          	bge	s6,s8,0x4f60
    4f5c:	416c0d3b          	0x416c0d3b
    4f60:	01812783          	lw	a5,24(sp)
    4f64:	3a078663          	beqz	a5,0x5310
    4f68:	01810c93          	addi	s9,sp,24
    4f6c:	020b0a63          	beqz	s6,0x4fa0
    4f70:	020b9b13          	slli	s6,s7,0x20
    4f74:	020b5b13          	srli	s6,s6,0x20
    4f78:	001b0b13          	addi	s6,s6,1
    4f7c:	01648b33          	add	s6,s1,s6
    4f80:	00148493          	addi	s1,s1,1
    4f84:	fff4c503          	lbu	a0,-1(s1)
    4f88:	000c8613          	mv	a2,s9
    4f8c:	00100593          	li	a1,1
    4f90:	bb9ff0ef          	jal	ra,0x4b48
    4f94:	fe9b16e3          	bne	s6,s1,0x4f80
    4f98:	01812783          	lw	a5,24(sp)
    4f9c:	ca078ee3          	beqz	a5,0x4c58
    4fa0:	01c14503          	lbu	a0,28(sp)
    4fa4:	000c8613          	mv	a2,s9
    4fa8:	000d0593          	mv	a1,s10
    4fac:	b9dff0ef          	jal	ra,0x4b48
    4fb0:	ca9ff06f          	j	0x4c58
    4fb4:	000a3483          	0xa3483
    4fb8:	008a0a13          	addi	s4,s4,8
    4fbc:	46049c63          	bnez	s1,0x5434
    4fc0:	02800513          	li	a0,40
    4fc4:	00001497          	auipc	s1,0x1
    4fc8:	2dc48493          	addi	s1,s1,732 # 0x62a0
    4fcc:	01810c93          	addi	s9,sp,24
    4fd0:	00001b17          	auipc	s6,0x1
    4fd4:	2d5b0b13          	addi	s6,s6,725 # 0x62a5
    4fd8:	0080006f          	j	0x4fe0
    4fdc:	0004c503          	lbu	a0,0(s1)
    4fe0:	00148493          	addi	s1,s1,1
    4fe4:	000c8613          	mv	a2,s9
    4fe8:	00100593          	li	a1,1
    4fec:	b5dff0ef          	jal	ra,0x4b48
    4ff0:	ff6496e3          	bne	s1,s6,0x4fdc
    4ff4:	c65ff06f          	j	0x4c58
    4ff8:	00200793          	li	a5,2
    4ffc:	4cfb8e63          	beq	s7,a5,0x54d8
    5000:	2d77dc63          	bge	a5,s7,0x52d8
    5004:	00300793          	li	a5,3
    5008:	32fb8263          	beq	s7,a5,0x532c
    500c:	00400793          	li	a5,4
    5010:	00800713          	li	a4,8
    5014:	ecfb88e3          	beq	s7,a5,0x4ee4
    5018:	000a2783          	lw	a5,0(s4)
    501c:	008a0a13          	addi	s4,s4,8
    5020:	0077f713          	andi	a4,a5,7
    5024:	00e98733          	add	a4,s3,a4
    5028:	00074603          	lbu	a2,0(a4)
    502c:	06010fa3          	sb	zero,127(sp)
    5030:	07f10713          	addi	a4,sp,127
    5034:	00700593          	li	a1,7
    5038:	0140006f          	j	0x504c
    503c:	0076f793          	andi	a5,a3,7
    5040:	00f987b3          	add	a5,s3,a5
    5044:	0007c603          	lbu	a2,0(a5)
    5048:	0006879b          	0x6879b
    504c:	fff70713          	addi	a4,a4,-1
    5050:	00c70023          	sb	a2,0(a4)
    5054:	0037d69b          	0x37d69b
    5058:	fef5e2e3          	bltu	a1,a5,0x503c
    505c:	08010793          	addi	a5,sp,128
    5060:	40e7873b          	0x40e7873b
    5064:	fff70d1b          	0xfff70d1b
    5068:	ffe7079b          	0xffe7079b
    506c:	fffd4493          	not	s1,s10
    5070:	00f13023          	0xf13023
    5074:	01810c93          	addi	s9,sp,24
    5078:	d7dff06f          	j	0x4df4
    507c:	00044703          	lbu	a4,0(s0)
    5080:	00140413          	addi	s0,s0,1
    5084:	4dc70463          	beq	a4,t3,0x554c
    5088:	00300b93          	li	s7,3
    508c:	c91ff06f          	j	0x4d1c
    5090:	02a12023          	sw	a0,32(sp)
    5094:	03110223          	sb	a7,36(sp)
    5098:	00040793          	mv	a5,s0
    509c:	c79ff06f          	j	0x4d14
    50a0:	01810613          	addi	a2,sp,24
    50a4:	00100593          	li	a1,1
    50a8:	02500513          	li	a0,37
    50ac:	a9dff0ef          	jal	ra,0x4b48
    50b0:	ba9ff06f          	j	0x4c58
    50b4:	02012783          	lw	a5,32(sp)
    50b8:	2c079863          	bnez	a5,0x5388
    50bc:	02a12023          	sw	a0,32(sp)
    50c0:	03010223          	sb	a6,36(sp)
    50c4:	00040793          	mv	a5,s0
    50c8:	c4dff06f          	j	0x4d14
    50cc:	00044703          	lbu	a4,0(s0)
    50d0:	00140413          	addi	s0,s0,1
    50d4:	fd07079b          	0xfd07079b
    50d8:	0ff7f793          	andi	a5,a5,255
    50dc:	02f66663          	bltu	a2,a5,0x5108
    50e0:	002b179b          	0x2b179b
    50e4:	01678b3b          	0x1678b3b
    50e8:	001b1b1b          	0x1b1b1b
    50ec:	00140413          	addi	s0,s0,1
    50f0:	00eb0b3b          	0xeb0b3b
    50f4:	fff44703          	lbu	a4,-1(s0)
    50f8:	fd0b0b1b          	0xfd0b0b1b
    50fc:	fd07079b          	0xfd07079b
    5100:	0ff7f793          	andi	a5,a5,255
    5104:	fcf67ee3          	bgeu	a2,a5,0x50e0
    5108:	01010e23          	sb	a6,28(sp)
    510c:	c11ff06f          	j	0x4d1c
    5110:	00200793          	li	a5,2
    5114:	38fb8a63          	beq	s7,a5,0x54a8
    5118:	1977d463          	bge	a5,s7,0x52a0
    511c:	00300793          	li	a5,3
    5120:	00fb8663          	beq	s7,a5,0x512c
    5124:	00400793          	li	a5,4
    5128:	34fb9263          	bne	s7,a5,0x546c
    512c:	000a3783          	0xa3783
    5130:	008a0a13          	addi	s4,s4,8
    5134:	2607c463          	bltz	a5,0x539c
    5138:	00100b93          	li	s7,1
    513c:	06010fa3          	sb	zero,127(sp)
    5140:	07f10693          	addi	a3,sp,127
    5144:	00a00613          	li	a2,10
    5148:	00900513          	li	a0,9
    514c:	0080006f          	j	0x5154
    5150:	00058793          	mv	a5,a1
    5154:	02c7f733          	remu	a4,a5,a2
    5158:	fff68693          	addi	a3,a3,-1
    515c:	00e98733          	add	a4,s3,a4
    5160:	00074703          	lbu	a4,0(a4)
    5164:	02c7d5b3          	divu	a1,a5,a2
    5168:	00e68023          	sb	a4,0(a3)
    516c:	fef562e3          	bltu	a0,a5,0x5150
    5170:	08010793          	addi	a5,sp,128
    5174:	40d786bb          	0x40d786bb
    5178:	fff68d1b          	0xfff68d1b
    517c:	ffe6879b          	0xffe6879b
    5180:	fffd4493          	not	s1,s10
    5184:	00f13023          	0xf13023
    5188:	d8dff06f          	j	0x4f14
    518c:	00a12c23          	sw	a0,24(sp)
    5190:	01010e23          	sb	a6,28(sp)
    5194:	00040793          	mv	a5,s0
    5198:	b7dff06f          	j	0x4d14
    519c:	00044703          	lbu	a4,0(s0)
    51a0:	00140413          	addi	s0,s0,1
    51a4:	3a670a63          	beq	a4,t1,0x5558
    51a8:	00200b93          	li	s7,2
    51ac:	b71ff06f          	j	0x4d1c
    51b0:	000a2783          	lw	a5,0(s4)
    51b4:	00000b93          	li	s7,0
    51b8:	008a0a13          	addi	s4,s4,8
    51bc:	04f10023          	sb	a5,64(sp)
    51c0:	04010493          	addi	s1,sp,64
    51c4:	00100b13          	li	s6,1
    51c8:	d8dff06f          	j	0x4f54
    51cc:	00000513          	li	a0,0
    51d0:	a71ff06f          	j	0x4c40
    51d4:	01c14503          	lbu	a0,28(sp)
    51d8:	000c8613          	mv	a2,s9
    51dc:	000d8593          	mv	a1,s11
    51e0:	01013423          	0x1013423
    51e4:	965ff0ef          	jal	ra,0x4b48
    51e8:	00813803          	0x813803
    51ec:	c40b88e3          	beqz	s7,0x4e3c
    51f0:	02414503          	lbu	a0,36(sp)
    51f4:	000c8613          	mv	a2,s9
    51f8:	00100593          	li	a1,1
    51fc:	01013423          	0x1013423
    5200:	949ff0ef          	jal	ra,0x4b48
    5204:	01813683          	0x1813683
    5208:	fff00713          	li	a4,-1
    520c:	01875713          	srli	a4,a4,0x18
    5210:	00e6f6b3          	and	a3,a3,a4
    5214:	00300713          	li	a4,3
    5218:	02471713          	slli	a4,a4,0x24
    521c:	00813803          	0x813803
    5220:	c2e69ce3          	bne	a3,a4,0x4e58
    5224:	01c14503          	lbu	a0,28(sp)
    5228:	000c8613          	mv	a2,s9
    522c:	000d8593          	mv	a1,s11
    5230:	01013423          	0x1013423
    5234:	915ff0ef          	jal	ra,0x4b48
    5238:	00813803          	0x813803
    523c:	c1dff06f          	j	0x4e58
    5240:	00100793          	li	a5,1
    5244:	28fb9663          	bne	s7,a5,0x54d0
    5248:	000a4703          	lbu	a4,0(s4)
    524c:	06010fa3          	sb	zero,127(sp)
    5250:	07f10693          	addi	a3,sp,127
    5254:	00f00593          	li	a1,15
    5258:	0080006f          	j	0x5260
    525c:	00060713          	mv	a4,a2
    5260:	00f77793          	andi	a5,a4,15
    5264:	00f987b3          	add	a5,s3,a5
    5268:	0007c783          	lbu	a5,0(a5)
    526c:	fff68693          	addi	a3,a3,-1
    5270:	0047561b          	0x47561b
    5274:	00f68023          	sb	a5,0(a3)
    5278:	fee5e2e3          	bltu	a1,a4,0x525c
    527c:	08010793          	addi	a5,sp,128
    5280:	40d786bb          	0x40d786bb
    5284:	fff68d1b          	0xfff68d1b
    5288:	ffe6879b          	0xffe6879b
    528c:	fffd4493          	not	s1,s10
    5290:	00f13023          	0xf13023
    5294:	00050a13          	mv	s4,a0
    5298:	01810c93          	addi	s9,sp,24
    529c:	b59ff06f          	j	0x4df4
    52a0:	00100793          	li	a5,1
    52a4:	1cfb9463          	bne	s7,a5,0x546c
    52a8:	000a2703          	lw	a4,0(s4)
    52ac:	008a0793          	addi	a5,s4,8
    52b0:	0187169b          	0x187169b
    52b4:	4186d69b          	0x4186d69b
    52b8:	0e06ce63          	bltz	a3,0x53b4
    52bc:	0ff77713          	andi	a4,a4,255
    52c0:	00a00693          	li	a3,10
    52c4:	02d776bb          	0x2d776bb
    52c8:	00078a13          	mv	s4,a5
    52cc:	00d987b3          	add	a5,s3,a3
    52d0:	0007c783          	lbu	a5,0(a5)
    52d4:	1100006f          	j	0x53e4
    52d8:	00100793          	li	a5,1
    52dc:	d2fb9ee3          	bne	s7,a5,0x5018
    52e0:	000a4783          	lbu	a5,0(s4)
    52e4:	008a0a13          	addi	s4,s4,8
    52e8:	0077f713          	andi	a4,a5,7
    52ec:	00e98733          	add	a4,s3,a4
    52f0:	00074603          	lbu	a2,0(a4)
    52f4:	d39ff06f          	j	0x502c
    52f8:	00100793          	li	a5,1
    52fc:	1efb9c63          	bne	s7,a5,0x54f4
    5300:	008a0793          	addi	a5,s4,8
    5304:	000a4703          	lbu	a4,0(s4)
    5308:	00000b93          	li	s7,0
    530c:	fb5ff06f          	j	0x52c0
    5310:	01c14503          	lbu	a0,28(sp)
    5314:	01810c93          	addi	s9,sp,24
    5318:	000c8613          	mv	a2,s9
    531c:	000d0593          	mv	a1,s10
    5320:	829ff0ef          	jal	ra,0x4b48
    5324:	c40b16e3          	bnez	s6,0x4f70
    5328:	c71ff06f          	j	0x4f98
    532c:	000a3783          	0xa3783
    5330:	008a0513          	addi	a0,s4,8
    5334:	06010fa3          	sb	zero,127(sp)
    5338:	07f10693          	addi	a3,sp,127
    533c:	00700593          	li	a1,7
    5340:	0080006f          	j	0x5348
    5344:	00060793          	mv	a5,a2
    5348:	0077f713          	andi	a4,a5,7
    534c:	00e98733          	add	a4,s3,a4
    5350:	00074703          	lbu	a4,0(a4)
    5354:	fff68693          	addi	a3,a3,-1
    5358:	0037d613          	srli	a2,a5,0x3
    535c:	00e68023          	sb	a4,0(a3)
    5360:	fef5e2e3          	bltu	a1,a5,0x5344
    5364:	08010793          	addi	a5,sp,128
    5368:	40d786bb          	0x40d786bb
    536c:	fff68d1b          	0xfff68d1b
    5370:	ffe6879b          	0xffe6879b
    5374:	fffd4493          	not	s1,s10
    5378:	00f13023          	0xf13023
    537c:	00050a13          	mv	s4,a0
    5380:	01810c93          	addi	s9,sp,24
    5384:	a71ff06f          	j	0x4df4
    5388:	02414783          	lbu	a5,36(sp)
    538c:	9fe786e3          	beq	a5,t5,0x4d78
    5390:	02a12023          	sw	a0,32(sp)
    5394:	03010223          	sb	a6,36(sp)
    5398:	d2dff06f          	j	0x50c4
    539c:	02d00713          	li	a4,45
    53a0:	02e10223          	sb	a4,36(sp)
    53a4:	00100713          	li	a4,1
    53a8:	02e12023          	sw	a4,32(sp)
    53ac:	40f007b3          	neg	a5,a5
    53b0:	d89ff06f          	j	0x5138
    53b4:	fff74713          	not	a4,a4
    53b8:	0ff77713          	andi	a4,a4,255
    53bc:	02d00693          	li	a3,45
    53c0:	02d10223          	sb	a3,36(sp)
    53c4:	03712023          	sw	s7,32(sp)
    53c8:	00170713          	addi	a4,a4,1
    53cc:	00078a13          	mv	s4,a5
    53d0:	00a00793          	li	a5,10
    53d4:	02f777bb          	0x2f777bb
    53d8:	00100b93          	li	s7,1
    53dc:	00f987b3          	add	a5,s3,a5
    53e0:	0007c783          	lbu	a5,0(a5)
    53e4:	06010fa3          	sb	zero,127(sp)
    53e8:	07f10693          	addi	a3,sp,127
    53ec:	00a00613          	li	a2,10
    53f0:	00900593          	li	a1,9
    53f4:	0140006f          	j	0x5408
    53f8:	0007871b          	0x7871b
    53fc:	02c7f7bb          	0x2c7f7bb
    5400:	00f987b3          	add	a5,s3,a5
    5404:	0007c783          	lbu	a5,0(a5)
    5408:	fff68693          	addi	a3,a3,-1
    540c:	00f68023          	sb	a5,0(a3)
    5410:	02c757bb          	0x2c757bb
    5414:	fee5e2e3          	bltu	a1,a4,0x53f8
    5418:	08010793          	addi	a5,sp,128
    541c:	40d786bb          	0x40d786bb
    5420:	fff68d1b          	0xfff68d1b
    5424:	ffe6879b          	0xffe6879b
    5428:	fffd4493          	not	s1,s10
    542c:	00f13023          	0xf13023
    5430:	ae5ff06f          	j	0x4f14
    5434:	01810c93          	addi	s9,sp,24
    5438:	000c8613          	mv	a2,s9
    543c:	00100593          	li	a1,1
    5440:	03000513          	li	a0,48
    5444:	f04ff0ef          	jal	ra,0x4b48
    5448:	000c8613          	mv	a2,s9
    544c:	00100593          	li	a1,1
    5450:	07800513          	li	a0,120
    5454:	ef4ff0ef          	jal	ra,0x4b48
    5458:	955ff06f          	j	0x4dac
    545c:	00048513          	mv	a0,s1
    5460:	188000ef          	jal	ra,0x55e8
    5464:	00050b1b          	0x50b1b
    5468:	ae5ff06f          	j	0x4f4c
    546c:	000a2783          	lw	a5,0(s4)
    5470:	008a0a13          	addi	s4,s4,8
    5474:	0007871b          	0x7871b
    5478:	f407dce3          	bgez	a5,0x53d0
    547c:	40e0073b          	0x40e0073b
    5480:	00a00793          	li	a5,10
    5484:	02f777bb          	0x2f777bb
    5488:	02d00693          	li	a3,45
    548c:	02d10223          	sb	a3,36(sp)
    5490:	00100693          	li	a3,1
    5494:	02d12023          	sw	a3,32(sp)
    5498:	00100b93          	li	s7,1
    549c:	00f987b3          	add	a5,s3,a5
    54a0:	0007c783          	lbu	a5,0(a5)
    54a4:	f41ff06f          	j	0x53e4
    54a8:	000a2703          	lw	a4,0(s4)
    54ac:	008a0793          	addi	a5,s4,8
    54b0:	03071693          	slli	a3,a4,0x30
    54b4:	0606c863          	bltz	a3,0x5524
    54b8:	03071713          	slli	a4,a4,0x30
    54bc:	03075713          	srli	a4,a4,0x30
    54c0:	00100b93          	li	s7,1
    54c4:	dfdff06f          	j	0x52c0
    54c8:	000a5703          	lhu	a4,0(s4)
    54cc:	d81ff06f          	j	0x524c
    54d0:	000a2703          	lw	a4,0(s4)
    54d4:	d79ff06f          	j	0x524c
    54d8:	000a5783          	lhu	a5,0(s4)
    54dc:	008a0a13          	addi	s4,s4,8
    54e0:	e09ff06f          	j	0x52e8
    54e4:	008a0793          	addi	a5,s4,8
    54e8:	000a5703          	lhu	a4,0(s4)
    54ec:	00000b93          	li	s7,0
    54f0:	dd1ff06f          	j	0x52c0
    54f4:	000a2703          	lw	a4,0(s4)
    54f8:	00a00793          	li	a5,10
    54fc:	008a0a13          	addi	s4,s4,8
    5500:	02f777bb          	0x2f777bb
    5504:	00000b93          	li	s7,0
    5508:	00f987b3          	add	a5,s3,a5
    550c:	0007c783          	lbu	a5,0(a5)
    5510:	ed5ff06f          	j	0x53e4
    5514:	000a3783          	0xa3783
    5518:	00000b93          	li	s7,0
    551c:	008a0a13          	addi	s4,s4,8
    5520:	c1dff06f          	j	0x513c
    5524:	fff74713          	not	a4,a4
    5528:	02d00693          	li	a3,45
    552c:	0107171b          	0x107171b
    5530:	0107571b          	0x107571b
    5534:	02d10223          	sb	a3,36(sp)
    5538:	00100693          	li	a3,1
    553c:	02d12023          	sw	a3,32(sp)
    5540:	00170713          	addi	a4,a4,1
    5544:	00078a13          	mv	s4,a5
    5548:	e89ff06f          	j	0x53d0
    554c:	00400b93          	li	s7,4
    5550:	00040793          	mv	a5,s0
    5554:	fc0ff06f          	j	0x4d14
    5558:	00100b93          	li	s7,1
    555c:	00040793          	mv	a5,s0
    5560:	fb4ff06f          	j	0x4d14
    5564:	00000b93          	li	s7,0
    5568:	bd5ff06f          	j	0x513c
    556c:	fa010113          	addi	sp,sp,-96
    5570:	02810313          	addi	t1,sp,40
    5574:	02b13423          	0x2b13423
    5578:	02c13823          	0x2c13823
    557c:	02d13c23          	0x2d13c23
    5580:	00050613          	mv	a2,a0
    5584:	00030693          	mv	a3,t1
    5588:	00000593          	li	a1,0
    558c:	00000513          	li	a0,0
    5590:	00113c23          	0x113c23
    5594:	04e13023          	0x4e13023
    5598:	04f13423          	0x4f13423
    559c:	05013823          	0x5013823
    55a0:	05113c23          	0x5113c23
    55a4:	00613423          	0x613423
    55a8:	e3cff0ef          	jal	ra,0x4be4
    55ac:	01813083          	0x1813083
    55b0:	06010113          	addi	sp,sp,96
    55b4:	00008067          	ret
    55b8:	fe010113          	addi	sp,sp,-32
    55bc:	0000b537          	lui	a0,0xb
    55c0:	00810613          	addi	a2,sp,8
    55c4:	00800693          	li	a3,8
    55c8:	00100593          	li	a1,1
    55cc:	c0350513          	addi	a0,a0,-1021 # 0xac03
    55d0:	00113c23          	0x113c23
    55d4:	930ff0ef          	jal	ra,0x4704
    55d8:	01813083          	0x1813083
    55dc:	00c12503          	lw	a0,12(sp)
    55e0:	02010113          	addi	sp,sp,32
    55e4:	00008067          	ret
    55e8:	00054783          	lbu	a5,0(a0)
    55ec:	02078063          	beqz	a5,0x560c
    55f0:	00000793          	li	a5,0
    55f4:	00178793          	addi	a5,a5,1
    55f8:	00f50733          	add	a4,a0,a5
    55fc:	00074703          	lbu	a4,0(a4)
    5600:	fe071ae3          	bnez	a4,0x55f4
    5604:	00078513          	mv	a0,a5
    5608:	00008067          	ret
    560c:	00000793          	li	a5,0
    5610:	00078513          	mv	a0,a5
    5614:	00008067          	ret
    5618:	00054783          	lbu	a5,0(a0)
    561c:	0005c703          	lbu	a4,0(a1)
    5620:	00078e63          	beqz	a5,0x563c
    5624:	02e79263          	bne	a5,a4,0x5648
    5628:	00150513          	addi	a0,a0,1
    562c:	00054783          	lbu	a5,0(a0)
    5630:	00158593          	addi	a1,a1,1
    5634:	0005c703          	lbu	a4,0(a1)
    5638:	fe0796e3          	bnez	a5,0x5624
    563c:	00000513          	li	a0,0
    5640:	40e5053b          	0x40e5053b
    5644:	00008067          	ret
    5648:	0007851b          	0x7851b
    564c:	40e5053b          	0x40e5053b
    5650:	00008067          	ret
    5654:	0000                	unimp
    5656:	0000                	unimp
    5658:	af48                	fsd	fa0,152(a4)
    565a:	ffff                	0xffff
    565c:	af38                	fsd	fa4,88(a4)
    565e:	ffff                	0xffff
    5660:	af28                	fsd	fa0,88(a4)
    5662:	ffff                	0xffff
    5664:	af18                	fsd	fa4,24(a4)
    5666:	ffff                	0xffff
    5668:	ae1c                	fsd	fa5,24(a2)
    566a:	ffff                	0xffff
    566c:	ae1c                	fsd	fa5,24(a2)
    566e:	ffff                	0xffff
    5670:	ae1c                	fsd	fa5,24(a2)
    5672:	ffff                	0xffff
    5674:	ae1c                	fsd	fa5,24(a2)
    5676:	ffff                	0xffff
    5678:	ae1c                	fsd	fa5,24(a2)
    567a:	ffff                	0xffff
    567c:	ae1c                	fsd	fa5,24(a2)
    567e:	ffff                	0xffff
    5680:	ae1c                	fsd	fa5,24(a2)
    5682:	ffff                	0xffff
    5684:	ae1c                	fsd	fa5,24(a2)
    5686:	ffff                	0xffff
    5688:	ae1c                	fsd	fa5,24(a2)
    568a:	ffff                	0xffff
    568c:	ae1c                	fsd	fa5,24(a2)
    568e:	ffff                	0xffff
    5690:	ae1c                	fsd	fa5,24(a2)
    5692:	ffff                	0xffff
    5694:	ae1c                	fsd	fa5,24(a2)
    5696:	ffff                	0xffff
    5698:	ae1c                	fsd	fa5,24(a2)
    569a:	ffff                	0xffff
    569c:	af08                	fsd	fa0,24(a4)
    569e:	ffff                	0xffff
    56a0:	ae1c                	fsd	fa5,24(a2)
    56a2:	ffff                	0xffff
    56a4:	aef8                	fsd	fa4,216(a3)
    56a6:	ffff                	0xffff
    56a8:	ae1c                	fsd	fa5,24(a2)
    56aa:	ffff                	0xffff
    56ac:	ae1c                	fsd	fa5,24(a2)
    56ae:	ffff                	0xffff
    56b0:	ae1c                	fsd	fa5,24(a2)
    56b2:	ffff                	0xffff
    56b4:	ae1c                	fsd	fa5,24(a2)
    56b6:	ffff                	0xffff
    56b8:	ae1c                	fsd	fa5,24(a2)
    56ba:	ffff                	0xffff
    56bc:	ae1c                	fsd	fa5,24(a2)
    56be:	ffff                	0xffff
    56c0:	ae1c                	fsd	fa5,24(a2)
    56c2:	ffff                	0xffff
    56c4:	ae1c                	fsd	fa5,24(a2)
    56c6:	ffff                	0xffff
    56c8:	ae1c                	fsd	fa5,24(a2)
    56ca:	ffff                	0xffff
    56cc:	ae1c                	fsd	fa5,24(a2)
    56ce:	ffff                	0xffff
    56d0:	ae1c                	fsd	fa5,24(a2)
    56d2:	ffff                	0xffff
    56d4:	ae1c                	fsd	fa5,24(a2)
    56d6:	ffff                	0xffff
    56d8:	ae1c                	fsd	fa5,24(a2)
    56da:	ffff                	0xffff
    56dc:	ae1c                	fsd	fa5,24(a2)
    56de:	ffff                	0xffff
    56e0:	ae1c                	fsd	fa5,24(a2)
    56e2:	ffff                	0xffff
    56e4:	ae1c                	fsd	fa5,24(a2)
    56e6:	ffff                	0xffff
    56e8:	ae1c                	fsd	fa5,24(a2)
    56ea:	ffff                	0xffff
    56ec:	ae1c                	fsd	fa5,24(a2)
    56ee:	ffff                	0xffff
    56f0:	ae1c                	fsd	fa5,24(a2)
    56f2:	ffff                	0xffff
    56f4:	ae1c                	fsd	fa5,24(a2)
    56f6:	ffff                	0xffff
    56f8:	ae1c                	fsd	fa5,24(a2)
    56fa:	ffff                	0xffff
    56fc:	ae1c                	fsd	fa5,24(a2)
    56fe:	ffff                	0xffff
    5700:	ae1c                	fsd	fa5,24(a2)
    5702:	ffff                	0xffff
    5704:	ae1c                	fsd	fa5,24(a2)
    5706:	ffff                	0xffff
    5708:	ae1c                	fsd	fa5,24(a2)
    570a:	ffff                	0xffff
    570c:	ae1c                	fsd	fa5,24(a2)
    570e:	ffff                	0xffff
    5710:	ae1c                	fsd	fa5,24(a2)
    5712:	ffff                	0xffff
    5714:	ae1c                	fsd	fa5,24(a2)
    5716:	ffff                	0xffff
    5718:	aecc                	fsd	fa1,152(a3)
    571a:	ffff                	0xffff
    571c:	ae1c                	fsd	fa5,24(a2)
    571e:	ffff                	0xffff
    5720:	adb4                	fsd	fa3,88(a1)
    5722:	ffff                	0xffff
    5724:	aebc                	fsd	fa5,88(a3)
    5726:	ffff                	0xffff
    5728:	afd0                	fsd	fa2,152(a5)
    572a:	ffff                	0xffff
    572c:	afac                	fsd	fa1,88(a5)
    572e:	ffff                	0xffff
    5730:	af90                	fsd	fa2,24(a5)
    5732:	ffff                	0xffff
    5734:	af74                	fsd	fa3,216(a4)
    5736:	ffff                	0xffff
    5738:	af50                	fsd	fa2,152(a4)
    573a:	ffff                	0xffff
    573c:	af18                	fsd	fa4,24(a4)
    573e:	ffff                	0xffff
    5740:	aefc                	fsd	fa5,216(a3)
    5742:	ffff                	0xffff
    5744:	ae8c                	fsd	fa1,24(a3)
    5746:	ffff                	0xffff
    5748:	3e3e                	fld	ft8,488(sp)
    574a:	3e3e3e2b          	0x3e3e3e2b
    574e:	3e3e                	fld	ft8,488(sp)
    5750:	5b2c                	lw	a1,112(a4)
    5752:	2b3e                	fld	fs6,456(sp)
    5754:	3e3e                	fld	ft8,488(sp)
    5756:	5d2c                	lw	a1,120(a0)
    5758:	2b3e                	fld	fs6,456(sp)
    575a:	5b2d2d5b          	0x5b2d2d5b
    575e:	3c3c3c2b          	0x3c3c3c2b
    5762:	5d2d                	li	s10,-21
    5764:	5b3c                	lw	a5,112(a4)
    5766:	2b3c                	fld	fa5,80(a4)
    5768:	2d3e                	fld	fs10,456(sp)
    576a:	3c5d                	jal	0x5220
    576c:	2d5b3c5b          	0x2d5b3c5b
    5770:	5b3e                	lw	s6,236(sp)
    5772:	3c3c                	fld	fa5,120(s0)
    5774:	2b3c                	fld	fa5,80(a4)
    5776:	3e3e                	fld	ft8,488(sp)
    5778:	3e3e                	fld	ft8,488(sp)
    577a:	5d2d3c2b          	0x5d2d3c2b
    577e:	3c3c                	fld	fa5,120(s0)
    5780:	2b3e3e5b          	0x2b3e3e5b
    5784:	5b3e                	lw	s6,236(sp)
    5786:	3e2d                	jal	0x52c0
    5788:	3c5d                	jal	0x523e
    578a:	5b3c                	lw	a5,112(a4)
    578c:	5d3c                	lw	a5,120(a0)
    578e:	2d3c                	fld	fa5,88(a0)
    5790:	3e5d                	jal	0x5346
    5792:	3e5d                	jal	0x5348
    5794:	3e3e                	fld	ft8,488(sp)
    5796:	5b5b3c2b          	0x5b5b3c2b
    579a:	5d2d                	li	s10,-21
    579c:	5b3c                	lw	a5,112(a4)
    579e:	2b3e                	fld	fs6,456(sp)
    57a0:	2d3c                	fld	fa5,88(a0)
    57a2:	3c5d                	jal	0x5258
    57a4:	3e5d                	jal	0x535a
    57a6:	3e3e5b5b          	0x3e3e5b5b
    57aa:	5d3e                	lw	s10,236(sp)
    57ac:	3c3c3c2b          	0x3c3c3c2b
    57b0:	3c2d                	jal	0x51ea
    57b2:	5b3c3c5b          	0x5b3c3c5b
    57b6:	3c3c                	fld	fa5,120(s0)
    57b8:	5d3c                	lw	a5,120(a0)
    57ba:	3e3e                	fld	ft8,488(sp)
    57bc:	3e5b3e2b          	0x3e5b3e2b
    57c0:	3e3e                	fld	ft8,488(sp)
    57c2:	3c5d                	jal	0x5278
    57c4:	5d2d                	li	s10,-21
    57c6:	3c3c                	fld	fa5,120(s0)
    57c8:	3c3c3c5b          	0x3c3c3c5b
    57cc:	3e5d                	jal	0x5382
    57ce:	5b3e3e5b          	0x5b3e3e5b
    57d2:	3e3e                	fld	ft8,488(sp)
    57d4:	5d3e                	lw	s10,236(sp)
    57d6:	2b3c                	fld	fa5,80(a4)
    57d8:	3c3c                	fld	fa5,120(s0)
    57da:	3c3c3c5b          	0x3c3c3c5b
    57de:	3e5d                	jal	0x5394
    57e0:	5d2d                	li	s10,-21
    57e2:	2b5d                	jal	0x5d98
    57e4:	3c3c                	fld	fa5,120(s0)
    57e6:	5d3c                	lw	a5,120(a0)
    57e8:	3e2d5b2b          	0x3e2d5b2b
    57ec:	3e3e                	fld	ft8,488(sp)
    57ee:	3e5d                	jal	0x53a4
    57f0:	5d3e                	lw	s10,236(sp)
    57f2:	3e3e                	fld	ft8,488(sp)
    57f4:	3e3e2e5b          	0x3e3e2e5b
    57f8:	5d3e                	lw	s10,236(sp)
    57fa:	0000                	unimp
    57fc:	0000                	unimp
    57fe:	0000                	unimp
    5800:	3130                	fld	fa2,96(a0)
    5802:	3332                	fld	ft6,296(sp)
    5804:	3534                	fld	fa3,104(a0)
    5806:	3736                	fld	fa4,360(sp)
    5808:	3938                	fld	fa4,112(a0)
    580a:	6261                	lui	tp,0x18
    580c:	66656463          	bltu	a0,t1,0x5e74
    5810:	6a696867          	0x6a696867
    5814:	6e6d6c6b          	0x6e6d6c6b
    5818:	7271706f          	j	0x1d73e
    581c:	76757473          	csrrci	s0,0x767,10
    5820:	7a797877          	0x7a797877
    5824:	4241                	li	tp,16
    5826:	46454443          	fmadd.q	fs0,fa0,ft4,fs0,rmm
    582a:	4a494847          	fmsub.d	fa6,fs2,ft4,fs1,rmm
    582e:	4e4d4c4b          	fnmsub.q	fs8,fs10,ft4,fs1,rmm
    5832:	5251504f          	fnmadd.d	ft0,ft2,ft5,fa0,unknown
    5836:	56555453          	0x56555453
    583a:	5a595857          	0x5a595857
    583e:	0000                	unimp
    5840:	6572                	flw	fa0,28(sp)
    5842:	0066                	c.slli	zero,0x19
    5844:	0000                	unimp
    5846:	0000                	unimp
    5848:	4150                	lw	a2,4(a0)
    584a:	00005353          	fadd.s	ft6,ft0,ft0,unknown
    584e:	0000                	unimp
    5850:	4146                	lw	sp,80(sp)
    5852:	4c49                	li	s8,18
    5854:	0000                	unimp
    5856:	0000                	unimp
    5858:	6d45                	lui	s10,0x11
    585a:	7470                	flw	fa2,108(s0)
    585c:	2079                	jal	0x58ea
    585e:	616d                	addi	sp,sp,240
    5860:	6e69                	lui	t3,0x1a
    5862:	7261                	lui	tp,0xffff8
    5864:	202e7367          	0x202e7367
    5868:	7355                	lui	t1,0xffff5
    586a:	2065                	jal	0x5912
    586c:	7222                	flw	ft4,40(sp)
    586e:	6665                	lui	a2,0x19
    5870:	2022                	fld	ft0,8(sp)
    5872:	7962                	flw	fs2,56(sp)
    5874:	6420                	flw	fs0,72(s0)
    5876:	6665                	lui	a2,0x19
    5878:	7561                	lui	a0,0xffff8
    587a:	746c                	flw	fa1,108(s0)
    587c:	000a                	c.slli	zero,0x2
    587e:	0000                	unimp
    5880:	6574                	flw	fa3,76(a0)
    5882:	00007473          	csrrci	s0,ustatus,0
    5886:	0000                	unimp
    5888:	7274                	flw	fa3,100(a2)
    588a:	6961                	lui	s2,0x18
    588c:	006e                	c.slli	zero,0x1b
    588e:	0000                	unimp
    5890:	6e49                	lui	t3,0x12
    5892:	6176                	flw	ft2,92(sp)
    5894:	696c                	flw	fa1,84(a0)
    5896:	2064                	fld	fs1,192(s0)
    5898:	616d                	addi	sp,sp,240
    589a:	6e69                	lui	t3,0x1a
    589c:	7261                	lui	tp,0xffff8
    589e:	203a7367          	0x203a7367
    58a2:	2522                	fld	fa0,8(sp)
    58a4:	203b2273          	csrrs	tp,hideleg,s6
    58a8:	756d                	lui	a0,0xffffb
    58aa:	62207473          	csrrci	s0,0x622,0
    58ae:	2065                	jal	0x5956
    58b0:	6e69                	lui	t3,0x1a
    58b2:	7b20                	flw	fs0,112(a4)
    58b4:	6574                	flw	fa3,76(a0)
    58b6:	202c7473          	csrrci	s0,hedeleg,24
    58ba:	7274                	flw	fa3,100(a2)
    58bc:	6961                	lui	s2,0x18
    58be:	2c6e                	fld	fs8,216(sp)
    58c0:	7220                	flw	fs0,96(a2)
    58c2:	6665                	lui	a2,0x19
    58c4:	0a7d                	addi	s4,s4,31
    58c6:	0000                	unimp
    58c8:	3d3d                	jal	0x5706
    58ca:	3d3d                	jal	0x5708
    58cc:	3d3d                	jal	0x570a
    58ce:	203d                	jal	0x58fc
    58d0:	7552                	flw	fa0,52(sp)
    58d2:	6e6e                	flw	ft8,216(sp)
    58d4:	6e69                	lui	t3,0x1a
    58d6:	694d2067          	0x694d2067
    58da:	426f7263          	bgeu	t5,t1,0x5cfe
    58de:	6e65                	lui	t3,0x19
    58e0:	5b206863          	bltu	zero,s2,0x5e90
    58e4:	6e69                	lui	t3,0x1a
    58e6:	7570                	flw	fa2,108(a0)
    58e8:	2074                	fld	fa3,192(s0)
    58ea:	252a                	fld	fa0,136(sp)
    58ec:	205d2a73          	csrrs	s4,htvec,s10
    58f0:	3d3d                	jal	0x572e
    58f2:	3d3d                	jal	0x5730
    58f4:	3d3d                	jal	0x5732
    58f6:	0a3d                	addi	s4,s4,15
	...
    5900:	5d73255b          	0x5d73255b
    5904:	2520                	fld	fs0,72(a0)
    5906:	00203a73          	csrrc	s4,frm,zero
    590a:	0000                	unimp
    590c:	0000                	unimp
    590e:	0000                	unimp
    5910:	6928                	flw	fa0,80(a0)
    5912:	736e                	flw	ft6,248(sp)
    5914:	6675                	lui	a2,0x1d
    5916:	6966                	flw	fs2,88(sp)
    5918:	6e656963          	bltu	a0,t1,0x600a
    591c:	2074                	fld	fa3,192(s0)
    591e:	656d                	lui	a0,0x1b
    5920:	6f6d                	lui	t5,0x1b
    5922:	7972                	flw	fs2,60(sp)
    5924:	0029                	c.nop	10
    5926:	0000                	unimp
    5928:	6749                	lui	a4,0x12
    592a:	6f6e                	flw	ft10,216(sp)
    592c:	6572                	flw	fa0,28(sp)
    592e:	2064                	fld	fs1,192(s0)
    5930:	7325                	lui	t1,0xfffe9
    5932:	000a                	c.slli	zero,0x2
    5934:	0000                	unimp
    5936:	0000                	unimp
    5938:	002a                	c.slli	zero,0xa
    593a:	0000                	unimp
    593c:	0000                	unimp
    593e:	0000                	unimp
    5940:	5020                	lw	s0,96(s0)
    5942:	7361                	lui	t1,0xffff8
    5944:	2e646573          	csrrsi	a0,0x2e6,8
	...
    5950:	4620                	lw	s0,72(a2)
    5952:	6961                	lui	s2,0x18
    5954:	656c                	flw	fa1,76(a0)
    5956:	2e64                	fld	fs1,216(a2)
	...
    5960:	2020                	fld	fs0,64(s0)
    5962:	696d                	lui	s2,0x1b
    5964:	206e                	fld	ft0,216(sp)
    5966:	6974                	flw	fa3,84(a0)
    5968:	656d                	lui	a0,0x1b
    596a:	203a                	fld	ft0,392(sp)
    596c:	6425                	lui	s0,0x9
    596e:	6d20                	flw	fs0,88(a0)
    5970:	255b2073          	csrs	0x255,s6
    5974:	5d64                	lw	s1,124(a0)
    5976:	000a                	c.slli	zero,0x2
    5978:	3d3d                	jal	0x57b6
    597a:	3d3d                	jal	0x57b8
    597c:	3d3d                	jal	0x57ba
    597e:	3d3d                	jal	0x57bc
    5980:	3d3d                	jal	0x57be
    5982:	3d3d                	jal	0x57c0
    5984:	3d3d                	jal	0x57c2
    5986:	3d3d                	jal	0x57c4
    5988:	3d3d                	jal	0x57c6
    598a:	3d3d                	jal	0x57c8
    598c:	3d3d                	jal	0x57ca
    598e:	3d3d                	jal	0x57cc
    5990:	3d3d                	jal	0x57ce
    5992:	3d3d                	jal	0x57d0
    5994:	3d3d                	jal	0x57d2
    5996:	3d3d                	jal	0x57d4
    5998:	3d3d                	jal	0x57d6
    599a:	3d3d                	jal	0x57d8
    599c:	3d3d                	jal	0x57da
    599e:	3d3d                	jal	0x57dc
    59a0:	3d3d                	jal	0x57de
    59a2:	3d3d                	jal	0x57e0
    59a4:	3d3d                	jal	0x57e2
    59a6:	3d3d                	jal	0x57e4
    59a8:	3d3d                	jal	0x57e6
    59aa:	000a                	c.slli	zero,0x2
    59ac:	0000                	unimp
    59ae:	0000                	unimp
    59b0:	694d                	lui	s2,0x13
    59b2:	426f7263          	bgeu	t5,t1,0x5dd6
    59b6:	6e65                	lui	t3,0x19
    59b8:	25206863          	bltu	zero,s2,0x5c08
    59bc:	00000073          	ecall
    59c0:	2020                	fld	fs0,64(s0)
    59c2:	2020                	fld	fs0,64(s0)
    59c4:	2020                	fld	fs0,64(s0)
    59c6:	2020                	fld	fs0,64(s0)
    59c8:	6425                	lui	s0,0x9
    59ca:	4d20                	lw	s0,88(a0)
    59cc:	7261                	lui	tp,0xffff8
    59ce:	000a736b          	0xa736b
    59d2:	0000                	unimp
    59d4:	0000                	unimp
    59d6:	0000                	unimp
    59d8:	3769                	jal	0x5962
    59da:	372d                	jal	0x5904
    59dc:	4b303037          	lui	zero,0x4b303
    59e0:	4020                	lw	s0,64(s0)
    59e2:	3420                	fld	fs0,104(s0)
    59e4:	322e                	fld	ft4,232(sp)
    59e6:	4730                	lw	a2,72(a4)
    59e8:	7a48                	flw	fa0,52(a2)
    59ea:	0000                	unimp
    59ec:	0000                	unimp
    59ee:	0000                	unimp
    59f0:	2020                	fld	fs0,64(s0)
    59f2:	2020                	fld	fs0,64(s0)
    59f4:	2020                	fld	fs0,64(s0)
    59f6:	2020                	fld	fs0,64(s0)
    59f8:	2020                	fld	fs0,64(s0)
    59fa:	2020                	fld	fs0,64(s0)
    59fc:	2020                	fld	fs0,64(s0)
    59fe:	2020                	fld	fs0,64(s0)
    5a00:	2020                	fld	fs0,64(s0)
    5a02:	7620                	flw	fs0,104(a2)
    5a04:	25202e73          	csrr	t3,0x252
    5a08:	2064                	fld	fs1,192(s0)
    5a0a:	614d                	addi	sp,sp,176
    5a0c:	6b72                	flw	fs6,28(sp)
    5a0e:	25282073          	csrs	0x252,a6
    5a12:	000a2973          	csrrs	s2,ustatus,s4
    5a16:	0000                	unimp
    5a18:	6f54                	flw	fa3,28(a4)
    5a1a:	6174                	flw	fa3,68(a0)
    5a1c:	206c                	fld	fa1,192(s0)
    5a1e:	6974                	flw	fa3,84(a0)
    5a20:	656d                	lui	a0,0x1b
    5a22:	203a                	fld	ft0,392(sp)
    5a24:	6425                	lui	s0,0x9
    5a26:	6d20                	flw	fs0,88(a0)
    5a28:	00000a73          	0xa73
    5a2c:	0000                	unimp
    5a2e:	0000                	unimp
    5a30:	0058                	addi	a4,sp,4
    5a32:	0000                	unimp
    5a34:	0000                	unimp
    5a36:	0000                	unimp
    5a38:	6d6f682f          	0x6d6f682f
    5a3c:	2f65                	jal	0x61f4
    5a3e:	2f666b77          	0x2f666b77
    5a42:	7270                	flw	fa2,100(a2)
    5a44:	63656a6f          	jal	s4,0x5c07a
    5a48:	6e74                	flw	fa3,92(a2)
    5a4a:	78656e2f          	0x78656e2f
    5a4e:	7375                	lui	t1,0xffffd
    5a50:	612d                	addi	sp,sp,224
    5a52:	2f6d                	jal	0x620c
    5a54:	7061                	c.lui	zero,0xffff8
    5a56:	7370                	flw	fa2,100(a4)
    5a58:	63696d2f          	0x63696d2f
    5a5c:	6f72                	flw	ft10,28(sp)
    5a5e:	6562                	flw	fa0,24(sp)
    5a60:	636e                	flw	ft6,216(sp)
    5a62:	2f68                	fld	fa0,216(a4)
    5a64:	2f637273          	csrrci	tp,0x2f6,6
    5a68:	6562                	flw	fa0,24(sp)
    5a6a:	636e                	flw	ft6,216(sp)
    5a6c:	2e68                	fld	fa0,216(a2)
    5a6e:	73410063          	beq	sp,s4,0x618e
    5a72:	74726573          	csrrsi	a0,0x747,4
    5a76:	6f69                	lui	t5,0x1a
    5a78:	206e                	fld	ft0,216(sp)
    5a7a:	6166                	flw	ft2,88(sp)
    5a7c:	6c69                	lui	s8,0x1a
    5a7e:	6120                	flw	fs0,64(a0)
    5a80:	2074                	fld	fa3,192(s0)
    5a82:	7325                	lui	t1,0xfffe9
    5a84:	253a                	fld	fa0,392(sp)
    5a86:	0a64                	addi	s1,sp,284
	...
    5a90:	7371                	lui	t1,0xffffc
    5a92:	0074726f          	jal	tp,0x4d298
    5a96:	0000                	unimp
    5a98:	7551                	lui	a0,0xffff4
    5a9a:	6369                	lui	t1,0x1a
    5a9c:	6f73206b          	0x6f73206b
    5aa0:	7472                	flw	fs0,60(sp)
    5aa2:	0000                	unimp
    5aa4:	0000                	unimp
    5aa6:	0000                	unimp
    5aa8:	7571                	lui	a0,0xffffc
    5aaa:	6565                	lui	a0,0x19
    5aac:	006e                	c.slli	zero,0x1b
    5aae:	0000                	unimp
    5ab0:	7551                	lui	a0,0xffff4
    5ab2:	6565                	lui	a0,0x19
    5ab4:	206e                	fld	ft0,216(sp)
    5ab6:	6c70                	flw	fa2,92(s0)
    5ab8:	6361                	lui	t1,0x18
    5aba:	6d65                	lui	s10,0x19
    5abc:	6e65                	lui	t3,0x19
    5abe:	0074                	addi	a3,sp,12
    5ac0:	6662                	flw	fa2,24(sp)
    5ac2:	0000                	unimp
    5ac4:	0000                	unimp
    5ac6:	0000                	unimp
    5ac8:	7242                	flw	ft4,48(sp)
    5aca:	6961                	lui	s2,0x18
    5acc:	666e                	flw	fa2,216(sp)
    5ace:	2a2a                	fld	fs4,136(sp)
    5ad0:	6e69206b          	0x6e69206b
    5ad4:	6574                	flw	fa3,76(a0)
    5ad6:	7072                	flw	ft0,60(sp)
    5ad8:	6572                	flw	fa0,28(sp)
    5ada:	6574                	flw	fa3,76(a0)
    5adc:	0072                	c.slli	zero,0x1c
    5ade:	0000                	unimp
    5ae0:	6966                	flw	fs2,88(sp)
    5ae2:	0062                	c.slli	zero,0x18
    5ae4:	0000                	unimp
    5ae6:	0000                	unimp
    5ae8:	6946                	flw	fs2,80(sp)
    5aea:	6f62                	flw	ft10,24(sp)
    5aec:	616e                	flw	ft2,216(sp)
    5aee:	20696363          	bltu	s2,t1,0x5cf4
    5af2:	756e                	flw	fa0,248(sp)
    5af4:	626d                	lui	tp,0x1b
    5af6:	7265                	lui	tp,0xffff9
	...
    5b00:	76656973          	csrrsi	s2,0x766,10
    5b04:	0065                	c.nop	25
    5b06:	0000                	unimp
    5b08:	7245                	lui	tp,0xffff1
    5b0a:	7461                	lui	s0,0xffff8
    5b0c:	6874736f          	jal	t1,0x4d992
    5b10:	6e65                	lui	t3,0x19
    5b12:	7365                	lui	t1,0xffff9
    5b14:	7320                	flw	fs0,96(a4)
    5b16:	6569                	lui	a0,0x1a
    5b18:	6576                	flw	fa0,92(sp)
    5b1a:	0000                	unimp
    5b1c:	0000                	unimp
    5b1e:	0000                	unimp
    5b20:	3531                	jal	0x592c
    5b22:	7a70                	flw	fa2,116(a2)
    5b24:	0000                	unimp
    5b26:	0000                	unimp
    5b28:	2a41                	jal	0x5cb8
    5b2a:	3120                	fld	fs0,96(a0)
    5b2c:	2d35                	jal	0x6168
    5b2e:	7570                	flw	fa2,108(a0)
    5b30:	7a7a                	flw	fs4,188(sp)
    5b32:	656c                	flw	fa1,76(a0)
    5b34:	7320                	flw	fs0,96(a4)
    5b36:	6165                	addi	sp,sp,112
    5b38:	6372                	flw	ft6,28(sp)
    5b3a:	0068                	addi	a0,sp,12
    5b3c:	0000                	unimp
    5b3e:	0000                	unimp
    5b40:	6964                	flw	fs1,84(a0)
    5b42:	696e                	flw	fs2,216(sp)
    5b44:	00000063          	beqz	zero,0x5b44
    5b48:	6944                	flw	fs1,20(a0)
    5b4a:	696e                	flw	fs2,216(sp)
    5b4c:	20732763          	0x20732763
    5b50:	616d                	addi	sp,sp,240
    5b52:	6678                	flw	fa4,76(a2)
    5b54:	6f6c                	flw	fa1,92(a4)
    5b56:	6c612077          	0x6c612077
    5b5a:	69726f67          	0x69726f67
    5b5e:	6874                	flw	fa3,84(s0)
    5b60:	006d                	c.nop	27
    5b62:	0000                	unimp
    5b64:	0000                	unimp
    5b66:	0000                	unimp
    5b68:	7a6c                	flw	fa1,116(a2)
    5b6a:	7069                	c.lui	zero,0xffffa
    5b6c:	0000                	unimp
    5b6e:	0000                	unimp
    5b70:	7a4c                	flw	fa1,52(a2)
    5b72:	7069                	c.lui	zero,0xffffa
    5b74:	6320                	flw	fs0,64(a4)
    5b76:	72706d6f          	jal	s10,0xca9c
    5b7a:	7365                	lui	t1,0xffff9
    5b7c:	6e6f6973          	csrrsi	s2,0x6e6,30
	...
    5b88:	726f7373          	csrrci	t1,0x726,30
    5b8c:	0074                	addi	a3,sp,12
    5b8e:	0000                	unimp
    5b90:	66667553          	0x66667553
    5b94:	7869                	lui	a6,0xffffa
    5b96:	7320                	flw	fs0,96(a4)
    5b98:	0074726f          	jal	tp,0x4d39e
    5b9c:	0000                	unimp
    5b9e:	0000                	unimp
    5ba0:	646d                	lui	s0,0x1b
    5ba2:	0035                	c.nop	13
    5ba4:	0000                	unimp
    5ba6:	0000                	unimp
    5ba8:	444d                	li	s0,19
    5baa:	2035                	jal	0x5bd6
    5bac:	6964                	flw	fs1,84(a0)
    5bae:	74736567          	0x74736567
    5bb2:	0000                	unimp
    5bb4:	0000                	unimp
    5bb6:	0000                	unimp
    5bb8:	a478                	fsd	fa4,200(s0)
    5bba:	d76a                	sw	s10,172(sp)
    5bbc:	b756                	fsd	fs5,424(sp)
    5bbe:	70dbe8c7          	fmsub.s	fa7,fs7,fa3,fa4,unknown
    5bc2:	2420                	fld	fs0,72(s0)
    5bc4:	ceee                	sw	s11,92(sp)
    5bc6:	c1bd                	beqz	a1,0x5c2c
    5bc8:	f57c0faf          	0xf57c0faf
    5bcc:	c62a                	sw	a0,12(sp)
    5bce:	46134787          	flq	fa5,1121(t1) # 0xffffffffffff9461
    5bd2:	a830                	fsd	fa2,80(s0)
    5bd4:	9501                	srai	a0,a0,0x20
    5bd6:	fd46                	fsw	fa7,184(sp)
    5bd8:	98d8                	0x98d8
    5bda:	6980                	flw	fs0,16(a1)
    5bdc:	8b44f7af          	0x8b44f7af
    5be0:	5bb1                	li	s7,-20
    5be2:	ffff                	0xffff
    5be4:	d7be                	sw	a5,236(sp)
    5be6:	895c                	0x895c
    5be8:	1122                	slli	sp,sp,0x28
    5bea:	6b90                	flw	fa2,16(a5)
    5bec:	fd987193          	andi	gp,a6,-39
    5bf0:	438e                	lw	t2,192(sp)
    5bf2:	a679                	j	0x5f80
    5bf4:	0821                	addi	a6,a6,8
    5bf6:	49b4                	lw	a3,80(a1)
    5bf8:	2562                	fld	fa0,24(sp)
    5bfa:	f61e                	fsw	ft7,44(sp)
    5bfc:	b340                	fsd	fs0,160(a4)
    5bfe:	c040                	sw	s0,4(s0)
    5c00:	5a51                	li	s4,-12
    5c02:	265e                	fld	fa2,464(sp)
    5c04:	c7aa                	sw	a0,204(sp)
    5c06:	e9b6                	fsw	fa3,208(sp)
    5c08:	105d                	c.nop	-9
    5c0a:	1453d62f          	0x1453d62f
    5c0e:	0244                	addi	s1,sp,260
    5c10:	e681                	bnez	a3,0x5c18
    5c12:	d8a1                	beqz	s1,0x5b62
    5c14:	fbc8                	fsw	fa0,52(a5)
    5c16:	cde6e7d3          	0xcde6e7d3
    5c1a:	21e1                	jal	0x60e2
    5c1c:	07d6                	slli	a5,a5,0x15
    5c1e:	0d87c337          	lui	t1,0xd87c
    5c22:	f4d5                	bnez	s1,0x5bce
    5c24:	14ed                	addi	s1,s1,-5
    5c26:	455a                	lw	a0,148(sp)
    5c28:	e905                	bnez	a0,0x5c58
    5c2a:	a3f8a9e3          	0xa3f8a9e3
    5c2e:	02d9fcef          	jal	s9,0xa545a
    5c32:	4c8a676f          	jal	a4,0xac0fa
    5c36:	8d2a                	mv	s10,a0
    5c38:	3942                	fld	fs2,48(sp)
    5c3a:	fffa                	fsw	ft10,252(sp)
    5c3c:	f681                	bnez	a3,0x5b44
    5c3e:	8771                	srai	a4,a4,0x1c
    5c40:	6122                	flw	ft2,8(sp)
    5c42:	6d9d                	lui	s11,0x7
    5c44:	380c                	fld	fa1,48(s0)
    5c46:	fde5                	bnez	a1,0x5c3e
    5c48:	ea44                	fsw	fs1,20(a2)
    5c4a:	a4be                	fsd	fa5,72(sp)
    5c4c:	cfa9                	beqz	a5,0x5ca6
    5c4e:	4bde                	lw	s7,212(sp)
    5c50:	4b60                	lw	s0,84(a4)
    5c52:	bc70f6bb          	0xbc70f6bb
    5c56:	7ec6bebf 27fa289b 	0x27fa289b7ec6bebf
    5c5e:	eaa1                	bnez	a3,0x5cae
    5c60:	3085                	jal	0x54c0
    5c62:	1d05d4ef          	jal	s1,0x62e32
    5c66:	0488                	addi	a0,sp,576
    5c68:	d039                	beqz	s0,0x5bae
    5c6a:	d9d4                	sw	a3,52(a1)
    5c6c:	99e5                	andi	a1,a1,-7
    5c6e:	7cf8e6db          	0x7cf8e6db
    5c72:	1fa2                	slli	t6,t6,0x28
    5c74:	5665                	li	a2,-7
    5c76:	c4ac                	sw	a1,72(s1)
    5c78:	2244                	fld	fs1,128(a2)
    5c7a:	f429                	bnez	s0,0x5bc4
    5c7c:	432aff97          	auipc	t6,0x432af
    5c80:	ab9423a7          	fsw	fs9,-1369(s0) # 0x1aaa7
    5c84:	a039                	j	0x5c92
    5c86:	59c3fc93          	andi	s9,t2,1436
    5c8a:	cc92655b          	0xcc92655b
    5c8e:	8f0c                	0x8f0c
    5c90:	f47d                	bnez	s0,0x5c7e
    5c92:	5dd1ffef          	jal	t6,0x25a6e
    5c96:	8584                	0x8584
    5c98:	6fa87e4f          	fnmadd.q	ft8,fa6,fs10,fa3
    5c9c:	e6e0                	fsw	fs0,76(a3)
    5c9e:	fe2c                	fsw	fa1,120(a2)
    5ca0:	4314                	lw	a3,0(a4)
    5ca2:	a301                	j	0x61a2
    5ca4:	11a1                	addi	gp,gp,-24
    5ca6:	4e08                	lw	a0,24(a2)
    5ca8:	7e82                	flw	ft9,32(sp)
    5caa:	f235f753          	0xf235f753
    5cae:	bd3a                	fsd	fa4,184(sp)
    5cb0:	2ad7d2bb          	0x2ad7d2bb
    5cb4:	d391                	beqz	a5,0x5bb8
    5cb6:	eb86                	fsw	ft1,212(sp)
    5cb8:	00000007          	0x7
    5cbc:	000c                	0xc
    5cbe:	0000                	unimp
    5cc0:	0011                	c.nop	4
    5cc2:	0000                	unimp
    5cc4:	0016                	c.slli	zero,0x5
    5cc6:	0000                	unimp
    5cc8:	00000007          	0x7
    5ccc:	000c                	0xc
    5cce:	0000                	unimp
    5cd0:	0011                	c.nop	4
    5cd2:	0000                	unimp
    5cd4:	0016                	c.slli	zero,0x5
    5cd6:	0000                	unimp
    5cd8:	00000007          	0x7
    5cdc:	000c                	0xc
    5cde:	0000                	unimp
    5ce0:	0011                	c.nop	4
    5ce2:	0000                	unimp
    5ce4:	0016                	c.slli	zero,0x5
    5ce6:	0000                	unimp
    5ce8:	00000007          	0x7
    5cec:	000c                	0xc
    5cee:	0000                	unimp
    5cf0:	0011                	c.nop	4
    5cf2:	0000                	unimp
    5cf4:	0016                	c.slli	zero,0x5
    5cf6:	0000                	unimp
    5cf8:	0005                	c.nop	1
    5cfa:	0000                	unimp
    5cfc:	0009                	c.nop	2
    5cfe:	0000                	unimp
    5d00:	000e                	c.slli	zero,0x3
    5d02:	0000                	unimp
    5d04:	0014                	0x14
    5d06:	0000                	unimp
    5d08:	0005                	c.nop	1
    5d0a:	0000                	unimp
    5d0c:	0009                	c.nop	2
    5d0e:	0000                	unimp
    5d10:	000e                	c.slli	zero,0x3
    5d12:	0000                	unimp
    5d14:	0014                	0x14
    5d16:	0000                	unimp
    5d18:	0005                	c.nop	1
    5d1a:	0000                	unimp
    5d1c:	0009                	c.nop	2
    5d1e:	0000                	unimp
    5d20:	000e                	c.slli	zero,0x3
    5d22:	0000                	unimp
    5d24:	0014                	0x14
    5d26:	0000                	unimp
    5d28:	0005                	c.nop	1
    5d2a:	0000                	unimp
    5d2c:	0009                	c.nop	2
    5d2e:	0000                	unimp
    5d30:	000e                	c.slli	zero,0x3
    5d32:	0000                	unimp
    5d34:	0014                	0x14
    5d36:	0000                	unimp
    5d38:	0004                	0x4
    5d3a:	0000                	unimp
    5d3c:	0000000b          	0xb
    5d40:	0010                	0x10
    5d42:	0000                	unimp
    5d44:	00000017          	auipc	zero,0x0
    5d48:	0004                	0x4
    5d4a:	0000                	unimp
    5d4c:	0000000b          	0xb
    5d50:	0010                	0x10
    5d52:	0000                	unimp
    5d54:	00000017          	auipc	zero,0x0
    5d58:	0004                	0x4
    5d5a:	0000                	unimp
    5d5c:	0000000b          	0xb
    5d60:	0010                	0x10
    5d62:	0000                	unimp
    5d64:	00000017          	auipc	zero,0x0
    5d68:	0004                	0x4
    5d6a:	0000                	unimp
    5d6c:	0000000b          	0xb
    5d70:	0010                	0x10
    5d72:	0000                	unimp
    5d74:	00000017          	auipc	zero,0x0
    5d78:	0006                	c.slli	zero,0x1
    5d7a:	0000                	unimp
    5d7c:	000a                	c.slli	zero,0x2
    5d7e:	0000                	unimp
    5d80:	0000000f          	fence	unknown,unknown
    5d84:	0015                	c.nop	5
    5d86:	0000                	unimp
    5d88:	0006                	c.slli	zero,0x1
    5d8a:	0000                	unimp
    5d8c:	000a                	c.slli	zero,0x2
    5d8e:	0000                	unimp
    5d90:	0000000f          	fence	unknown,unknown
    5d94:	0015                	c.nop	5
    5d96:	0000                	unimp
    5d98:	0006                	c.slli	zero,0x1
    5d9a:	0000                	unimp
    5d9c:	000a                	c.slli	zero,0x2
    5d9e:	0000                	unimp
    5da0:	0000000f          	fence	unknown,unknown
    5da4:	0015                	c.nop	5
    5da6:	0000                	unimp
    5da8:	0006                	c.slli	zero,0x1
    5daa:	0000                	unimp
    5dac:	000a                	c.slli	zero,0x2
    5dae:	0000                	unimp
    5db0:	0000000f          	fence	unknown,unknown
    5db4:	0015                	c.nop	5
    5db6:	0000                	unimp
    5db8:	0002                	c.slli64	zero
    5dba:	0000                	unimp
    5dbc:	0808                	addi	a0,sp,16
    5dbe:	0001                	nop
    5dc0:	0808                	addi	a0,sp,16
    5dc2:	0001                	nop
    5dc4:	0000                	unimp
    5dc6:	0000                	unimp
    5dc8:	ffff                	0xffff
    5dca:	ffff                	0xffff
    5dcc:	ffff                	0xffff
    5dce:	ffff                	0xffff
    5dd0:	0000                	unimp
    5dd2:	0000                	unimp
    5dd4:	0001                	nop
    5dd6:	0000                	unimp
    5dd8:	0005                	c.nop	1
    5dda:	0000                	unimp
    5ddc:	0000                	unimp
    5dde:	0000                	unimp
    5de0:	6d6f682f          	0x6d6f682f
    5de4:	2f65                	jal	0x659c
    5de6:	2f666b77          	0x2f666b77
    5dea:	7270                	flw	fa2,100(a2)
    5dec:	63656a6f          	jal	s4,0x5c422
    5df0:	6e74                	flw	fa3,92(a2)
    5df2:	78656e2f          	0x78656e2f
    5df6:	7375                	lui	t1,0xffffd
    5df8:	612d                	addi	sp,sp,224
    5dfa:	2f6d                	jal	0x65b4
    5dfc:	7061                	c.lui	zero,0xffff8
    5dfe:	7370                	flw	fa2,100(a4)
    5e00:	63696d2f          	0x63696d2f
    5e04:	6f72                	flw	ft10,28(sp)
    5e06:	6562                	flw	fa0,24(sp)
    5e08:	636e                	flw	ft6,216(sp)
    5e0a:	2f68                	fld	fa0,216(a4)
    5e0c:	2f637273          	csrrci	tp,0x2f6,6
    5e10:	7a6c                	flw	fa1,116(a2)
    5e12:	7069                	c.lui	zero,0xffffa
    5e14:	6975712f          	0x6975712f
    5e18:	7a6c6b63          	bltu	s8,t1,0x65ce
    5e1c:	682e                	flw	fa6,200(sp)
    5e1e:	0000                	unimp
    5e20:	6d6f682f          	0x6d6f682f
    5e24:	2f65                	jal	0x65dc
    5e26:	2f666b77          	0x2f666b77
    5e2a:	7270                	flw	fa2,100(a2)
    5e2c:	63656a6f          	jal	s4,0x5c462
    5e30:	6e74                	flw	fa3,92(a2)
    5e32:	78656e2f          	0x78656e2f
    5e36:	7375                	lui	t1,0xffffd
    5e38:	612d                	addi	sp,sp,224
    5e3a:	2f6d                	jal	0x65f4
    5e3c:	7061                	c.lui	zero,0xffff8
    5e3e:	7370                	flw	fa2,100(a4)
    5e40:	63696d2f          	0x63696d2f
    5e44:	6f72                	flw	ft10,28(sp)
    5e46:	6562                	flw	fa0,24(sp)
    5e48:	636e                	flw	ft6,216(sp)
    5e4a:	2f68                	fld	fa0,216(a4)
    5e4c:	2f637273          	csrrci	tp,0x2f6,6
    5e50:	7a6c                	flw	fa1,116(a2)
    5e52:	7069                	c.lui	zero,0xffffa
    5e54:	6975712f          	0x6975712f
    5e58:	7a6c6b63          	bltu	s8,t1,0x660e
    5e5c:	632e                	flw	ft6,200(sp)
    5e5e:	0000                	unimp
    5e60:	6d6f682f          	0x6d6f682f
    5e64:	2f65                	jal	0x661c
    5e66:	2f666b77          	0x2f666b77
    5e6a:	7270                	flw	fa2,100(a2)
    5e6c:	63656a6f          	jal	s4,0x5c4a2
    5e70:	6e74                	flw	fa3,92(a2)
    5e72:	78656e2f          	0x78656e2f
    5e76:	7375                	lui	t1,0xffffd
    5e78:	612d                	addi	sp,sp,224
    5e7a:	2f6d                	jal	0x6634
    5e7c:	7061                	c.lui	zero,0xffff8
    5e7e:	7370                	flw	fa2,100(a4)
    5e80:	63696d2f          	0x63696d2f
    5e84:	6f72                	flw	ft10,28(sp)
    5e86:	6562                	flw	fa0,24(sp)
    5e88:	636e                	flw	ft6,216(sp)
    5e8a:	2f68                	fld	fa0,216(a4)
    5e8c:	2f637273          	csrrci	tp,0x2f6,6
    5e90:	3531                	jal	0x5c9c
    5e92:	7a70                	flw	fa2,116(a2)
    5e94:	6165682f          	0x6165682f
    5e98:	2e70                	fld	fa2,216(a2)
    5e9a:	0068                	addi	a0,sp,12
    5e9c:	0000                	unimp
    5e9e:	0000                	unimp
    5ea0:	6d6f682f          	0x6d6f682f
    5ea4:	2f65                	jal	0x665c
    5ea6:	2f666b77          	0x2f666b77
    5eaa:	7270                	flw	fa2,100(a2)
    5eac:	63656a6f          	jal	s4,0x5c4e2
    5eb0:	6e74                	flw	fa3,92(a2)
    5eb2:	78656e2f          	0x78656e2f
    5eb6:	7375                	lui	t1,0xffffd
    5eb8:	612d                	addi	sp,sp,224
    5eba:	2f6d                	jal	0x6674
    5ebc:	7061                	c.lui	zero,0xffff8
    5ebe:	7370                	flw	fa2,100(a4)
    5ec0:	63696d2f          	0x63696d2f
    5ec4:	6f72                	flw	ft10,28(sp)
    5ec6:	6562                	flw	fa0,24(sp)
    5ec8:	636e                	flw	ft6,216(sp)
    5eca:	2f68                	fld	fa0,216(a4)
    5ecc:	2f637273          	csrrci	tp,0x2f6,6
    5ed0:	3531                	jal	0x5cdc
    5ed2:	7a70                	flw	fa2,116(a2)
    5ed4:	7035312f          	0x7035312f
    5ed8:	2e7a                	fld	ft8,408(sp)
    5eda:	00707063          	bgeu	zero,t2,0x5eda
    5ede:	0000                	unimp
    5ee0:	7845                	lui	a6,0xffff1
    5ee2:	7469                	lui	s0,0xffffa
    5ee4:	7720                	flw	fs0,104(a4)
    5ee6:	7469                	lui	s0,0xffffa
    5ee8:	2068                	fld	fa0,192(s0)
    5eea:	65646f63          	bltu	s0,s6,0x6548
    5eee:	3d20                	fld	fs0,120(a0)
    5ef0:	2520                	fld	fs0,72(a0)
    5ef2:	0a64                	addi	s1,sp,284
    5ef4:	7400                	flw	fs0,40(s0)
    5ef6:	7365                	lui	t1,0xffff9
    5ef8:	0074                	addi	a3,sp,12
    5efa:	0000                	unimp
    5efc:	0000                	unimp
    5efe:	0000                	unimp
    5f00:	6d6f682f          	0x6d6f682f
    5f04:	2f65                	jal	0x66bc
    5f06:	2f666b77          	0x2f666b77
    5f0a:	7270                	flw	fa2,100(a2)
    5f0c:	63656a6f          	jal	s4,0x5c542
    5f10:	6e74                	flw	fa3,92(a2)
    5f12:	78656e2f          	0x78656e2f
    5f16:	7375                	lui	t1,0xffffd
    5f18:	612d                	addi	sp,sp,224
    5f1a:	2f6d                	jal	0x66d4
    5f1c:	6d61                	lui	s10,0x18
    5f1e:	6372732f          	0x6372732f
    5f22:	6f6f6e2f          	0x6f6f6e2f
    5f26:	2f70                	fld	fa2,216(a4)
    5f28:	6d6d6f63          	bltu	s10,s6,0x6606
    5f2c:	692f6e6f          	jal	t3,0xfc5be
    5f30:	706e                	flw	ft0,248(sp)
    5f32:	7475                	lui	s0,0xffffd
    5f34:	632e                	flw	ft6,200(sp)
	...
    5fb6:	0000                	unimp
    5fb8:	0046                	c.slli	zero,0x11
	...
    5ff6:	0000                	unimp
    5ff8:	0018                	0x18
    5ffa:	0000                	unimp
    5ffc:	0000000f          	fence	unknown,unknown
    6000:	0010                	0x10
    6002:	0000                	unimp
    6004:	0011                	c.nop	4
    6006:	0000                	unimp
    6008:	0012                	c.slli	zero,0x4
    600a:	0000                	unimp
    600c:	00000013          	nop
    6010:	0014                	0x14
    6012:	0000                	unimp
    6014:	0015                	c.nop	5
    6016:	0000                	unimp
    6018:	0016                	c.slli	zero,0x5
    601a:	0000                	unimp
    601c:	00000017          	auipc	zero,0x0
	...
    60bc:	0000002b          	0x2b
    60c0:	003c                	addi	a5,sp,8
    60c2:	0000                	unimp
    60c4:	003a                	c.slli	zero,0xe
    60c6:	0000                	unimp
    60c8:	002d                	c.nop	11
    60ca:	0000                	unimp
    60cc:	001f 0000 002e      	0x2e0000001f
    60d2:	0000                	unimp
    60d4:	0000002f          	0x2f
    60d8:	0030                	addi	a2,sp,8
    60da:	0000                	unimp
    60dc:	0024                	addi	s1,sp,8
    60de:	0000                	unimp
    60e0:	0031                	c.nop	12
    60e2:	0000                	unimp
    60e4:	0032                	c.slli	zero,0xc
    60e6:	0000                	unimp
    60e8:	00000033          	add	zero,zero,zero
    60ec:	003e                	c.slli	zero,0xf
    60ee:	0000                	unimp
    60f0:	003d                	c.nop	15
    60f2:	0000                	unimp
    60f4:	0025                	c.nop	9
    60f6:	0000                	unimp
    60f8:	0026                	c.slli	zero,0x9
    60fa:	0000                	unimp
    60fc:	001d                	c.nop	7
    60fe:	0000                	unimp
    6100:	0020                	addi	s0,sp,8
    6102:	0000                	unimp
    6104:	002c                	addi	a1,sp,8
    6106:	0000                	unimp
    6108:	0021                	c.nop	8
    610a:	0000                	unimp
    610c:	00000023          	sb	zero,0(zero) # 0x0
    6110:	0000003b          	0x3b
    6114:	001e                	c.slli	zero,0x7
    6116:	0000                	unimp
    6118:	0039                	c.nop	14
    611a:	0000                	unimp
    611c:	0022                	c.slli	zero,0x8
    611e:	0000                	unimp
    6120:	0038                	addi	a4,sp,8
	...
    6136:	0000                	unimp
    6138:	ef7c                	fsw	fa5,92(a4)
    613a:	ffff                	0xffff
    613c:	eb20                	fsw	fs0,80(a4)
    613e:	ffff                	0xffff
    6140:	eb20                	fsw	fs0,80(a4)
    6142:	ffff                	0xffff
    6144:	ec40                	fsw	fs0,28(s0)
    6146:	ffff                	0xffff
    6148:	eb20                	fsw	fs0,80(a4)
    614a:	ffff                	0xffff
    614c:	ef68                	fsw	fa0,92(a4)
    614e:	ffff                	0xffff
    6150:	eb20                	fsw	fs0,80(a4)
    6152:	ffff                	0xffff
    6154:	eb20                	fsw	fs0,80(a4)
    6156:	ffff                	0xffff
    6158:	eb20                	fsw	fs0,80(a4)
    615a:	ffff                	0xffff
    615c:	eb20                	fsw	fs0,80(a4)
    615e:	ffff                	0xffff
    6160:	eb20                	fsw	fs0,80(a4)
    6162:	ffff                	0xffff
    6164:	ef58                	fsw	fa4,28(a4)
    6166:	ffff                	0xffff
    6168:	eb20                	fsw	fs0,80(a4)
    616a:	ffff                	0xffff
    616c:	f054                	fsw	fa3,36(s0)
    616e:	ffff                	0xffff
    6170:	ef94                	fsw	fa3,24(a5)
    6172:	ffff                	0xffff
    6174:	eb20                	fsw	fs0,80(a4)
    6176:	ffff                	0xffff
    6178:	ed74                	fsw	fa3,92(a0)
    617a:	ffff                	0xffff
    617c:	ec04                	fsw	fs1,24(s0)
    617e:	ffff                	0xffff
    6180:	ec04                	fsw	fs1,24(s0)
    6182:	ffff                	0xffff
    6184:	ec04                	fsw	fs1,24(s0)
    6186:	ffff                	0xffff
    6188:	ec04                	fsw	fs1,24(s0)
    618a:	ffff                	0xffff
    618c:	ec04                	fsw	fs1,24(s0)
    618e:	ffff                	0xffff
    6190:	ec04                	fsw	fs1,24(s0)
    6192:	ffff                	0xffff
    6194:	ec04                	fsw	fs1,24(s0)
    6196:	ffff                	0xffff
    6198:	ec04                	fsw	fs1,24(s0)
    619a:	ffff                	0xffff
    619c:	ec04                	fsw	fs1,24(s0)
    619e:	ffff                	0xffff
    61a0:	eb20                	fsw	fs0,80(a4)
    61a2:	ffff                	0xffff
    61a4:	eb20                	fsw	fs0,80(a4)
    61a6:	ffff                	0xffff
    61a8:	eb20                	fsw	fs0,80(a4)
    61aa:	ffff                	0xffff
    61ac:	eb20                	fsw	fs0,80(a4)
    61ae:	ffff                	0xffff
    61b0:	eb20                	fsw	fs0,80(a4)
    61b2:	ffff                	0xffff
    61b4:	eb20                	fsw	fs0,80(a4)
    61b6:	ffff                	0xffff
    61b8:	eb20                	fsw	fs0,80(a4)
    61ba:	ffff                	0xffff
    61bc:	eb20                	fsw	fs0,80(a4)
    61be:	ffff                	0xffff
    61c0:	eb20                	fsw	fs0,80(a4)
    61c2:	ffff                	0xffff
    61c4:	eb20                	fsw	fs0,80(a4)
    61c6:	ffff                	0xffff
    61c8:	eb20                	fsw	fs0,80(a4)
    61ca:	ffff                	0xffff
    61cc:	eb20                	fsw	fs0,80(a4)
    61ce:	ffff                	0xffff
    61d0:	eb20                	fsw	fs0,80(a4)
    61d2:	ffff                	0xffff
    61d4:	eb20                	fsw	fs0,80(a4)
    61d6:	ffff                	0xffff
    61d8:	eb20                	fsw	fs0,80(a4)
    61da:	ffff                	0xffff
    61dc:	eb20                	fsw	fs0,80(a4)
    61de:	ffff                	0xffff
    61e0:	eb20                	fsw	fs0,80(a4)
    61e2:	ffff                	0xffff
    61e4:	eb20                	fsw	fs0,80(a4)
    61e6:	ffff                	0xffff
    61e8:	eb20                	fsw	fs0,80(a4)
    61ea:	ffff                	0xffff
    61ec:	eb20                	fsw	fs0,80(a4)
    61ee:	ffff                	0xffff
    61f0:	eb20                	fsw	fs0,80(a4)
    61f2:	ffff                	0xffff
    61f4:	eb20                	fsw	fs0,80(a4)
    61f6:	ffff                	0xffff
    61f8:	eb20                	fsw	fs0,80(a4)
    61fa:	ffff                	0xffff
    61fc:	eb20                	fsw	fs0,80(a4)
    61fe:	ffff                	0xffff
    6200:	eb20                	fsw	fs0,80(a4)
    6202:	ffff                	0xffff
    6204:	eb20                	fsw	fs0,80(a4)
    6206:	ffff                	0xffff
    6208:	eb20                	fsw	fs0,80(a4)
    620a:	ffff                	0xffff
    620c:	eb20                	fsw	fs0,80(a4)
    620e:	ffff                	0xffff
    6210:	eb20                	fsw	fs0,80(a4)
    6212:	ffff                	0xffff
    6214:	eb20                	fsw	fs0,80(a4)
    6216:	ffff                	0xffff
    6218:	ec48                	fsw	fa0,28(s0)
    621a:	ffff                	0xffff
    621c:	eb20                	fsw	fs0,80(a4)
    621e:	ffff                	0xffff
    6220:	eb20                	fsw	fs0,80(a4)
    6222:	ffff                	0xffff
    6224:	eb20                	fsw	fs0,80(a4)
    6226:	ffff                	0xffff
    6228:	eb20                	fsw	fs0,80(a4)
    622a:	ffff                	0xffff
    622c:	eb20                	fsw	fs0,80(a4)
    622e:	ffff                	0xffff
    6230:	eb20                	fsw	fs0,80(a4)
    6232:	ffff                	0xffff
    6234:	eb20                	fsw	fs0,80(a4)
    6236:	ffff                	0xffff
    6238:	eb20                	fsw	fs0,80(a4)
    623a:	ffff                	0xffff
    623c:	eb20                	fsw	fs0,80(a4)
    623e:	ffff                	0xffff
    6240:	eb20                	fsw	fs0,80(a4)
    6242:	ffff                	0xffff
    6244:	f078                	fsw	fa4,100(s0)
    6246:	ffff                	0xffff
    6248:	efd8                	fsw	fa4,28(a5)
    624a:	ffff                	0xffff
    624c:	eb20                	fsw	fs0,80(a4)
    624e:	ffff                	0xffff
    6250:	eb20                	fsw	fs0,80(a4)
    6252:	ffff                	0xffff
    6254:	eb20                	fsw	fs0,80(a4)
    6256:	ffff                	0xffff
    6258:	f064                	fsw	fs1,100(s0)
    625a:	ffff                	0xffff
    625c:	efd8                	fsw	fa4,28(a5)
    625e:	ffff                	0xffff
    6260:	eb20                	fsw	fs0,80(a4)
    6262:	ffff                	0xffff
    6264:	eb20                	fsw	fs0,80(a4)
    6266:	ffff                	0xffff
    6268:	ef44                	fsw	fs1,28(a4)
    626a:	ffff                	0xffff
    626c:	eb20                	fsw	fs0,80(a4)
    626e:	ffff                	0xffff
    6270:	eb20                	fsw	fs0,80(a4)
    6272:	ffff                	0xffff
    6274:	eec0                	fsw	fs0,28(a3)
    6276:	ffff                	0xffff
    6278:	ee7c                	fsw	fa5,92(a2)
    627a:	ffff                	0xffff
    627c:	eb20                	fsw	fs0,80(a4)
    627e:	ffff                	0xffff
    6280:	eb20                	fsw	fs0,80(a4)
    6282:	ffff                	0xffff
    6284:	ee08                	fsw	fa0,24(a2)
    6286:	ffff                	0xffff
    6288:	eb20                	fsw	fs0,80(a4)
    628a:	ffff                	0xffff
    628c:	ed8c                	fsw	fa1,24(a1)
    628e:	ffff                	0xffff
    6290:	eb20                	fsw	fs0,80(a4)
    6292:	ffff                	0xffff
    6294:	eb20                	fsw	fs0,80(a4)
    6296:	ffff                	0xffff
    6298:	ec48                	fsw	fa0,28(s0)
    629a:	ffff                	0xffff
    629c:	0000                	unimp
    629e:	0000                	unimp
    62a0:	6e28                	flw	fa0,88(a2)
    62a2:	6c69                	lui	s8,0x1a
    62a4:	0029                	c.nop	10
    62a6:	0000                	unimp
    62a8:	3130                	fld	fa2,96(a0)
    62aa:	3332                	fld	ft6,296(sp)
    62ac:	3534                	fld	fa3,104(a0)
    62ae:	3736                	fld	fa4,360(sp)
    62b0:	3938                	fld	fa4,112(a0)
    62b2:	6261                	lui	tp,0x18
    62b4:	66656463          	bltu	a0,t1,0x691c
	...
    62c0:	00fc                	addi	a5,sp,76
    62c2:	8000                	0x8000
    62c4:	0000                	unimp
    62c6:	0000                	unimp
    62c8:	01b0                	addi	a2,sp,200
    62ca:	8000                	0x8000
    62cc:	0000                	unimp
    62ce:	0000                	unimp
    62d0:	01d0                	addi	a2,sp,196
    62d2:	8000                	0x8000
    62d4:	0000                	unimp
    62d6:	0000                	unimp
    62d8:	5a90                	lw	a2,48(a3)
    62da:	8000                	0x8000
    62dc:	0000                	unimp
    62de:	0000                	unimp
    62e0:	5a98                	lw	a4,48(a3)
    62e2:	8000                	0x8000
    62e4:	0000                	unimp
    62e6:	0000                	unimp
    62e8:	0064                	addi	s1,sp,12
    62ea:	0000                	unimp
    62ec:	0000                	unimp
    62ee:	0000                	unimp
    62f0:	0400                	addi	s0,sp,512
	...
    62fe:	0000                	unimp
    6300:	7105                	addi	sp,sp,-480
    6302:	0846                	slli	a6,a6,0x11
    6304:	0000                	unimp
    6306:	0000                	unimp
    6308:	7530                	flw	fa2,104(a0)
	...
    6312:	0002                	c.slli64	zero
	...
    6320:	9fe4                	0x9fe4
    6322:	a3e9                	j	0x68ec
    6324:	0000                	unimp
    6326:	0000                	unimp
    6328:	86a0                	0x86a0
    632a:	0001                	nop
    632c:	0000                	unimp
    632e:	0000                	unimp
    6330:	0000                	unimp
    6332:	000a                	c.slli	zero,0x2
    6334:	0000                	unimp
    6336:	0000                	unimp
    6338:	13fa                	slli	t2,t2,0x3e
    633a:	0000                	unimp
    633c:	0000                	unimp
    633e:	0000                	unimp
    6340:	ff89                	bnez	a5,0x625a
    6342:	ed8c                	fsw	fa1,24(a1)
    6344:	0000                	unimp
    6346:	0000                	unimp
    6348:	1ae4                	addi	s1,sp,380
    634a:	8000                	0x8000
    634c:	0000                	unimp
    634e:	0000                	unimp
    6350:	1b14                	addi	a3,sp,432
    6352:	8000                	0x8000
    6354:	0000                	unimp
    6356:	0000                	unimp
    6358:	1b40                	addi	s0,sp,436
    635a:	8000                	0x8000
    635c:	0000                	unimp
    635e:	0000                	unimp
    6360:	5aa8                	lw	a0,112(a3)
    6362:	8000                	0x8000
    6364:	0000                	unimp
    6366:	0000                	unimp
    6368:	5ab0                	lw	a2,112(a3)
    636a:	8000                	0x8000
    636c:	0000                	unimp
    636e:	0000                	unimp
    6370:	0008                	0x8
	...
    6386:	0000                	unimp
    6388:	005c                	addi	a5,sp,4
    638a:	0000                	unimp
    638c:	0000                	unimp
    638e:	0000                	unimp
    6390:	0000000b          	0xb
	...
    63a8:	0a78                	addi	a4,sp,284
    63aa:	0000                	unimp
    63ac:	0000                	unimp
    63ae:	0000                	unimp
    63b0:	000c                	0xc
	...
    63be:	0000                	unimp
    63c0:	00001263          	bnez	zero,0x63c4
    63c4:	0000                	unimp
    63c6:	0000                	unimp
    63c8:	3778                	fld	fa4,232(a4)
    63ca:	0000                	unimp
    63cc:	0000                	unimp
    63ce:	0000                	unimp
    63d0:	0224                	addi	s1,sp,264
    63d2:	8000                	0x8000
    63d4:	0000                	unimp
    63d6:	0000                	unimp
    63d8:	0348                	addi	a0,sp,388
    63da:	8000                	0x8000
    63dc:	0000                	unimp
    63de:	0000                	unimp
    63e0:	0774                	addi	a3,sp,908
    63e2:	8000                	0x8000
    63e4:	0000                	unimp
    63e6:	0000                	unimp
    63e8:	5ac0                	lw	s0,52(a3)
    63ea:	8000                	0x8000
    63ec:	0000                	unimp
    63ee:	0000                	unimp
    63f0:	5ac8                	lw	a0,52(a3)
    63f2:	8000                	0x8000
    63f4:	0000                	unimp
    63f6:	0000                	unimp
    63f8:	0004                	0x4
    63fa:	0000                	unimp
    63fc:	0000                	unimp
    63fe:	0000                	unimp
    6400:	8000                	0x8000
	...
    640e:	0000                	unimp
    6410:	079e                	slli	a5,a5,0x7
    6412:	a6f0                	fsd	fa2,200(a3)
    6414:	0000                	unimp
    6416:	0000                	unimp
    6418:	0019                	c.nop	6
    641a:	0000                	unimp
    641c:	0000                	unimp
    641e:	0000                	unimp
    6420:	8000                	0x8000
	...
    642e:	0000                	unimp
    6430:	8a65                	andi	a2,a2,25
    6432:	0000a88f          	0xa88f
    6436:	0000                	unimp
    6438:	00b4                	addi	a3,sp,72
    643a:	0000                	unimp
    643c:	0000                	unimp
    643e:	0000                	unimp
    6440:	8000                	0x8000
    6442:	0000                	unimp
    6444:	0000                	unimp
    6446:	0000                	unimp
    6448:	5c79                	li	s8,-2
    644a:	0000                	unimp
    644c:	0000                	unimp
    644e:	0000                	unimp
    6450:	9221e2b3          	0x9221e2b3
    6454:	0000                	unimp
    6456:	0000                	unimp
    6458:	1fc4                	addi	s1,sp,1012
    645a:	8000                	0x8000
    645c:	0000                	unimp
    645e:	0000                	unimp
    6460:	2040                	fld	fs0,128(s0)
    6462:	8000                	0x8000
    6464:	0000                	unimp
    6466:	0000                	unimp
    6468:	22f0                	fld	fa2,192(a3)
    646a:	8000                	0x8000
    646c:	0000                	unimp
    646e:	0000                	unimp
    6470:	5ae0                	lw	s0,116(a3)
    6472:	8000                	0x8000
    6474:	0000                	unimp
    6476:	0000                	unimp
    6478:	5ae8                	lw	a0,116(a3)
    647a:	8000                	0x8000
    647c:	0000                	unimp
    647e:	0000                	unimp
    6480:	0002                	c.slli64	zero
    6482:	0000                	unimp
    6484:	0000                	unimp
    6486:	0000                	unimp
    6488:	0400                	addi	s0,sp,512
	...
    6496:	0000                	unimp
    6498:	ddf0                	sw	a2,124(a1)
    649a:	7cfe                	flw	fs9,252(sp)
    649c:	0000                	unimp
    649e:	0000                	unimp
    64a0:	00000017          	auipc	zero,0x0
    64a4:	0000                	unimp
    64a6:	0000                	unimp
    64a8:	4000                	lw	s0,0(s0)
	...
    64b6:	0000                	unimp
    64b8:	8800                	0x8800
    64ba:	94ad                	srai	s1,s1,0x2b
    64bc:	0000                	unimp
    64be:	0000                	unimp
    64c0:	0000005b          	0x5b
    64c4:	0000                	unimp
    64c6:	0000                	unimp
    64c8:	0000                	unimp
    64ca:	0004                	0x4
    64cc:	0000                	unimp
    64ce:	0000                	unimp
    64d0:	6e9e                	flw	ft9,196(sp)
    64d2:	0000                	unimp
    64d4:	0000                	unimp
    64d6:	0000                	unimp
    64d8:	5f80                	lw	s0,56(a5)
    64da:	ebdc                	fsw	fa5,20(a5)
    64dc:	0000                	unimp
    64de:	0000                	unimp
    64e0:	0ee8                	addi	a0,sp,860
    64e2:	8000                	0x8000
    64e4:	0000                	unimp
    64e6:	0000                	unimp
    64e8:	0f70                	addi	a2,sp,924
    64ea:	8000                	0x8000
    64ec:	0000                	unimp
    64ee:	0000                	unimp
    64f0:	10bc                	addi	a5,sp,104
    64f2:	8000                	0x8000
    64f4:	0000                	unimp
    64f6:	0000                	unimp
    64f8:	5b00                	lw	s0,48(a4)
    64fa:	8000                	0x8000
    64fc:	0000                	unimp
    64fe:	0000                	unimp
    6500:	5b08                	lw	a0,48(a4)
    6502:	8000                	0x8000
    6504:	0000                	unimp
    6506:	0000                	unimp
    6508:	0064                	addi	s1,sp,12
    650a:	0000                	unimp
    650c:	0000                	unimp
    650e:	0000                	unimp
    6510:	0400                	addi	s0,sp,512
	...
    651e:	0000                	unimp
    6520:	0019                	c.nop	6
    6522:	0000                	unimp
    6524:	0000                	unimp
    6526:	0000                	unimp
    6528:	0d40                	addi	s0,sp,660
    652a:	00000003          	lb	zero,0(zero) # 0x0
    652e:	0000                	unimp
    6530:	8000                	0x8000
	...
    653e:	0000                	unimp
    6540:	4640                	lw	s0,12(a2)
    6542:	0000                	unimp
    6544:	0000                	unimp
    6546:	0000                	unimp
    6548:	9680                	0x9680
    654a:	0098                	addi	a4,sp,64
    654c:	0000                	unimp
    654e:	0000                	unimp
    6550:	0000                	unimp
    6552:	0020                	addi	s0,sp,8
    6554:	0000                	unimp
    6556:	0000                	unimp
    6558:	99c1                	andi	a1,a1,-16
    655a:	0000                	unimp
    655c:	0000                	unimp
    655e:	0000                	unimp
    6560:	000a2403          	lw	s0,0(s4)
    6564:	0000                	unimp
    6566:	0000                	unimp
    6568:	2ebc                	fld	fa5,88(a3)
    656a:	8000                	0x8000
    656c:	0000                	unimp
    656e:	0000                	unimp
    6570:	2f58                	fld	fa4,152(a4)
    6572:	8000                	0x8000
    6574:	0000                	unimp
    6576:	0000                	unimp
    6578:	2ec0                	fld	fs0,152(a3)
    657a:	8000                	0x8000
    657c:	0000                	unimp
    657e:	0000                	unimp
    6580:	5b20                	lw	s0,112(a4)
    6582:	8000                	0x8000
    6584:	0000                	unimp
    6586:	0000                	unimp
    6588:	5b28                	lw	a0,112(a4)
    658a:	8000                	0x8000
	...
    6598:	0400                	addi	s0,sp,512
	...
    65a6:	0000                	unimp
    65a8:	0006                	c.slli	zero,0x1
    65aa:	0000                	unimp
    65ac:	0000                	unimp
    65ae:	0000                	unimp
    65b0:	0001                	nop
	...
    65ba:	0004                	0x4
	...
    65c8:	b0df 0000 0000      	0xb0df
    65ce:	0000                	unimp
    65d0:	0002                	c.slli64	zero
	...
    65da:	0020                	addi	s0,sp,8
    65dc:	0000                	unimp
    65de:	0000                	unimp
    65e0:	1186                	slli	gp,gp,0x21
    65e2:	0000                	unimp
    65e4:	0000                	unimp
    65e6:	0000                	unimp
    65e8:	8b8c                	0x8b8c
    65ea:	0006                	c.slli	zero,0x1
    65ec:	0000                	unimp
    65ee:	0000                	unimp
    65f0:	07f8                	addi	a4,sp,972
    65f2:	8000                	0x8000
    65f4:	0000                	unimp
    65f6:	0000                	unimp
    65f8:	0bd8                	addi	a4,sp,468
    65fa:	8000                	0x8000
    65fc:	0000                	unimp
    65fe:	0000                	unimp
    6600:	0ec0                	addi	s0,sp,852
    6602:	8000                	0x8000
    6604:	0000                	unimp
    6606:	0000                	unimp
    6608:	5b40                	lw	s0,52(a4)
    660a:	8000                	0x8000
    660c:	0000                	unimp
    660e:	0000                	unimp
    6610:	5b48                	lw	a0,52(a4)
    6612:	8000                	0x8000
    6614:	0000                	unimp
    6616:	0000                	unimp
    6618:	000a                	c.slli	zero,0x2
    661a:	0000                	unimp
    661c:	0000                	unimp
    661e:	0000                	unimp
    6620:	2000                	fld	fs0,0(s0)
	...
    662e:	0000                	unimp
    6630:	019c                	addi	a5,sp,192
    6632:	0000                	unimp
    6634:	0000                	unimp
    6636:	0000                	unimp
    6638:	0050                	addi	a2,sp,4
	...
    6642:	0008                	0x8
	...
    6650:	4f99                	li	t6,6
    6652:	0000                	unimp
    6654:	0000                	unimp
    6656:	0000                	unimp
    6658:	0080                	addi	s0,sp,64
	...
    6662:	0010                	0x10
    6664:	0000                	unimp
    6666:	0000                	unimp
    6668:	2a82                	fld	fs5,0(sp)
    666a:	0000                	unimp
    666c:	0000                	unimp
    666e:	0000                	unimp
    6670:	c248                	sw	a0,4(a2)
    6672:	0000                	unimp
    6674:	0000                	unimp
    6676:	0000                	unimp
    6678:	233c                	fld	fa5,64(a4)
    667a:	8000                	0x8000
    667c:	0000                	unimp
    667e:	0000                	unimp
    6680:	2410                	fld	fa2,8(s0)
    6682:	8000                	0x8000
    6684:	0000                	unimp
    6686:	0000                	unimp
    6688:	2460                	fld	fs0,200(s0)
    668a:	8000                	0x8000
    668c:	0000                	unimp
    668e:	0000                	unimp
    6690:	5b68                	lw	a0,116(a4)
    6692:	8000                	0x8000
    6694:	0000                	unimp
    6696:	0000                	unimp
    6698:	5b70                	lw	a2,116(a4)
    669a:	8000                	0x8000
    669c:	0000                	unimp
    669e:	0000                	unimp
    66a0:	0080                	addi	s0,sp,64
	...
    66aa:	0002                	c.slli64	zero
	...
    66b8:	c832                	sw	a2,16(sp)
    66ba:	e05f 0000 0000      	0xe05f
    66c0:	c350                	sw	a2,4(a4)
	...
    66ca:	0010                	0x10
	...
    66d8:	e90c                	fsw	fa1,16(a0)
    66da:	0000dc93          	srli	s9,ra,0x0
    66de:	0000                	unimp
    66e0:	0000                	unimp
    66e2:	0010                	0x10
    66e4:	0000                	unimp
    66e6:	0000                	unimp
    66e8:	0000                	unimp
    66ea:	0040                	addi	s0,sp,4
    66ec:	0000                	unimp
    66ee:	0000                	unimp
    66f0:	1da9                	addi	s11,s11,-22
    66f2:	0000                	unimp
    66f4:	0000                	unimp
    66f6:	0000                	unimp
    66f8:	c81f 8d62 0000      	0x8d62c81f
    66fe:	0000                	unimp
    6700:	1798                	addi	a4,sp,992
    6702:	8000                	0x8000
    6704:	0000                	unimp
    6706:	0000                	unimp
    6708:	1864                	addi	s1,sp,60
    670a:	8000                	0x8000
    670c:	0000                	unimp
    670e:	0000                	unimp
    6710:	1890                	addi	a2,sp,112
    6712:	8000                	0x8000
    6714:	0000                	unimp
    6716:	0000                	unimp
    6718:	5b88                	lw	a0,48(a5)
    671a:	8000                	0x8000
    671c:	0000                	unimp
    671e:	0000                	unimp
    6720:	5b90                	lw	a2,48(a5)
    6722:	8000                	0x8000
    6724:	0000                	unimp
    6726:	0000                	unimp
    6728:	0064                	addi	s1,sp,12
    672a:	0000                	unimp
    672c:	0000                	unimp
    672e:	0000                	unimp
    6730:	1000                	addi	s0,sp,32
	...
    673e:	0000                	unimp
    6740:	5e09                	li	t3,-30
    6742:	4c55                	li	s8,21
    6744:	0000                	unimp
    6746:	0000                	unimp
    6748:	2710                	fld	fa2,8(a4)
	...
    6752:	0008                	0x8
	...
    6760:	0db7909b          	0xdb7909b
    6764:	0000                	unimp
    6766:	0000                	unimp
    6768:	86a0                	0x86a0
    676a:	0001                	nop
    676c:	0000                	unimp
    676e:	0000                	unimp
    6770:	0000                	unimp
    6772:	0040                	addi	s0,sp,4
    6774:	0000                	unimp
    6776:	0000                	unimp
    6778:	1198                	addi	a4,sp,224
    677a:	0000                	unimp
    677c:	0000                	unimp
    677e:	0000                	unimp
    6780:	b431                	j	0x618c
    6782:	4f0a                	lw	t5,128(sp)
    6784:	0000                	unimp
    6786:	0000                	unimp
    6788:	1b68                	addi	a0,sp,444
    678a:	8000                	0x8000
    678c:	0000                	unimp
    678e:	0000                	unimp
    6790:	1c10                	addi	a2,sp,560
    6792:	8000                	0x8000
    6794:	0000                	unimp
    6796:	0000                	unimp
    6798:	1f80                	addi	s0,sp,1008
    679a:	8000                	0x8000
    679c:	0000                	unimp
    679e:	0000                	unimp
    67a0:	5ba0                	lw	s0,112(a5)
    67a2:	8000                	0x8000
    67a4:	0000                	unimp
    67a6:	0000                	unimp
    67a8:	5ba8                	lw	a0,112(a5)
    67aa:	8000                	0x8000
    67ac:	0000                	unimp
    67ae:	0000                	unimp
    67b0:	0064                	addi	s1,sp,12
    67b2:	0000                	unimp
    67b4:	0000                	unimp
    67b6:	0000                	unimp
    67b8:	0400                	addi	s0,sp,512
	...
    67c6:	0000                	unimp
    67c8:	f902f28f          	0xf902f28f
    67cc:	0000                	unimp
    67ce:	0000                	unimp
    67d0:	0d40                	addi	s0,sp,660
    67d2:	00000003          	lb	zero,0(zero) # 0x0
    67d6:	0000                	unimp
    67d8:	0000                	unimp
    67da:	0004                	0x4
	...
    67e8:	bc6d                	j	0x62a2
    67ea:	d4f9                	beqz	s1,0x67b8
    67ec:	0000                	unimp
    67ee:	0000                	unimp
    67f0:	9680                	0x9680
    67f2:	0098                	addi	a4,sp,64
    67f4:	0000                	unimp
    67f6:	0000                	unimp
    67f8:	0000                	unimp
    67fa:	0100                	addi	s0,sp,128
    67fc:	0000                	unimp
    67fe:	0000                	unimp
    6800:	00004357          	0x4357
    6804:	0000                	unimp
    6806:	0000                	unimp
    6808:	6a42                	flw	fs4,16(sp)
    680a:	2728                	fld	fa0,72(a4)
    680c:	0000                	unimp
    680e:	0000                	unimp
    6810:	0001                	nop
    6812:	0000                	unimp
    6814:	0002                	c.slli64	zero
    6816:	0000                	unimp
    6818:	00000003          	lb	zero,0(zero) # 0x0
    681c:	0004                	0x4
    681e:	0000                	unimp
    6820:	0005                	c.nop	1
    6822:	0000                	unimp
    6824:	0006                	c.slli	zero,0x1
    6826:	0000                	unimp
    6828:	00000007          	0x7
    682c:	0008                	0x8
    682e:	0000                	unimp
    6830:	0009                	c.nop	2
    6832:	0000                	unimp
    6834:	000a                	c.slli	zero,0x2
    6836:	0000                	unimp
    6838:	0000                	unimp
    683a:	0000                	unimp
    683c:	0000000b          	0xb
    6840:	000d                	c.nop	3
    6842:	0000                	unimp
    6844:	000e                	c.slli	zero,0x3
    6846:	0000                	unimp
    6848:	0000000f          	fence	unknown,unknown
    684c:	000c                	0xc
    684e:	0000                	unimp
    6850:	0001                	nop
    6852:	0000                	unimp
    6854:	0002                	c.slli64	zero
    6856:	0000                	unimp
    6858:	00000003          	lb	zero,0(zero) # 0x0
    685c:	0004                	0x4
    685e:	0000                	unimp
    6860:	0005                	c.nop	1
    6862:	0000                	unimp
    6864:	0006                	c.slli	zero,0x1
    6866:	0000                	unimp
    6868:	00000007          	0x7
    686c:	0008                	0x8
    686e:	0000                	unimp
    6870:	000c                	0xc
    6872:	0000                	unimp
    6874:	0000                	unimp
    6876:	0000                	unimp
    6878:	000e                	c.slli	zero,0x3
    687a:	0000                	unimp
    687c:	000d                	c.nop	3
    687e:	0000                	unimp
    6880:	0000000b          	0xb
    6884:	0000000f          	fence	unknown,unknown
    6888:	000a                	c.slli	zero,0x2
    688a:	0000                	unimp
    688c:	0009                	c.nop	2
    688e:	0000                	unimp
    6890:	0000                	unimp
    6892:	0000                	unimp
    6894:	0002                	c.slli64	zero
    6896:	0000                	unimp
    6898:	00000003          	lb	zero,0(zero) # 0x0
    689c:	0004                	0x4
    689e:	0000                	unimp
    68a0:	0009                	c.nop	2
    68a2:	0000                	unimp
    68a4:	0006                	c.slli	zero,0x1
    68a6:	0000                	unimp
    68a8:	00000007          	0x7
    68ac:	0008                	0x8
    68ae:	0000                	unimp
    68b0:	0005                	c.nop	1
    68b2:	0000                	unimp
    68b4:	0000000b          	0xb
    68b8:	000a                	c.slli	zero,0x2
    68ba:	0000                	unimp
    68bc:	000c                	0xc
    68be:	0000                	unimp
    68c0:	0001                	nop
    68c2:	0000                	unimp
    68c4:	0000000f          	fence	unknown,unknown
    68c8:	000d                	c.nop	3
    68ca:	0000                	unimp
    68cc:	000e                	c.slli	zero,0x3
    68ce:	0000                	unimp
    68d0:	0001                	nop
    68d2:	0000                	unimp
    68d4:	0000                	unimp
    68d6:	0000                	unimp
    68d8:	f000                	fsw	fs0,32(s0)
    68da:	8000                	0x8000
    68dc:	0000                	unimp
    68de:	0000                	unimp
    68e0:	0000                	unimp
    68e2:	8800                	0x8800
	...
