
coremark10.bin:     file format binary


Disassembly of section .data:

0000000000000000 <.data>:
       0:	00000413          	li	s0,0
       4:	0000c117          	auipc	sp,0xc
       8:	ffc10113          	addi	sp,sp,-4 # 0xc000
       c:	3e8020ef          	jal	ra,0x23f4
      10:	fe010113          	addi	sp,sp,-32
      14:	01213023          	sd	s2,0(sp)
      18:	02c52903          	lw	s2,44(a0)
      1c:	00113c23          	sd	ra,24(sp)
      20:	00813823          	sd	s0,16(sp)
      24:	00913423          	sd	s1,8(sp)
      28:	06053023          	sd	zero,96(a0)
      2c:	04090663          	beqz	s2,0x78
      30:	00050413          	mv	s0,a0
      34:	00000493          	li	s1,0
      38:	00100593          	li	a1,1
      3c:	00040513          	mv	a0,s0
      40:	5d1000ef          	jal	ra,0xe10
      44:	06045583          	lhu	a1,96(s0)
      48:	151010ef          	jal	ra,0x1998
      4c:	fff00593          	li	a1,-1
      50:	06a41023          	sh	a0,96(s0)
      54:	00040513          	mv	a0,s0
      58:	5b9000ef          	jal	ra,0xe10
      5c:	06045583          	lhu	a1,96(s0)
      60:	139010ef          	jal	ra,0x1998
      64:	06a41023          	sh	a0,96(s0)
      68:	00049463          	bnez	s1,0x70
      6c:	06a41123          	sh	a0,98(s0)
      70:	0014849b          	addiw	s1,s1,1
      74:	fc9912e3          	bne	s2,s1,0x38
      78:	01813083          	ld	ra,24(sp)
      7c:	01013403          	ld	s0,16(sp)
      80:	00813483          	ld	s1,8(sp)
      84:	00013903          	ld	s2,0(sp)
      88:	00000513          	li	a0,0
      8c:	02010113          	addi	sp,sp,32
      90:	00008067          	ret
      94:	fd010113          	addi	sp,sp,-48
      98:	02813423          	sd	s0,40(sp)
      9c:	02913023          	sd	s1,32(sp)
      a0:	01213c23          	sd	s2,24(sp)
      a4:	01313823          	sd	s3,16(sp)
      a8:	01413423          	sd	s4,8(sp)
      ac:	00050813          	mv	a6,a0
      b0:	00068413          	mv	s0,a3
      b4:	00061463          	bnez	a2,0xbc
      b8:	00100613          	li	a2,1
      bc:	fff58593          	addi	a1,a1,-1
      c0:	ffc5f313          	andi	t1,a1,-4
      c4:	00430e93          	addi	t4,t1,4
      c8:	00000693          	li	a3,0
      cc:	10080a63          	beqz	a6,0x1e0
      d0:	0016871b          	addiw	a4,a3,1
      d4:	02e707bb          	mulw	a5,a4,a4
      d8:	0006851b          	sext.w	a0,a3
      dc:	0007069b          	sext.w	a3,a4
      e0:	0037979b          	slliw	a5,a5,0x3
      e4:	ff07e6e3          	bltu	a5,a6,0xd0
      e8:	02a506bb          	mulw	a3,a0,a0
      ec:	0005091b          	sext.w	s2,a0
      f0:	02069693          	slli	a3,a3,0x20
      f4:	01f6d693          	srli	a3,a3,0x1f
      f8:	00de8333          	add	t1,t4,a3
      fc:	0e050c63          	beqz	a0,0x1f4
     100:	00010f37          	lui	t5,0x10
     104:	00000393          	li	t2,0
     108:	00000293          	li	t0,0
     10c:	00100f93          	li	t6,1
     110:	ffff0f13          	addi	t5,t5,-1 # 0xffff
     114:	fff5049b          	addiw	s1,a0,-1
     118:	000f8813          	mv	a6,t6
     11c:	00000893          	li	a7,0
     120:	41f38e3b          	subw	t3,t2,t6
     124:	030607bb          	mulw	a5,a2,a6
     128:	010e063b          	addw	a2,t3,a6
     12c:	02061613          	slli	a2,a2,0x20
     130:	01f65613          	srli	a2,a2,0x1f
     134:	00c30a33          	add	s4,t1,a2
     138:	00ce85b3          	add	a1,t4,a2
     13c:	03081713          	slli	a4,a6,0x30
     140:	03075713          	srli	a4,a4,0x30
     144:	0018889b          	addiw	a7,a7,1
     148:	0018081b          	addiw	a6,a6,1
     14c:	41f7d61b          	sraiw	a2,a5,0x1f
     150:	0106599b          	srliw	s3,a2,0x10
     154:	0137863b          	addw	a2,a5,s3
     158:	01e67633          	and	a2,a2,t5
     15c:	4136063b          	subw	a2,a2,s3
     160:	00070793          	mv	a5,a4
     164:	00e6073b          	addw	a4,a2,a4
     168:	03071713          	slli	a4,a4,0x30
     16c:	03075713          	srli	a4,a4,0x30
     170:	00f707bb          	addw	a5,a4,a5
     174:	00ea1023          	sh	a4,0(s4)
     178:	0ff7f793          	andi	a5,a5,255
     17c:	00f59023          	sh	a5,0(a1)
     180:	faa8e2e3          	bltu	a7,a0,0x124
     184:	001f8f9b          	addiw	t6,t6,1
     188:	00000793          	li	a5,0
     18c:	00050463          	beqz	a0,0x194
     190:	00048793          	mv	a5,s1
     194:	0012829b          	addiw	t0,t0,1
     198:	01f78fbb          	addw	t6,a5,t6
     19c:	007503bb          	addw	t2,a0,t2
     1a0:	f6a2ece3          	bltu	t0,a0,0x118
     1a4:	00d307b3          	add	a5,t1,a3
     1a8:	fff78793          	addi	a5,a5,-1
     1ac:	ffc7f793          	andi	a5,a5,-4
     1b0:	00478793          	addi	a5,a5,4
     1b4:	01242023          	sw	s2,0(s0)
     1b8:	01d43423          	sd	t4,8(s0)
     1bc:	00643823          	sd	t1,16(s0)
     1c0:	00f43c23          	sd	a5,24(s0)
     1c4:	02813403          	ld	s0,40(sp)
     1c8:	02013483          	ld	s1,32(sp)
     1cc:	01813903          	ld	s2,24(sp)
     1d0:	01013983          	ld	s3,16(sp)
     1d4:	00813a03          	ld	s4,8(sp)
     1d8:	03010113          	addi	sp,sp,48
     1dc:	00008067          	ret
     1e0:	00630313          	addi	t1,t1,6
     1e4:	fff00913          	li	s2,-1
     1e8:	fff00513          	li	a0,-1
     1ec:	00200693          	li	a3,2
     1f0:	f11ff06f          	j	0x100
     1f4:	00000913          	li	s2,0
     1f8:	fadff06f          	j	0x1a4
     1fc:	00050e13          	mv	t3,a0
     200:	08050863          	beqz	a0,0x290
     204:	0006031b          	sext.w	t1,a2
     208:	00050893          	mv	a7,a0
     20c:	00000f13          	li	t5,0
     210:	00000e93          	li	t4,0
     214:	00000513          	li	a0,0
     218:	00000613          	li	a2,0
     21c:	00000813          	li	a6,0
     220:	000f0693          	mv	a3,t5
     224:	0180006f          	j	0x23c
     228:	0107951b          	slliw	a0,a5,0x10
     22c:	0016869b          	addiw	a3,a3,1
     230:	4105551b          	sraiw	a0,a0,0x10
     234:	00000813          	li	a6,0
     238:	04d88263          	beq	a7,a3,0x27c
     23c:	02069793          	slli	a5,a3,0x20
     240:	01e7d793          	srli	a5,a5,0x1e
     244:	00f587b3          	add	a5,a1,a5
     248:	00060713          	mv	a4,a2
     24c:	0007a603          	lw	a2,0(a5)
     250:	03051513          	slli	a0,a0,0x30
     254:	03055513          	srli	a0,a0,0x30
     258:	00c72733          	slt	a4,a4,a2
     25c:	0106083b          	addw	a6,a2,a6
     260:	00a5079b          	addiw	a5,a0,10
     264:	00a7073b          	addw	a4,a4,a0
     268:	fd0340e3          	blt	t1,a6,0x228
     26c:	0107151b          	slliw	a0,a4,0x10
     270:	0016869b          	addiw	a3,a3,1
     274:	4105551b          	sraiw	a0,a0,0x10
     278:	fcd892e3          	bne	a7,a3,0x23c
     27c:	001e8e9b          	addiw	t4,t4,1
     280:	01c888bb          	addw	a7,a7,t3
     284:	01cf0f3b          	addw	t5,t5,t3
     288:	f9de1ce3          	bne	t3,t4,0x220
     28c:	00008067          	ret
     290:	00000513          	li	a0,0
     294:	00008067          	ret
     298:	04050a63          	beqz	a0,0x2ec
     29c:	0006889b          	sext.w	a7,a3
     2a0:	00050813          	mv	a6,a0
     2a4:	00000e13          	li	t3,0
     2a8:	00000313          	li	t1,0
     2ac:	000e0713          	mv	a4,t3
     2b0:	02071793          	slli	a5,a4,0x20
     2b4:	0207d793          	srli	a5,a5,0x20
     2b8:	00179693          	slli	a3,a5,0x1
     2bc:	00d606b3          	add	a3,a2,a3
     2c0:	00069683          	lh	a3,0(a3)
     2c4:	00279793          	slli	a5,a5,0x2
     2c8:	00f587b3          	add	a5,a1,a5
     2cc:	031686bb          	mulw	a3,a3,a7
     2d0:	0017071b          	addiw	a4,a4,1
     2d4:	00d7a023          	sw	a3,0(a5)
     2d8:	fce81ce3          	bne	a6,a4,0x2b0
     2dc:	0013031b          	addiw	t1,t1,1
     2e0:	01c50e3b          	addw	t3,a0,t3
     2e4:	0105083b          	addw	a6,a0,a6
     2e8:	fc6512e3          	bne	a0,t1,0x2ac
     2ec:	00008067          	ret
     2f0:	04050663          	beqz	a0,0x33c
     2f4:	03061813          	slli	a6,a2,0x30
     2f8:	03085813          	srli	a6,a6,0x30
     2fc:	00050613          	mv	a2,a0
     300:	00000313          	li	t1,0
     304:	00000893          	li	a7,0
     308:	00030713          	mv	a4,t1
     30c:	02071793          	slli	a5,a4,0x20
     310:	01f7d793          	srli	a5,a5,0x1f
     314:	00f587b3          	add	a5,a1,a5
     318:	0007d683          	lhu	a3,0(a5)
     31c:	0017071b          	addiw	a4,a4,1
     320:	010686bb          	addw	a3,a3,a6
     324:	00d79023          	sh	a3,0(a5)
     328:	fee612e3          	bne	a2,a4,0x30c
     32c:	0018889b          	addiw	a7,a7,1
     330:	0065033b          	addw	t1,a0,t1
     334:	00c5063b          	addw	a2,a0,a2
     338:	fd1518e3          	bne	a0,a7,0x308
     33c:	00008067          	ret
     340:	06050663          	beqz	a0,0x3ac
     344:	fff50f1b          	addiw	t5,a0,-1
     348:	020f1f13          	slli	t5,t5,0x20
     34c:	01ef5f13          	srli	t5,t5,0x1e
     350:	00458793          	addi	a5,a1,4
     354:	00058e13          	mv	t3,a1
     358:	00ff0f33          	add	t5,t5,a5
     35c:	00050313          	mv	t1,a0
     360:	00000e93          	li	t4,0
     364:	00068593          	mv	a1,a3
     368:	000e8713          	mv	a4,t4
     36c:	00000813          	li	a6,0
     370:	02071793          	slli	a5,a4,0x20
     374:	01f7d793          	srli	a5,a5,0x1f
     378:	00f607b3          	add	a5,a2,a5
     37c:	00059883          	lh	a7,0(a1)
     380:	00079783          	lh	a5,0(a5)
     384:	0017071b          	addiw	a4,a4,1
     388:	00258593          	addi	a1,a1,2
     38c:	031787bb          	mulw	a5,a5,a7
     390:	0107883b          	addw	a6,a5,a6
     394:	fce31ee3          	bne	t1,a4,0x370
     398:	010e2023          	sw	a6,0(t3)
     39c:	004e0e13          	addi	t3,t3,4
     3a0:	01d50ebb          	addw	t4,a0,t4
     3a4:	0065033b          	addw	t1,a0,t1
     3a8:	fbcf1ee3          	bne	t5,t3,0x364
     3ac:	00008067          	ret
     3b0:	00058f93          	mv	t6,a1
     3b4:	00060313          	mv	t1,a2
     3b8:	00068893          	mv	a7,a3
     3bc:	00050813          	mv	a6,a0
     3c0:	00000f13          	li	t5,0
     3c4:	00000293          	li	t0,0
     3c8:	08050863          	beqz	a0,0x458
     3cc:	00000e93          	li	t4,0
     3d0:	01ee8e3b          	addw	t3,t4,t5
     3d4:	020e1e13          	slli	t3,t3,0x20
     3d8:	01ee5e13          	srli	t3,t3,0x1e
     3dc:	01cf8e33          	add	t3,t6,t3
     3e0:	000e8613          	mv	a2,t4
     3e4:	000f0693          	mv	a3,t5
     3e8:	00000593          	li	a1,0
     3ec:	02069713          	slli	a4,a3,0x20
     3f0:	02061793          	slli	a5,a2,0x20
     3f4:	02075713          	srli	a4,a4,0x20
     3f8:	0207d793          	srli	a5,a5,0x20
     3fc:	00171713          	slli	a4,a4,0x1
     400:	00179793          	slli	a5,a5,0x1
     404:	00e30733          	add	a4,t1,a4
     408:	00f887b3          	add	a5,a7,a5
     40c:	00071703          	lh	a4,0(a4)
     410:	00079783          	lh	a5,0(a5)
     414:	0016869b          	addiw	a3,a3,1
     418:	00c5063b          	addw	a2,a0,a2
     41c:	02f707bb          	mulw	a5,a4,a5
     420:	00b785bb          	addw	a1,a5,a1
     424:	fcd814e3          	bne	a6,a3,0x3ec
     428:	00be2023          	sw	a1,0(t3)
     42c:	001e879b          	addiw	a5,t4,1
     430:	00f50663          	beq	a0,a5,0x43c
     434:	00078e93          	mv	t4,a5
     438:	f99ff06f          	j	0x3d0
     43c:	0012879b          	addiw	a5,t0,1
     440:	01e50f3b          	addw	t5,a0,t5
     444:	0105083b          	addw	a6,a0,a6
     448:	01d28663          	beq	t0,t4,0x454
     44c:	00078293          	mv	t0,a5
     450:	f7dff06f          	j	0x3cc
     454:	00008067          	ret
     458:	00008067          	ret
     45c:	00058f93          	mv	t6,a1
     460:	00060313          	mv	t1,a2
     464:	00068893          	mv	a7,a3
     468:	00050813          	mv	a6,a0
     46c:	00000f13          	li	t5,0
     470:	00000293          	li	t0,0
     474:	0a050263          	beqz	a0,0x518
     478:	00000e93          	li	t4,0
     47c:	01ee8e3b          	addw	t3,t4,t5
     480:	020e1e13          	slli	t3,t3,0x20
     484:	01ee5e13          	srli	t3,t3,0x1e
     488:	01cf8e33          	add	t3,t6,t3
     48c:	000e8613          	mv	a2,t4
     490:	000f0693          	mv	a3,t5
     494:	00000593          	li	a1,0
     498:	02069793          	slli	a5,a3,0x20
     49c:	02061713          	slli	a4,a2,0x20
     4a0:	0207d793          	srli	a5,a5,0x20
     4a4:	02075713          	srli	a4,a4,0x20
     4a8:	00179793          	slli	a5,a5,0x1
     4ac:	00171713          	slli	a4,a4,0x1
     4b0:	00f307b3          	add	a5,t1,a5
     4b4:	00e88733          	add	a4,a7,a4
     4b8:	00071703          	lh	a4,0(a4)
     4bc:	00079783          	lh	a5,0(a5)
     4c0:	0016869b          	addiw	a3,a3,1
     4c4:	00c5063b          	addw	a2,a0,a2
     4c8:	02e787bb          	mulw	a5,a5,a4
     4cc:	4027d71b          	sraiw	a4,a5,0x2
     4d0:	4057d79b          	sraiw	a5,a5,0x5
     4d4:	00f77713          	andi	a4,a4,15
     4d8:	07f7f793          	andi	a5,a5,127
     4dc:	02f707bb          	mulw	a5,a4,a5
     4e0:	00b785bb          	addw	a1,a5,a1
     4e4:	fad81ae3          	bne	a6,a3,0x498
     4e8:	00be2023          	sw	a1,0(t3)
     4ec:	001e879b          	addiw	a5,t4,1
     4f0:	00f50663          	beq	a0,a5,0x4fc
     4f4:	00078e93          	mv	t4,a5
     4f8:	f85ff06f          	j	0x47c
     4fc:	0012879b          	addiw	a5,t0,1
     500:	01e50f3b          	addw	t5,a0,t5
     504:	0105083b          	addw	a6,a0,a6
     508:	01d28663          	beq	t0,t4,0x514
     50c:	00078293          	mv	t0,a5
     510:	f69ff06f          	j	0x478
     514:	00008067          	ret
     518:	00008067          	ret
     51c:	fb010113          	addi	sp,sp,-80
     520:	04813023          	sd	s0,64(sp)
     524:	03213823          	sd	s2,48(sp)
     528:	03413023          	sd	s4,32(sp)
     52c:	01513c23          	sd	s5,24(sp)
     530:	04113423          	sd	ra,72(sp)
     534:	fffffab7          	lui	s5,0xfffff
     538:	02913c23          	sd	s1,56(sp)
     53c:	03313423          	sd	s3,40(sp)
     540:	01613823          	sd	s6,16(sp)
     544:	01713423          	sd	s7,8(sp)
     548:	00058a13          	mv	s4,a1
     54c:	00060913          	mv	s2,a2
     550:	00068413          	mv	s0,a3
     554:	01576ab3          	or	s5,a4,s5
     558:	3a050463          	beqz	a0,0x900
     55c:	03071493          	slli	s1,a4,0x30
     560:	00050813          	mv	a6,a0
     564:	00050593          	mv	a1,a0
     568:	0304d493          	srli	s1,s1,0x30
     56c:	00000513          	li	a0,0
     570:	00000b13          	li	s6,0
     574:	00050693          	mv	a3,a0
     578:	02069793          	slli	a5,a3,0x20
     57c:	01f7d793          	srli	a5,a5,0x1f
     580:	00f907b3          	add	a5,s2,a5
     584:	0007d603          	lhu	a2,0(a5)
     588:	0016869b          	addiw	a3,a3,1
     58c:	0096063b          	addw	a2,a2,s1
     590:	00c79023          	sh	a2,0(a5)
     594:	fed592e3          	bne	a1,a3,0x578
     598:	001b099b          	addiw	s3,s6,1
     59c:	00a8053b          	addw	a0,a6,a0
     5a0:	00b805bb          	addw	a1,a6,a1
     5a4:	01380663          	beq	a6,s3,0x5b0
     5a8:	00098b13          	mv	s6,s3
     5ac:	fc9ff06f          	j	0x574
     5b0:	0007059b          	sext.w	a1,a4
     5b4:	00098613          	mv	a2,s3
     5b8:	00000513          	li	a0,0
     5bc:	00000813          	li	a6,0
     5c0:	00050713          	mv	a4,a0
     5c4:	02071793          	slli	a5,a4,0x20
     5c8:	0207d793          	srli	a5,a5,0x20
     5cc:	00179693          	slli	a3,a5,0x1
     5d0:	00d906b3          	add	a3,s2,a3
     5d4:	00069683          	lh	a3,0(a3)
     5d8:	00279793          	slli	a5,a5,0x2
     5dc:	00fa07b3          	add	a5,s4,a5
     5e0:	02b686bb          	mulw	a3,a3,a1
     5e4:	0017071b          	addiw	a4,a4,1
     5e8:	00d7a023          	sw	a3,0(a5)
     5ec:	fce61ce3          	bne	a2,a4,0x5c4
     5f0:	0018079b          	addiw	a5,a6,1
     5f4:	00a9853b          	addw	a0,s3,a0
     5f8:	00c9863b          	addw	a2,s3,a2
     5fc:	01680663          	beq	a6,s6,0x608
     600:	00078813          	mv	a6,a5
     604:	fbdff06f          	j	0x5c0
     608:	000a8a9b          	sext.w	s5,s5
     60c:	00098813          	mv	a6,s3
     610:	00000893          	li	a7,0
     614:	00000513          	li	a0,0
     618:	00000613          	li	a2,0
     61c:	00000593          	li	a1,0
     620:	00000313          	li	t1,0
     624:	00088693          	mv	a3,a7
     628:	0180006f          	j	0x640
     62c:	0107951b          	slliw	a0,a5,0x10
     630:	0016869b          	addiw	a3,a3,1
     634:	4105551b          	sraiw	a0,a0,0x10
     638:	00000593          	li	a1,0
     63c:	04d80263          	beq	a6,a3,0x680
     640:	02069793          	slli	a5,a3,0x20
     644:	01e7d793          	srli	a5,a5,0x1e
     648:	00fa07b3          	add	a5,s4,a5
     64c:	00060713          	mv	a4,a2
     650:	0007a603          	lw	a2,0(a5)
     654:	03051513          	slli	a0,a0,0x30
     658:	03055513          	srli	a0,a0,0x30
     65c:	00c72733          	slt	a4,a4,a2
     660:	00b605bb          	addw	a1,a2,a1
     664:	00a5079b          	addiw	a5,a0,10
     668:	00a7073b          	addw	a4,a4,a0
     66c:	fcbac0e3          	blt	s5,a1,0x62c
     670:	0107151b          	slliw	a0,a4,0x10
     674:	0016869b          	addiw	a3,a3,1
     678:	4105551b          	sraiw	a0,a0,0x10
     67c:	fcd812e3          	bne	a6,a3,0x640
     680:	0013079b          	addiw	a5,t1,1
     684:	0109883b          	addw	a6,s3,a6
     688:	011988bb          	addw	a7,s3,a7
     68c:	01630663          	beq	t1,s6,0x698
     690:	00078313          	mv	t1,a5
     694:	f91ff06f          	j	0x624
     698:	00000593          	li	a1,0
     69c:	3b4010ef          	jal	ra,0x1a50
     6a0:	00090613          	mv	a2,s2
     6a4:	000a0593          	mv	a1,s4
     6a8:	00050b93          	mv	s7,a0
     6ac:	00040693          	mv	a3,s0
     6b0:	00098513          	mv	a0,s3
     6b4:	c8dff0ef          	jal	ra,0x340
     6b8:	00098813          	mv	a6,s3
     6bc:	00000893          	li	a7,0
     6c0:	00000513          	li	a0,0
     6c4:	00000613          	li	a2,0
     6c8:	00000593          	li	a1,0
     6cc:	00000313          	li	t1,0
     6d0:	00088693          	mv	a3,a7
     6d4:	0180006f          	j	0x6ec
     6d8:	0107951b          	slliw	a0,a5,0x10
     6dc:	0016869b          	addiw	a3,a3,1
     6e0:	4105551b          	sraiw	a0,a0,0x10
     6e4:	00000593          	li	a1,0
     6e8:	04d80263          	beq	a6,a3,0x72c
     6ec:	02069793          	slli	a5,a3,0x20
     6f0:	01e7d793          	srli	a5,a5,0x1e
     6f4:	00fa07b3          	add	a5,s4,a5
     6f8:	00060713          	mv	a4,a2
     6fc:	0007a603          	lw	a2,0(a5)
     700:	03051513          	slli	a0,a0,0x30
     704:	03055513          	srli	a0,a0,0x30
     708:	00c72733          	slt	a4,a4,a2
     70c:	00b605bb          	addw	a1,a2,a1
     710:	00a5079b          	addiw	a5,a0,10
     714:	00a7073b          	addw	a4,a4,a0
     718:	fcbac0e3          	blt	s5,a1,0x6d8
     71c:	0107151b          	slliw	a0,a4,0x10
     720:	0016869b          	addiw	a3,a3,1
     724:	4105551b          	sraiw	a0,a0,0x10
     728:	fcd812e3          	bne	a6,a3,0x6ec
     72c:	0013079b          	addiw	a5,t1,1
     730:	0109883b          	addw	a6,s3,a6
     734:	011988bb          	addw	a7,s3,a7
     738:	01630663          	beq	t1,s6,0x744
     73c:	00078313          	mv	t1,a5
     740:	f91ff06f          	j	0x6d0
     744:	000b8593          	mv	a1,s7
     748:	308010ef          	jal	ra,0x1a50
     74c:	00090613          	mv	a2,s2
     750:	000a0593          	mv	a1,s4
     754:	00050b13          	mv	s6,a0
     758:	00040693          	mv	a3,s0
     75c:	00098513          	mv	a0,s3
     760:	c51ff0ef          	jal	ra,0x3b0
     764:	00000813          	li	a6,0
     768:	00000513          	li	a0,0
     76c:	00000613          	li	a2,0
     770:	00000593          	li	a1,0
     774:	00000893          	li	a7,0
     778:	00000693          	li	a3,0
     77c:	0180006f          	j	0x794
     780:	0107951b          	slliw	a0,a5,0x10
     784:	0016869b          	addiw	a3,a3,1
     788:	4105551b          	sraiw	a0,a0,0x10
     78c:	00000593          	li	a1,0
     790:	0536f463          	bgeu	a3,s3,0x7d8
     794:	010687bb          	addw	a5,a3,a6
     798:	02079793          	slli	a5,a5,0x20
     79c:	01e7d793          	srli	a5,a5,0x1e
     7a0:	00fa07b3          	add	a5,s4,a5
     7a4:	00060713          	mv	a4,a2
     7a8:	0007a603          	lw	a2,0(a5)
     7ac:	03051513          	slli	a0,a0,0x30
     7b0:	03055513          	srli	a0,a0,0x30
     7b4:	00c72733          	slt	a4,a4,a2
     7b8:	00b605bb          	addw	a1,a2,a1
     7bc:	00a5079b          	addiw	a5,a0,10
     7c0:	00a7073b          	addw	a4,a4,a0
     7c4:	fabacee3          	blt	s5,a1,0x780
     7c8:	0107151b          	slliw	a0,a4,0x10
     7cc:	0016869b          	addiw	a3,a3,1
     7d0:	4105551b          	sraiw	a0,a0,0x10
     7d4:	fd36e0e3          	bltu	a3,s3,0x794
     7d8:	0018889b          	addiw	a7,a7,1
     7dc:	0109883b          	addw	a6,s3,a6
     7e0:	f938ece3          	bltu	a7,s3,0x778
     7e4:	000b0593          	mv	a1,s6
     7e8:	268010ef          	jal	ra,0x1a50
     7ec:	00050793          	mv	a5,a0
     7f0:	00040693          	mv	a3,s0
     7f4:	00090613          	mv	a2,s2
     7f8:	000a0593          	mv	a1,s4
     7fc:	00098513          	mv	a0,s3
     800:	00078413          	mv	s0,a5
     804:	c59ff0ef          	jal	ra,0x45c
     808:	00000813          	li	a6,0
     80c:	00000513          	li	a0,0
     810:	00000613          	li	a2,0
     814:	00000593          	li	a1,0
     818:	00000893          	li	a7,0
     81c:	00000693          	li	a3,0
     820:	0180006f          	j	0x838
     824:	0107951b          	slliw	a0,a5,0x10
     828:	0016869b          	addiw	a3,a3,1
     82c:	4105551b          	sraiw	a0,a0,0x10
     830:	00000593          	li	a1,0
     834:	0536f463          	bgeu	a3,s3,0x87c
     838:	010687bb          	addw	a5,a3,a6
     83c:	02079793          	slli	a5,a5,0x20
     840:	01e7d793          	srli	a5,a5,0x1e
     844:	00fa07b3          	add	a5,s4,a5
     848:	00060713          	mv	a4,a2
     84c:	0007a603          	lw	a2,0(a5)
     850:	03051513          	slli	a0,a0,0x30
     854:	03055513          	srli	a0,a0,0x30
     858:	00c72733          	slt	a4,a4,a2
     85c:	00b605bb          	addw	a1,a2,a1
     860:	00a5079b          	addiw	a5,a0,10
     864:	00a7073b          	addw	a4,a4,a0
     868:	fabacee3          	blt	s5,a1,0x824
     86c:	0107151b          	slliw	a0,a4,0x10
     870:	0016869b          	addiw	a3,a3,1
     874:	4105551b          	sraiw	a0,a0,0x10
     878:	fd36e0e3          	bltu	a3,s3,0x838
     87c:	0018889b          	addiw	a7,a7,1
     880:	0109883b          	addw	a6,s3,a6
     884:	f938ece3          	bltu	a7,s3,0x81c
     888:	00040593          	mv	a1,s0
     88c:	1c4010ef          	jal	ra,0x1a50
     890:	00000613          	li	a2,0
     894:	00000593          	li	a1,0
     898:	00000713          	li	a4,0
     89c:	00c707bb          	addw	a5,a4,a2
     8a0:	02079793          	slli	a5,a5,0x20
     8a4:	01f7d793          	srli	a5,a5,0x1f
     8a8:	00f907b3          	add	a5,s2,a5
     8ac:	0007d683          	lhu	a3,0(a5)
     8b0:	0017071b          	addiw	a4,a4,1
     8b4:	409686bb          	subw	a3,a3,s1
     8b8:	00d79023          	sh	a3,0(a5)
     8bc:	ff3760e3          	bltu	a4,s3,0x89c
     8c0:	0015859b          	addiw	a1,a1,1
     8c4:	00c9863b          	addw	a2,s3,a2
     8c8:	fd35e8e3          	bltu	a1,s3,0x898
     8cc:	04813083          	ld	ra,72(sp)
     8d0:	04013403          	ld	s0,64(sp)
     8d4:	0105151b          	slliw	a0,a0,0x10
     8d8:	03813483          	ld	s1,56(sp)
     8dc:	03013903          	ld	s2,48(sp)
     8e0:	02813983          	ld	s3,40(sp)
     8e4:	02013a03          	ld	s4,32(sp)
     8e8:	01813a83          	ld	s5,24(sp)
     8ec:	01013b03          	ld	s6,16(sp)
     8f0:	00813b83          	ld	s7,8(sp)
     8f4:	4105551b          	sraiw	a0,a0,0x10
     8f8:	05010113          	addi	sp,sp,80
     8fc:	00008067          	ret
     900:	00000593          	li	a1,0
     904:	14c010ef          	jal	ra,0x1a50
     908:	00040693          	mv	a3,s0
     90c:	00090613          	mv	a2,s2
     910:	00050493          	mv	s1,a0
     914:	000a0593          	mv	a1,s4
     918:	00000513          	li	a0,0
     91c:	a25ff0ef          	jal	ra,0x340
     920:	00048593          	mv	a1,s1
     924:	00000513          	li	a0,0
     928:	128010ef          	jal	ra,0x1a50
     92c:	00040693          	mv	a3,s0
     930:	00090613          	mv	a2,s2
     934:	00050493          	mv	s1,a0
     938:	000a0593          	mv	a1,s4
     93c:	00000513          	li	a0,0
     940:	a71ff0ef          	jal	ra,0x3b0
     944:	00048593          	mv	a1,s1
     948:	00000513          	li	a0,0
     94c:	104010ef          	jal	ra,0x1a50
     950:	00050793          	mv	a5,a0
     954:	00040693          	mv	a3,s0
     958:	000a0593          	mv	a1,s4
     95c:	00090613          	mv	a2,s2
     960:	00000513          	li	a0,0
     964:	00078413          	mv	s0,a5
     968:	af5ff0ef          	jal	ra,0x45c
     96c:	00040593          	mv	a1,s0
     970:	00000513          	li	a0,0
     974:	0dc010ef          	jal	ra,0x1a50
     978:	f55ff06f          	j	0x8cc
     97c:	ff010113          	addi	sp,sp,-16
     980:	00813023          	sd	s0,0(sp)
     984:	01053683          	ld	a3,16(a0)
     988:	00060413          	mv	s0,a2
     98c:	00058713          	mv	a4,a1
     990:	00853603          	ld	a2,8(a0)
     994:	01853583          	ld	a1,24(a0)
     998:	00052503          	lw	a0,0(a0)
     99c:	00113423          	sd	ra,8(sp)
     9a0:	b7dff0ef          	jal	ra,0x51c
     9a4:	00040593          	mv	a1,s0
     9a8:	00013403          	ld	s0,0(sp)
     9ac:	00813083          	ld	ra,8(sp)
     9b0:	01010113          	addi	sp,sp,16
     9b4:	09c0106f          	j	0x1a50
     9b8:	00060a63          	beqz	a2,0x9cc
     9bc:	00251503          	lh	a0,2(a0)
     9c0:	00259783          	lh	a5,2(a1)
     9c4:	40f5053b          	subw	a0,a0,a5
     9c8:	00008067          	ret
     9cc:	00051783          	lh	a5,0(a0)
     9d0:	0087d713          	srli	a4,a5,0x8
     9d4:	0ff77713          	andi	a4,a4,255
     9d8:	f007f793          	andi	a5,a5,-256
     9dc:	00e7e7b3          	or	a5,a5,a4
     9e0:	00f51023          	sh	a5,0(a0)
     9e4:	00059783          	lh	a5,0(a1)
     9e8:	00251503          	lh	a0,2(a0)
     9ec:	0087d713          	srli	a4,a5,0x8
     9f0:	0ff77713          	andi	a4,a4,255
     9f4:	f007f793          	andi	a5,a5,-256
     9f8:	00e7e7b3          	or	a5,a5,a4
     9fc:	00f59023          	sh	a5,0(a1)
     a00:	00259783          	lh	a5,2(a1)
     a04:	40f5053b          	subw	a0,a0,a5
     a08:	00008067          	ret
     a0c:	fd010113          	addi	sp,sp,-48
     a10:	02813023          	sd	s0,32(sp)
     a14:	00051403          	lh	s0,0(a0)
     a18:	02113423          	sd	ra,40(sp)
     a1c:	00913c23          	sd	s1,24(sp)
     a20:	4074579b          	sraiw	a5,s0,0x7
     a24:	01213823          	sd	s2,16(sp)
     a28:	01313423          	sd	s3,8(sp)
     a2c:	0017f793          	andi	a5,a5,1
     a30:	02078263          	beqz	a5,0xa54
     a34:	02813083          	ld	ra,40(sp)
     a38:	07f47513          	andi	a0,s0,127
     a3c:	02013403          	ld	s0,32(sp)
     a40:	01813483          	ld	s1,24(sp)
     a44:	01013903          	ld	s2,16(sp)
     a48:	00813983          	ld	s3,8(sp)
     a4c:	03010113          	addi	sp,sp,48
     a50:	00008067          	ret
     a54:	00058493          	mv	s1,a1
     a58:	4034559b          	sraiw	a1,s0,0x3
     a5c:	00f5f593          	andi	a1,a1,15
     a60:	00459713          	slli	a4,a1,0x4
     a64:	00747693          	andi	a3,s0,7
     a68:	0604d783          	lhu	a5,96(s1)
     a6c:	00050993          	mv	s3,a0
     a70:	00b765b3          	or	a1,a4,a1
     a74:	08068063          	beqz	a3,0xaf4
     a78:	00100713          	li	a4,1
     a7c:	04e68863          	beq	a3,a4,0xacc
     a80:	03041513          	slli	a0,s0,0x30
     a84:	03055513          	srli	a0,a0,0x30
     a88:	00040913          	mv	s2,s0
     a8c:	00078593          	mv	a1,a5
     a90:	709000ef          	jal	ra,0x1998
     a94:	00050793          	mv	a5,a0
     a98:	f0047413          	andi	s0,s0,-256
     a9c:	07f97513          	andi	a0,s2,127
     aa0:	00856433          	or	s0,a0,s0
     aa4:	06f49023          	sh	a5,96(s1)
     aa8:	08046413          	ori	s0,s0,128
     aac:	00899023          	sh	s0,0(s3)
     ab0:	02813083          	ld	ra,40(sp)
     ab4:	02013403          	ld	s0,32(sp)
     ab8:	01813483          	ld	s1,24(sp)
     abc:	01013903          	ld	s2,16(sp)
     ac0:	00813983          	ld	s3,8(sp)
     ac4:	03010113          	addi	sp,sp,48
     ac8:	00008067          	ret
     acc:	00078613          	mv	a2,a5
     ad0:	04048513          	addi	a0,s1,64
     ad4:	ea9ff0ef          	jal	ra,0x97c
     ad8:	0644d783          	lhu	a5,100(s1)
     adc:	0105191b          	slliw	s2,a0,0x10
     ae0:	4109591b          	sraiw	s2,s2,0x10
     ae4:	04079a63          	bnez	a5,0xb38
     ae8:	0604d783          	lhu	a5,96(s1)
     aec:	06a49223          	sh	a0,100(s1)
     af0:	f9dff06f          	j	0xa8c
     af4:	02200693          	li	a3,34
     af8:	00058713          	mv	a4,a1
     afc:	00d5d463          	bge	a1,a3,0xb04
     b00:	02200713          	li	a4,34
     b04:	00249683          	lh	a3,2(s1)
     b08:	00049603          	lh	a2,0(s1)
     b0c:	0204b583          	ld	a1,32(s1)
     b10:	0284a503          	lw	a0,40(s1)
     b14:	0ff77713          	andi	a4,a4,255
     b18:	375000ef          	jal	ra,0x168c
     b1c:	0664d783          	lhu	a5,102(s1)
     b20:	0105191b          	slliw	s2,a0,0x10
     b24:	4109591b          	sraiw	s2,s2,0x10
     b28:	00079863          	bnez	a5,0xb38
     b2c:	0604d783          	lhu	a5,96(s1)
     b30:	06a49323          	sh	a0,102(s1)
     b34:	f59ff06f          	j	0xa8c
     b38:	0604d783          	lhu	a5,96(s1)
     b3c:	f51ff06f          	j	0xa8c
     b40:	fe010113          	addi	sp,sp,-32
     b44:	00913423          	sd	s1,8(sp)
     b48:	00058493          	mv	s1,a1
     b4c:	00060593          	mv	a1,a2
     b50:	00113c23          	sd	ra,24(sp)
     b54:	00813823          	sd	s0,16(sp)
     b58:	00060413          	mv	s0,a2
     b5c:	eb1ff0ef          	jal	ra,0xa0c
     b60:	00050793          	mv	a5,a0
     b64:	00040593          	mv	a1,s0
     b68:	00048513          	mv	a0,s1
     b6c:	00078413          	mv	s0,a5
     b70:	e9dff0ef          	jal	ra,0xa0c
     b74:	01813083          	ld	ra,24(sp)
     b78:	40a4053b          	subw	a0,s0,a0
     b7c:	01013403          	ld	s0,16(sp)
     b80:	00813483          	ld	s1,8(sp)
     b84:	02010113          	addi	sp,sp,32
     b88:	00008067          	ret
     b8c:	00059703          	lh	a4,0(a1)
     b90:	00259783          	lh	a5,2(a1)
     b94:	00e51023          	sh	a4,0(a0)
     b98:	00f51123          	sh	a5,2(a0)
     b9c:	00008067          	ret
     ba0:	00063803          	ld	a6,0(a2)
     ba4:	01080893          	addi	a7,a6,16
     ba8:	04e8f663          	bgeu	a7,a4,0xbf4
     bac:	0006b703          	ld	a4,0(a3)
     bb0:	00470313          	addi	t1,a4,4
     bb4:	04f37063          	bgeu	t1,a5,0xbf4
     bb8:	01163023          	sd	a7,0(a2)
     bbc:	00053783          	ld	a5,0(a0)
     bc0:	00059883          	lh	a7,0(a1)
     bc4:	00259603          	lh	a2,2(a1)
     bc8:	00f83023          	sd	a5,0(a6)
     bcc:	01053023          	sd	a6,0(a0)
     bd0:	00e83423          	sd	a4,8(a6)
     bd4:	0006b783          	ld	a5,0(a3)
     bd8:	00080513          	mv	a0,a6
     bdc:	00478793          	addi	a5,a5,4
     be0:	00f6b023          	sd	a5,0(a3)
     be4:	00883783          	ld	a5,8(a6)
     be8:	01179023          	sh	a7,0(a5)
     bec:	00c79123          	sh	a2,2(a5)
     bf0:	00008067          	ret
     bf4:	00000813          	li	a6,0
     bf8:	00080513          	mv	a0,a6
     bfc:	00008067          	ret
     c00:	00050793          	mv	a5,a0
     c04:	00053503          	ld	a0,0(a0)
     c08:	0087b683          	ld	a3,8(a5)
     c0c:	00853603          	ld	a2,8(a0)
     c10:	00053703          	ld	a4,0(a0)
     c14:	00c7b423          	sd	a2,8(a5)
     c18:	00d53423          	sd	a3,8(a0)
     c1c:	00e7b023          	sd	a4,0(a5)
     c20:	00053023          	sd	zero,0(a0)
     c24:	00008067          	ret
     c28:	0085b603          	ld	a2,8(a1)
     c2c:	00853683          	ld	a3,8(a0)
     c30:	0005b703          	ld	a4,0(a1)
     c34:	00c53423          	sd	a2,8(a0)
     c38:	00d5b423          	sd	a3,8(a1)
     c3c:	00e53023          	sd	a4,0(a0)
     c40:	00a5b023          	sd	a0,0(a1)
     c44:	00008067          	ret
     c48:	00259703          	lh	a4,2(a1)
     c4c:	02074263          	bltz	a4,0xc70
     c50:	00051863          	bnez	a0,0xc60
     c54:	0480006f          	j	0xc9c
     c58:	00053503          	ld	a0,0(a0)
     c5c:	02050c63          	beqz	a0,0xc94
     c60:	00853783          	ld	a5,8(a0)
     c64:	00279783          	lh	a5,2(a5)
     c68:	fee798e3          	bne	a5,a4,0xc58
     c6c:	00008067          	ret
     c70:	02050263          	beqz	a0,0xc94
     c74:	00059703          	lh	a4,0(a1)
     c78:	00c0006f          	j	0xc84
     c7c:	00053503          	ld	a0,0(a0)
     c80:	00050c63          	beqz	a0,0xc98
     c84:	00853783          	ld	a5,8(a0)
     c88:	0007c783          	lbu	a5,0(a5)
     c8c:	fee798e3          	bne	a5,a4,0xc7c
     c90:	00008067          	ret
     c94:	00000513          	li	a0,0
     c98:	00008067          	ret
     c9c:	00008067          	ret
     ca0:	02050063          	beqz	a0,0xcc0
     ca4:	00000713          	li	a4,0
     ca8:	0080006f          	j	0xcb0
     cac:	00078513          	mv	a0,a5
     cb0:	00053783          	ld	a5,0(a0)
     cb4:	00e53023          	sd	a4,0(a0)
     cb8:	00050713          	mv	a4,a0
     cbc:	fe0798e3          	bnez	a5,0xcac
     cc0:	00008067          	ret
     cc4:	fa010113          	addi	sp,sp,-96
     cc8:	04913423          	sd	s1,72(sp)
     ccc:	03513423          	sd	s5,40(sp)
     cd0:	01713c23          	sd	s7,24(sp)
     cd4:	01913423          	sd	s9,8(sp)
     cd8:	01a13023          	sd	s10,0(sp)
     cdc:	04113c23          	sd	ra,88(sp)
     ce0:	04813823          	sd	s0,80(sp)
     ce4:	05213023          	sd	s2,64(sp)
     ce8:	03313c23          	sd	s3,56(sp)
     cec:	03413823          	sd	s4,48(sp)
     cf0:	03613023          	sd	s6,32(sp)
     cf4:	01813823          	sd	s8,16(sp)
     cf8:	00050493          	mv	s1,a0
     cfc:	00058b93          	mv	s7,a1
     d00:	00060d13          	mv	s10,a2
     d04:	00100a93          	li	s5,1
     d08:	00100c93          	li	s9,1
     d0c:	0c048063          	beqz	s1,0xdcc
     d10:	00000c13          	li	s8,0
     d14:	00000913          	li	s2,0
     d18:	00000b13          	li	s6,0
     d1c:	001c0c1b          	addiw	s8,s8,1
     d20:	00048793          	mv	a5,s1
     d24:	00000413          	li	s0,0
     d28:	0007b783          	ld	a5,0(a5)
     d2c:	0014041b          	addiw	s0,s0,1
     d30:	00078463          	beqz	a5,0xd38
     d34:	fe8a9ae3          	bne	s5,s0,0xd28
     d38:	00048a13          	mv	s4,s1
     d3c:	000a8993          	mv	s3,s5
     d40:	00078493          	mv	s1,a5
     d44:	02040e63          	beqz	s0,0xd80
     d48:	04098e63          	beqz	s3,0xda4
     d4c:	04048c63          	beqz	s1,0xda4
     d50:	0084b583          	ld	a1,8(s1)
     d54:	008a3503          	ld	a0,8(s4)
     d58:	000d0613          	mv	a2,s10
     d5c:	000b80e7          	jalr	s7
     d60:	04a05263          	blez	a0,0xda4
     d64:	00048793          	mv	a5,s1
     d68:	0004b483          	ld	s1,0(s1)
     d6c:	fff9899b          	addiw	s3,s3,-1
     d70:	02090463          	beqz	s2,0xd98
     d74:	00f93023          	sd	a5,0(s2)
     d78:	00078913          	mv	s2,a5
     d7c:	fc0416e3          	bnez	s0,0xd48
     d80:	02098a63          	beqz	s3,0xdb4
     d84:	02048a63          	beqz	s1,0xdb8
     d88:	00048793          	mv	a5,s1
     d8c:	fff9899b          	addiw	s3,s3,-1
     d90:	0004b483          	ld	s1,0(s1)
     d94:	fe0910e3          	bnez	s2,0xd74
     d98:	00078b13          	mv	s6,a5
     d9c:	00078913          	mv	s2,a5
     da0:	fddff06f          	j	0xd7c
     da4:	000a0793          	mv	a5,s4
     da8:	fff4041b          	addiw	s0,s0,-1
     dac:	000a3a03          	ld	s4,0(s4)
     db0:	fc1ff06f          	j	0xd70
     db4:	f60494e3          	bnez	s1,0xd1c
     db8:	00093023          	sd	zero,0(s2)
     dbc:	019c0c63          	beq	s8,s9,0xdd4
     dc0:	001a9a9b          	slliw	s5,s5,0x1
     dc4:	000b0493          	mv	s1,s6
     dc8:	f45ff06f          	j	0xd0c
     dcc:	00003023          	sd	zero,0(zero) # 0x0
     dd0:	00100073          	ebreak
     dd4:	05813083          	ld	ra,88(sp)
     dd8:	05013403          	ld	s0,80(sp)
     ddc:	04813483          	ld	s1,72(sp)
     de0:	04013903          	ld	s2,64(sp)
     de4:	03813983          	ld	s3,56(sp)
     de8:	03013a03          	ld	s4,48(sp)
     dec:	02813a83          	ld	s5,40(sp)
     df0:	01813b83          	ld	s7,24(sp)
     df4:	01013c03          	ld	s8,16(sp)
     df8:	00813c83          	ld	s9,8(sp)
     dfc:	00013d03          	ld	s10,0(sp)
     e00:	000b0513          	mv	a0,s6
     e04:	02013b03          	ld	s6,32(sp)
     e08:	06010113          	addi	sp,sp,96
     e0c:	00008067          	ret
     e10:	f9010113          	addi	sp,sp,-112
     e14:	03813023          	sd	s8,32(sp)
     e18:	00451c03          	lh	s8,4(a0)
     e1c:	06813023          	sd	s0,96(sp)
     e20:	05413023          	sd	s4,64(sp)
     e24:	03513c23          	sd	s5,56(sp)
     e28:	06113423          	sd	ra,104(sp)
     e2c:	04913c23          	sd	s1,88(sp)
     e30:	05213823          	sd	s2,80(sp)
     e34:	05313423          	sd	s3,72(sp)
     e38:	03613823          	sd	s6,48(sp)
     e3c:	03713423          	sd	s7,40(sp)
     e40:	01913c23          	sd	s9,24(sp)
     e44:	00011423          	sh	zero,8(sp)
     e48:	00b11523          	sh	a1,10(sp)
     e4c:	03853403          	ld	s0,56(a0)
     e50:	00050a93          	mv	s5,a0
     e54:	00058a13          	mv	s4,a1
     e58:	21805a63          	blez	s8,0x106c
     e5c:	00058c93          	mv	s9,a1
     e60:	00000913          	li	s2,0
     e64:	00000b93          	li	s7,0
     e68:	00000493          	li	s1,0
     e6c:	00000b13          	li	s6,0
     e70:	00810993          	addi	s3,sp,8
     e74:	0ff97793          	andi	a5,s2,255
     e78:	00098593          	mv	a1,s3
     e7c:	00040513          	mv	a0,s0
     e80:	00f11423          	sh	a5,8(sp)
     e84:	dc5ff0ef          	jal	ra,0xc48
     e88:	02040063          	beqz	s0,0xea8
     e8c:	00000713          	li	a4,0
     e90:	0080006f          	j	0xe98
     e94:	00078413          	mv	s0,a5
     e98:	00043783          	ld	a5,0(s0)
     e9c:	00e43023          	sd	a4,0(s0)
     ea0:	00040713          	mv	a4,s0
     ea4:	fe0798e3          	bnez	a5,0xe94
     ea8:	06050a63          	beqz	a0,0xf1c
     eac:	00853783          	ld	a5,8(a0)
     eb0:	0014849b          	addiw	s1,s1,1
     eb4:	03049493          	slli	s1,s1,0x30
     eb8:	00079783          	lh	a5,0(a5)
     ebc:	0304d493          	srli	s1,s1,0x30
     ec0:	0017f713          	andi	a4,a5,1
     ec4:	00070c63          	beqz	a4,0xedc
     ec8:	4097d79b          	sraiw	a5,a5,0x9
     ecc:	0017f793          	andi	a5,a5,1
     ed0:	01678b3b          	addw	s6,a5,s6
     ed4:	030b1b13          	slli	s6,s6,0x30
     ed8:	030b5b13          	srli	s6,s6,0x30
     edc:	00053783          	ld	a5,0(a0)
     ee0:	00078c63          	beqz	a5,0xef8
     ee4:	0007b703          	ld	a4,0(a5)
     ee8:	00e53023          	sd	a4,0(a0)
     eec:	00043703          	ld	a4,0(s0)
     ef0:	00e7b023          	sd	a4,0(a5)
     ef4:	00f43023          	sd	a5,0(s0)
     ef8:	000cc663          	bltz	s9,0xf04
     efc:	001c8c9b          	addiw	s9,s9,1
     f00:	01911523          	sh	s9,10(sp)
     f04:	0019091b          	addiw	s2,s2,1
     f08:	0109191b          	slliw	s2,s2,0x10
     f0c:	4109591b          	sraiw	s2,s2,0x10
     f10:	032c0c63          	beq	s8,s2,0xf48
     f14:	00a11c83          	lh	s9,10(sp)
     f18:	f5dff06f          	j	0xe74
     f1c:	00043783          	ld	a5,0(s0)
     f20:	001b8b9b          	addiw	s7,s7,1
     f24:	030b9b93          	slli	s7,s7,0x30
     f28:	0087b783          	ld	a5,8(a5)
     f2c:	030bdb93          	srli	s7,s7,0x30
     f30:	00178783          	lb	a5,1(a5)
     f34:	0017f793          	andi	a5,a5,1
     f38:	01678b3b          	addw	s6,a5,s6
     f3c:	030b1b13          	slli	s6,s6,0x30
     f40:	030b5b13          	srli	s6,s6,0x30
     f44:	fb5ff06f          	j	0xef8
     f48:	0024949b          	slliw	s1,s1,0x2
     f4c:	417484bb          	subw	s1,s1,s7
     f50:	016484bb          	addw	s1,s1,s6
     f54:	03049493          	slli	s1,s1,0x30
     f58:	0304d493          	srli	s1,s1,0x30
     f5c:	01405e63          	blez	s4,0xf78
     f60:	00040513          	mv	a0,s0
     f64:	000a8613          	mv	a2,s5
     f68:	00000597          	auipc	a1,0x0
     f6c:	bd858593          	addi	a1,a1,-1064 # 0xb40
     f70:	d55ff0ef          	jal	ra,0xcc4
     f74:	00050413          	mv	s0,a0
     f78:	00043783          	ld	a5,0(s0)
     f7c:	00098593          	mv	a1,s3
     f80:	00040513          	mv	a0,s0
     f84:	0007b983          	ld	s3,0(a5)
     f88:	0087ba03          	ld	s4,8(a5)
     f8c:	0089b683          	ld	a3,8(s3)
     f90:	0009b703          	ld	a4,0(s3)
     f94:	00d7b423          	sd	a3,8(a5)
     f98:	0149b423          	sd	s4,8(s3)
     f9c:	00e7b023          	sd	a4,0(a5)
     fa0:	0009b023          	sd	zero,0(s3)
     fa4:	ca5ff0ef          	jal	ra,0xc48
     fa8:	00050913          	mv	s2,a0
     fac:	0a050a63          	beqz	a0,0x1060
     fb0:	00843783          	ld	a5,8(s0)
     fb4:	00048593          	mv	a1,s1
     fb8:	00079503          	lh	a0,0(a5)
     fbc:	295000ef          	jal	ra,0x1a50
     fc0:	00093903          	ld	s2,0(s2)
     fc4:	00050493          	mv	s1,a0
     fc8:	fe0914e3          	bnez	s2,0xfb0
     fcc:	00043903          	ld	s2,0(s0)
     fd0:	0089ba03          	ld	s4,8(s3)
     fd4:	00893703          	ld	a4,8(s2)
     fd8:	00093783          	ld	a5,0(s2)
     fdc:	00040513          	mv	a0,s0
     fe0:	00e9b423          	sd	a4,8(s3)
     fe4:	01493423          	sd	s4,8(s2)
     fe8:	00f9b023          	sd	a5,0(s3)
     fec:	01393023          	sd	s3,0(s2)
     ff0:	00000613          	li	a2,0
     ff4:	00000597          	auipc	a1,0x0
     ff8:	9c458593          	addi	a1,a1,-1596 # 0x9b8
     ffc:	cc9ff0ef          	jal	ra,0xcc4
    1000:	00053403          	ld	s0,0(a0)
    1004:	00050913          	mv	s2,a0
    1008:	02040063          	beqz	s0,0x1028
    100c:	00893783          	ld	a5,8(s2)
    1010:	00048593          	mv	a1,s1
    1014:	00079503          	lh	a0,0(a5)
    1018:	239000ef          	jal	ra,0x1a50
    101c:	00043403          	ld	s0,0(s0)
    1020:	00050493          	mv	s1,a0
    1024:	fe0414e3          	bnez	s0,0x100c
    1028:	06813083          	ld	ra,104(sp)
    102c:	06013403          	ld	s0,96(sp)
    1030:	05013903          	ld	s2,80(sp)
    1034:	04813983          	ld	s3,72(sp)
    1038:	04013a03          	ld	s4,64(sp)
    103c:	03813a83          	ld	s5,56(sp)
    1040:	03013b03          	ld	s6,48(sp)
    1044:	02813b83          	ld	s7,40(sp)
    1048:	02013c03          	ld	s8,32(sp)
    104c:	01813c83          	ld	s9,24(sp)
    1050:	00048513          	mv	a0,s1
    1054:	05813483          	ld	s1,88(sp)
    1058:	07010113          	addi	sp,sp,112
    105c:	00008067          	ret
    1060:	00043903          	ld	s2,0(s0)
    1064:	f40916e3          	bnez	s2,0xfb0
    1068:	f6dff06f          	j	0xfd4
    106c:	00000493          	li	s1,0
    1070:	00810993          	addi	s3,sp,8
    1074:	ee9ff06f          	j	0xf5c
    1078:	01400f93          	li	t6,20
    107c:	03f55fbb          	divuw	t6,a0,t6
    1080:	ff010113          	addi	sp,sp,-16
    1084:	00813423          	sd	s0,8(sp)
    1088:	ffff87b7          	lui	a5,0xffff8
    108c:	0005b023          	sd	zero,0(a1)
    1090:	0807871b          	addiw	a4,a5,128
    1094:	02058693          	addi	a3,a1,32
    1098:	00058513          	mv	a0,a1
    109c:	01058313          	addi	t1,a1,16
    10a0:	ffef8f9b          	addiw	t6,t6,-2
    10a4:	020f9f13          	slli	t5,t6,0x20
    10a8:	020f5f13          	srli	t5,t5,0x20
    10ac:	004f1e93          	slli	t4,t5,0x4
    10b0:	01d58eb3          	add	t4,a1,t4
    10b4:	01d5b423          	sd	t4,8(a1)
    10b8:	002f1f13          	slli	t5,t5,0x2
    10bc:	00ee9023          	sh	a4,0(t4)
    10c0:	000e9123          	sh	zero,2(t4)
    10c4:	000f829b          	sext.w	t0,t6
    10c8:	01ee8f33          	add	t5,t4,t5
    10cc:	004e8713          	addi	a4,t4,4
    10d0:	13d6f463          	bgeu	a3,t4,0x11f8
    10d4:	008e8893          	addi	a7,t4,8
    10d8:	13e8f063          	bgeu	a7,t5,0x11f8
    10dc:	00e5bc23          	sd	a4,24(a1)
    10e0:	0005b823          	sd	zero,16(a1)
    10e4:	0065b023          	sd	t1,0(a1)
    10e8:	fff7c793          	not	a5,a5
    10ec:	fff00713          	li	a4,-1
    10f0:	00ee9223          	sh	a4,4(t4)
    10f4:	00fe9323          	sh	a5,6(t4)
    10f8:	06028a63          	beqz	t0,0x116c
    10fc:	03061393          	slli	t2,a2,0x30
    1100:	ffff8437          	lui	s0,0xffff8
    1104:	0303d393          	srli	t2,t2,0x30
    1108:	00000813          	li	a6,0
    110c:	fff44413          	not	s0,s0
    1110:	03081713          	slli	a4,a6,0x30
    1114:	03075713          	srli	a4,a4,0x30
    1118:	00e3c7b3          	xor	a5,t2,a4
    111c:	00379793          	slli	a5,a5,0x3
    1120:	00777713          	andi	a4,a4,7
    1124:	0787f793          	andi	a5,a5,120
    1128:	00e7e7b3          	or	a5,a5,a4
    112c:	00879593          	slli	a1,a5,0x8
    1130:	01068713          	addi	a4,a3,16
    1134:	0018081b          	addiw	a6,a6,1
    1138:	00488e13          	addi	t3,a7,4
    113c:	00b7e7b3          	or	a5,a5,a1
    1140:	03d77463          	bgeu	a4,t4,0x1168
    1144:	03ee7263          	bgeu	t3,t5,0x1168
    1148:	0066b023          	sd	t1,0(a3)
    114c:	00d53023          	sd	a3,0(a0)
    1150:	0116b423          	sd	a7,8(a3)
    1154:	00f89023          	sh	a5,0(a7)
    1158:	00889123          	sh	s0,2(a7)
    115c:	00068313          	mv	t1,a3
    1160:	000e0893          	mv	a7,t3
    1164:	00070693          	mv	a3,a4
    1168:	fb0294e3          	bne	t0,a6,0x1110
    116c:	00033803          	ld	a6,0(t1)
    1170:	06080863          	beqz	a6,0x11e0
    1174:	00500593          	li	a1,5
    1178:	000048b7          	lui	a7,0x4
    117c:	02bfd5bb          	divuw	a1,t6,a1
    1180:	00100693          	li	a3,1
    1184:	fff88893          	addi	a7,a7,-1 # 0x3fff
    1188:	01c0006f          	j	0x11a4
    118c:	00083783          	ld	a5,0(a6)
    1190:	00d71123          	sh	a3,2(a4)
    1194:	00080313          	mv	t1,a6
    1198:	0016869b          	addiw	a3,a3,1
    119c:	04078263          	beqz	a5,0x11e0
    11a0:	00078813          	mv	a6,a5
    11a4:	03069713          	slli	a4,a3,0x30
    11a8:	03075713          	srli	a4,a4,0x30
    11ac:	0017079b          	addiw	a5,a4,1
    11b0:	0087979b          	slliw	a5,a5,0x8
    11b4:	00c74733          	xor	a4,a4,a2
    11b8:	7007f793          	andi	a5,a5,1792
    11bc:	00e7e7b3          	or	a5,a5,a4
    11c0:	0117f7b3          	and	a5,a5,a7
    11c4:	00833703          	ld	a4,8(t1)
    11c8:	fcb6e2e3          	bltu	a3,a1,0x118c
    11cc:	00f71123          	sh	a5,2(a4)
    11d0:	00083783          	ld	a5,0(a6)
    11d4:	00080313          	mv	t1,a6
    11d8:	0016869b          	addiw	a3,a3,1
    11dc:	fc0792e3          	bnez	a5,0x11a0
    11e0:	00813403          	ld	s0,8(sp)
    11e4:	00000613          	li	a2,0
    11e8:	fffff597          	auipc	a1,0xfffff
    11ec:	7d058593          	addi	a1,a1,2000 # 0x9b8
    11f0:	01010113          	addi	sp,sp,16
    11f4:	ad1ff06f          	j	0xcc4
    11f8:	00030693          	mv	a3,t1
    11fc:	00070893          	mv	a7,a4
    1200:	00000313          	li	t1,0
    1204:	ef5ff06f          	j	0x10f8
    1208:	ff010113          	addi	sp,sp,-16
    120c:	fff5081b          	addiw	a6,a0,-1
    1210:	00813423          	sd	s0,8(sp)
    1214:	00913023          	sd	s1,0(sp)
    1218:	00100713          	li	a4,1
    121c:	00080e13          	mv	t3,a6
    1220:	15077663          	bgeu	a4,a6,0x136c
    1224:	0015859b          	addiw	a1,a1,1
    1228:	03059693          	slli	a3,a1,0x30
    122c:	0306d693          	srli	a3,a3,0x30
    1230:	0036d793          	srli	a5,a3,0x3
    1234:	00700313          	li	t1,7
    1238:	0076f293          	andi	t0,a3,7
    123c:	00000f93          	li	t6,0
    1240:	00002e97          	auipc	t4,0x2
    1244:	210e8e93          	addi	t4,t4,528 # 0x3450
    1248:	00400893          	li	a7,4
    124c:	00100593          	li	a1,1
    1250:	02c00f13          	li	t5,44
    1254:	0037f793          	andi	a5,a5,3
    1258:	08628663          	beq	t0,t1,0x12e4
    125c:	0e58ec63          	bltu	a7,t0,0x1354
    1260:	ffd2871b          	addiw	a4,t0,-3
    1264:	03071713          	slli	a4,a4,0x30
    1268:	00379793          	slli	a5,a5,0x3
    126c:	03075713          	srli	a4,a4,0x30
    1270:	00fe87b3          	add	a5,t4,a5
    1274:	0ce5e863          	bltu	a1,a4,0x1344
    1278:	0207b783          	ld	a5,32(a5) # 0xffffffffffff8020
    127c:	00900393          	li	t2,9
    1280:	00800293          	li	t0,8
    1284:	007f83bb          	addw	t2,t6,t2
    1288:	0703fc63          	bgeu	t2,a6,0x1300
    128c:	020f9493          	slli	s1,t6,0x20
    1290:	0204d493          	srli	s1,s1,0x20
    1294:	02029f93          	slli	t6,t0,0x20
    1298:	00960733          	add	a4,a2,s1
    129c:	020fdf93          	srli	t6,t6,0x20
    12a0:	005782b3          	add	t0,a5,t0
    12a4:	0007c403          	lbu	s0,0(a5)
    12a8:	00178793          	addi	a5,a5,1
    12ac:	00170713          	addi	a4,a4,1
    12b0:	fe870fa3          	sb	s0,-1(a4)
    12b4:	fef298e3          	bne	t0,a5,0x12a4
    12b8:	0016869b          	addiw	a3,a3,1
    12bc:	01f607b3          	add	a5,a2,t6
    12c0:	03069693          	slli	a3,a3,0x30
    12c4:	00978fb3          	add	t6,a5,s1
    12c8:	0306d693          	srli	a3,a3,0x30
    12cc:	01ef8023          	sb	t5,0(t6)
    12d0:	0036d793          	srli	a5,a3,0x3
    12d4:	0076f293          	andi	t0,a3,7
    12d8:	00038f93          	mv	t6,t2
    12dc:	0037f793          	andi	a5,a5,3
    12e0:	f6629ee3          	bne	t0,t1,0x125c
    12e4:	00379793          	slli	a5,a5,0x3
    12e8:	00900393          	li	t2,9
    12ec:	00fe87b3          	add	a5,t4,a5
    12f0:	007f83bb          	addw	t2,t6,t2
    12f4:	0607b783          	ld	a5,96(a5)
    12f8:	00800293          	li	t0,8
    12fc:	f903e8e3          	bltu	t2,a6,0x128c
    1300:	02affa63          	bgeu	t6,a0,0x1334
    1304:	020f9793          	slli	a5,t6,0x20
    1308:	41fe0e3b          	subw	t3,t3,t6
    130c:	0207d793          	srli	a5,a5,0x20
    1310:	00160713          	addi	a4,a2,1
    1314:	020e1e13          	slli	t3,t3,0x20
    1318:	00f70733          	add	a4,a4,a5
    131c:	020e5e13          	srli	t3,t3,0x20
    1320:	00f607b3          	add	a5,a2,a5
    1324:	01c70733          	add	a4,a4,t3
    1328:	00078023          	sb	zero,0(a5)
    132c:	00178793          	addi	a5,a5,1
    1330:	fef71ce3          	bne	a4,a5,0x1328
    1334:	00813403          	ld	s0,8(sp)
    1338:	00013483          	ld	s1,0(sp)
    133c:	01010113          	addi	sp,sp,16
    1340:	00008067          	ret
    1344:	0007b783          	ld	a5,0(a5)
    1348:	00500393          	li	t2,5
    134c:	00400293          	li	t0,4
    1350:	f35ff06f          	j	0x1284
    1354:	00379793          	slli	a5,a5,0x3
    1358:	00fe87b3          	add	a5,t4,a5
    135c:	0407b783          	ld	a5,64(a5)
    1360:	00900393          	li	t2,9
    1364:	00800293          	li	t0,8
    1368:	f1dff06f          	j	0x1284
    136c:	00000f93          	li	t6,0
    1370:	f95ff06f          	j	0x1304
    1374:	00053783          	ld	a5,0(a0)
    1378:	00050e13          	mv	t3,a0
    137c:	00000513          	li	a0,0
    1380:	0007c703          	lbu	a4,0(a5)
    1384:	00078813          	mv	a6,a5
    1388:	0c070c63          	beqz	a4,0x1460
    138c:	02c00693          	li	a3,44
    1390:	00178813          	addi	a6,a5,1
    1394:	2ad70863          	beq	a4,a3,0x1644
    1398:	0005a503          	lw	a0,0(a1)
    139c:	fd07061b          	addiw	a2,a4,-48
    13a0:	0ff67613          	andi	a2,a2,255
    13a4:	00900893          	li	a7,9
    13a8:	0015051b          	addiw	a0,a0,1
    13ac:	0ac8ee63          	bltu	a7,a2,0x1468
    13b0:	00a5a023          	sw	a0,0(a1)
    13b4:	0017c883          	lbu	a7,1(a5)
    13b8:	16088063          	beqz	a7,0x1518
    13bc:	00278713          	addi	a4,a5,2
    13c0:	14d88a63          	beq	a7,a3,0x1514
    13c4:	fd08851b          	addiw	a0,a7,-48
    13c8:	02e00793          	li	a5,46
    13cc:	00900693          	li	a3,9
    13d0:	02c00613          	li	a2,44
    13d4:	0ff57513          	andi	a0,a0,255
    13d8:	02f88663          	beq	a7,a5,0x1404
    13dc:	0ca6e063          	bltu	a3,a0,0x149c
    13e0:	00184883          	lbu	a7,1(a6)
    13e4:	00170513          	addi	a0,a4,1
    13e8:	00070813          	mv	a6,a4
    13ec:	12088463          	beqz	a7,0x1514
    13f0:	28c88863          	beq	a7,a2,0x1680
    13f4:	00050713          	mv	a4,a0
    13f8:	fd08851b          	addiw	a0,a7,-48
    13fc:	0ff57513          	andi	a0,a0,255
    1400:	fcf89ee3          	bne	a7,a5,0x13dc
    1404:	0105a783          	lw	a5,16(a1)
    1408:	00500513          	li	a0,5
    140c:	0017879b          	addiw	a5,a5,1
    1410:	00f5a823          	sw	a5,16(a1)
    1414:	00184303          	lbu	t1,1(a6)
    1418:	00070813          	mv	a6,a4
    141c:	04030263          	beqz	t1,0x1460
    1420:	02c00793          	li	a5,44
    1424:	00170893          	addi	a7,a4,1
    1428:	20f30863          	beq	t1,a5,0x1638
    142c:	04500793          	li	a5,69
    1430:	00900693          	li	a3,9
    1434:	02c00613          	li	a2,44
    1438:	fd03051b          	addiw	a0,t1,-48
    143c:	0df37313          	andi	t1,t1,223
    1440:	0ff57513          	andi	a0,a0,255
    1444:	0cf30e63          	beq	t1,a5,0x1520
    1448:	1aa6f063          	bgeu	a3,a0,0x15e8
    144c:	0145a783          	lw	a5,20(a1)
    1450:	00088813          	mv	a6,a7
    1454:	00100513          	li	a0,1
    1458:	0017879b          	addiw	a5,a5,1
    145c:	00f5aa23          	sw	a5,20(a1)
    1460:	010e3023          	sd	a6,0(t3)
    1464:	00008067          	ret
    1468:	02b00613          	li	a2,43
    146c:	04c70663          	beq	a4,a2,0x14b8
    1470:	02d00613          	li	a2,45
    1474:	04c70263          	beq	a4,a2,0x14b8
    1478:	02e00613          	li	a2,46
    147c:	18c70463          	beq	a4,a2,0x1604
    1480:	0045a783          	lw	a5,4(a1)
    1484:	00a5a023          	sw	a0,0(a1)
    1488:	00100513          	li	a0,1
    148c:	0017879b          	addiw	a5,a5,1
    1490:	00f5a223          	sw	a5,4(a1)
    1494:	010e3023          	sd	a6,0(t3)
    1498:	00008067          	ret
    149c:	0105a783          	lw	a5,16(a1)
    14a0:	00070813          	mv	a6,a4
    14a4:	00100513          	li	a0,1
    14a8:	0017879b          	addiw	a5,a5,1
    14ac:	00f5a823          	sw	a5,16(a1)
    14b0:	010e3023          	sd	a6,0(t3)
    14b4:	00008067          	ret
    14b8:	00a5a023          	sw	a0,0(a1)
    14bc:	0017c603          	lbu	a2,1(a5)
    14c0:	1a060663          	beqz	a2,0x166c
    14c4:	00278813          	addi	a6,a5,2
    14c8:	1ad60263          	beq	a2,a3,0x166c
    14cc:	0085a683          	lw	a3,8(a1)
    14d0:	fd06071b          	addiw	a4,a2,-48
    14d4:	0ff77713          	andi	a4,a4,255
    14d8:	00900513          	li	a0,9
    14dc:	0016869b          	addiw	a3,a3,1
    14e0:	00e57e63          	bgeu	a0,a4,0x14fc
    14e4:	02e00713          	li	a4,46
    14e8:	12e60c63          	beq	a2,a4,0x1620
    14ec:	00d5a423          	sw	a3,8(a1)
    14f0:	00100513          	li	a0,1
    14f4:	010e3023          	sd	a6,0(t3)
    14f8:	00008067          	ret
    14fc:	00d5a423          	sw	a3,8(a1)
    1500:	0027c883          	lbu	a7,2(a5)
    1504:	00088a63          	beqz	a7,0x1518
    1508:	02c00793          	li	a5,44
    150c:	00180713          	addi	a4,a6,1
    1510:	eaf89ae3          	bne	a7,a5,0x13c4
    1514:	00070813          	mv	a6,a4
    1518:	00400513          	li	a0,4
    151c:	f45ff06f          	j	0x1460
    1520:	0145a783          	lw	a5,20(a1)
    1524:	0017879b          	addiw	a5,a5,1
    1528:	00f5aa23          	sw	a5,20(a1)
    152c:	00174783          	lbu	a5,1(a4)
    1530:	12078463          	beqz	a5,0x1658
    1534:	02c00693          	li	a3,44
    1538:	00188813          	addi	a6,a7,1
    153c:	12d78063          	beq	a5,a3,0x165c
    1540:	00c5a703          	lw	a4,12(a1)
    1544:	fd57879b          	addiw	a5,a5,-43
    1548:	0fd7f793          	andi	a5,a5,253
    154c:	0017071b          	addiw	a4,a4,1
    1550:	00e5a623          	sw	a4,12(a1)
    1554:	00078863          	beqz	a5,0x1564
    1558:	00100513          	li	a0,1
    155c:	010e3023          	sd	a6,0(t3)
    1560:	00008067          	ret
    1564:	0018c783          	lbu	a5,1(a7)
    1568:	0e078e63          	beqz	a5,0x1664
    156c:	00288813          	addi	a6,a7,2
    1570:	0ed78a63          	beq	a5,a3,0x1664
    1574:	0185a703          	lw	a4,24(a1)
    1578:	fd07879b          	addiw	a5,a5,-48
    157c:	0ff7f793          	andi	a5,a5,255
    1580:	0017071b          	addiw	a4,a4,1
    1584:	00900613          	li	a2,9
    1588:	00e5ac23          	sw	a4,24(a1)
    158c:	fcf666e3          	bltu	a2,a5,0x1558
    1590:	0028c703          	lbu	a4,2(a7)
    1594:	0a070e63          	beqz	a4,0x1650
    1598:	00388793          	addi	a5,a7,3
    159c:	0ad70863          	beq	a4,a3,0x164c
    15a0:	00900693          	li	a3,9
    15a4:	02c00513          	li	a0,44
    15a8:	fd07071b          	addiw	a4,a4,-48
    15ac:	0ff77713          	andi	a4,a4,255
    15b0:	00e6fe63          	bgeu	a3,a4,0x15cc
    15b4:	0045a703          	lw	a4,4(a1)
    15b8:	00078813          	mv	a6,a5
    15bc:	00100513          	li	a0,1
    15c0:	0017079b          	addiw	a5,a4,1
    15c4:	00f5a223          	sw	a5,4(a1)
    15c8:	e99ff06f          	j	0x1460
    15cc:	00184703          	lbu	a4,1(a6)
    15d0:	00178613          	addi	a2,a5,1
    15d4:	00078813          	mv	a6,a5
    15d8:	06070a63          	beqz	a4,0x164c
    15dc:	08a70c63          	beq	a4,a0,0x1674
    15e0:	00060793          	mv	a5,a2
    15e4:	fc5ff06f          	j	0x15a8
    15e8:	00174303          	lbu	t1,1(a4)
    15ec:	00188813          	addi	a6,a7,1
    15f0:	00088713          	mv	a4,a7
    15f4:	04030263          	beqz	t1,0x1638
    15f8:	04c30263          	beq	t1,a2,0x163c
    15fc:	00080893          	mv	a7,a6
    1600:	e39ff06f          	j	0x1438
    1604:	00a5a023          	sw	a0,0(a1)
    1608:	0017c303          	lbu	t1,1(a5)
    160c:	02030863          	beqz	t1,0x163c
    1610:	00278893          	addi	a7,a5,2
    1614:	02d30263          	beq	t1,a3,0x1638
    1618:	00080713          	mv	a4,a6
    161c:	e11ff06f          	j	0x142c
    1620:	00d5a423          	sw	a3,8(a1)
    1624:	0027c303          	lbu	t1,2(a5)
    1628:	00030a63          	beqz	t1,0x163c
    162c:	02c00793          	li	a5,44
    1630:	00180893          	addi	a7,a6,1
    1634:	fef312e3          	bne	t1,a5,0x1618
    1638:	00088813          	mv	a6,a7
    163c:	00500513          	li	a0,5
    1640:	e21ff06f          	j	0x1460
    1644:	00000513          	li	a0,0
    1648:	e19ff06f          	j	0x1460
    164c:	00078813          	mv	a6,a5
    1650:	00700513          	li	a0,7
    1654:	e0dff06f          	j	0x1460
    1658:	00088813          	mv	a6,a7
    165c:	00300513          	li	a0,3
    1660:	e01ff06f          	j	0x1460
    1664:	00600513          	li	a0,6
    1668:	df9ff06f          	j	0x1460
    166c:	00200513          	li	a0,2
    1670:	df1ff06f          	j	0x1460
    1674:	00060813          	mv	a6,a2
    1678:	00700513          	li	a0,7
    167c:	de5ff06f          	j	0x1460
    1680:	00050813          	mv	a6,a0
    1684:	00400513          	li	a0,4
    1688:	dd9ff06f          	j	0x1460
    168c:	f6010113          	addi	sp,sp,-160
    1690:	08813823          	sd	s0,144(sp)
    1694:	09213023          	sd	s2,128(sp)
    1698:	01010413          	addi	s0,sp,16
    169c:	03010913          	addi	s2,sp,48
    16a0:	08913423          	sd	s1,136(sp)
    16a4:	07313c23          	sd	s3,120(sp)
    16a8:	07413823          	sd	s4,112(sp)
    16ac:	07513423          	sd	s5,104(sp)
    16b0:	07613023          	sd	s6,96(sp)
    16b4:	05713c23          	sd	s7,88(sp)
    16b8:	00068a13          	mv	s4,a3
    16bc:	00070993          	mv	s3,a4
    16c0:	00078493          	mv	s1,a5
    16c4:	08113c23          	sd	ra,152(sp)
    16c8:	05813823          	sd	s8,80(sp)
    16cc:	00058a93          	mv	s5,a1
    16d0:	00050b93          	mv	s7,a0
    16d4:	00060b13          	mv	s6,a2
    16d8:	00b13423          	sd	a1,8(sp)
    16dc:	05010693          	addi	a3,sp,80
    16e0:	00040713          	mv	a4,s0
    16e4:	00090793          	mv	a5,s2
    16e8:	0007a023          	sw	zero,0(a5)
    16ec:	00072023          	sw	zero,0(a4)
    16f0:	00478793          	addi	a5,a5,4
    16f4:	00470713          	addi	a4,a4,4
    16f8:	fed798e3          	bne	a5,a3,0x16e8
    16fc:	000ac703          	lbu	a4,0(s5) # 0xfffffffffffff000
    1700:	14070663          	beqz	a4,0x184c
    1704:	00810c13          	addi	s8,sp,8
    1708:	03010593          	addi	a1,sp,48
    170c:	000c0513          	mv	a0,s8
    1710:	c65ff0ef          	jal	ra,0x1374
    1714:	02051813          	slli	a6,a0,0x20
    1718:	05010793          	addi	a5,sp,80
    171c:	01e85813          	srli	a6,a6,0x1e
    1720:	01078833          	add	a6,a5,a6
    1724:	00813703          	ld	a4,8(sp)
    1728:	fc082783          	lw	a5,-64(a6)
    172c:	00074703          	lbu	a4,0(a4)
    1730:	0017879b          	addiw	a5,a5,1
    1734:	fcf82023          	sw	a5,-64(a6)
    1738:	fc0718e3          	bnez	a4,0x1708
    173c:	020b9b93          	slli	s7,s7,0x20
    1740:	020bdb93          	srli	s7,s7,0x20
    1744:	01513423          	sd	s5,8(sp)
    1748:	017a8bb3          	add	s7,s5,s7
    174c:	000ac703          	lbu	a4,0(s5)
    1750:	117afa63          	bgeu	s5,s7,0x1864
    1754:	000a8793          	mv	a5,s5
    1758:	02c00613          	li	a2,44
    175c:	0080006f          	j	0x1764
    1760:	0007c703          	lbu	a4,0(a5)
    1764:	016746b3          	xor	a3,a4,s6
    1768:	00c70463          	beq	a4,a2,0x1770
    176c:	00d78023          	sb	a3,0(a5)
    1770:	00813783          	ld	a5,8(sp)
    1774:	013787b3          	add	a5,a5,s3
    1778:	00f13423          	sd	a5,8(sp)
    177c:	ff77e2e3          	bltu	a5,s7,0x1760
    1780:	000ac783          	lbu	a5,0(s5)
    1784:	01513423          	sd	s5,8(sp)
    1788:	00810c13          	addi	s8,sp,8
    178c:	04078063          	beqz	a5,0x17cc
    1790:	03010593          	addi	a1,sp,48
    1794:	000c0513          	mv	a0,s8
    1798:	bddff0ef          	jal	ra,0x1374
    179c:	02051613          	slli	a2,a0,0x20
    17a0:	05010793          	addi	a5,sp,80
    17a4:	01e65613          	srli	a2,a2,0x1e
    17a8:	00c78633          	add	a2,a5,a2
    17ac:	00813703          	ld	a4,8(sp)
    17b0:	fc062783          	lw	a5,-64(a2)
    17b4:	00074703          	lbu	a4,0(a4)
    17b8:	0017879b          	addiw	a5,a5,1
    17bc:	fcf62023          	sw	a5,-64(a2)
    17c0:	fc0718e3          	bnez	a4,0x1790
    17c4:	01513423          	sd	s5,8(sp)
    17c8:	037af463          	bgeu	s5,s7,0x17f0
    17cc:	02c00693          	li	a3,44
    17d0:	000ac783          	lbu	a5,0(s5)
    17d4:	0147c733          	xor	a4,a5,s4
    17d8:	00d78463          	beq	a5,a3,0x17e0
    17dc:	00ea8023          	sb	a4,0(s5)
    17e0:	00813a83          	ld	s5,8(sp)
    17e4:	013a8ab3          	add	s5,s5,s3
    17e8:	01513423          	sd	s5,8(sp)
    17ec:	ff7ae2e3          	bltu	s5,s7,0x17d0
    17f0:	02040993          	addi	s3,s0,32 # 0xffffffffffff8020
    17f4:	00042503          	lw	a0,0(s0)
    17f8:	00048593          	mv	a1,s1
    17fc:	00440413          	addi	s0,s0,4
    1800:	21c000ef          	jal	ra,0x1a1c
    1804:	00050593          	mv	a1,a0
    1808:	00092503          	lw	a0,0(s2)
    180c:	00490913          	addi	s2,s2,4
    1810:	20c000ef          	jal	ra,0x1a1c
    1814:	00050493          	mv	s1,a0
    1818:	fc899ee3          	bne	s3,s0,0x17f4
    181c:	09813083          	ld	ra,152(sp)
    1820:	09013403          	ld	s0,144(sp)
    1824:	08813483          	ld	s1,136(sp)
    1828:	08013903          	ld	s2,128(sp)
    182c:	07813983          	ld	s3,120(sp)
    1830:	07013a03          	ld	s4,112(sp)
    1834:	06813a83          	ld	s5,104(sp)
    1838:	06013b03          	ld	s6,96(sp)
    183c:	05813b83          	ld	s7,88(sp)
    1840:	05013c03          	ld	s8,80(sp)
    1844:	0a010113          	addi	sp,sp,160
    1848:	00008067          	ret
    184c:	020b9b93          	slli	s7,s7,0x20
    1850:	020bdb93          	srli	s7,s7,0x20
    1854:	01513423          	sd	s5,8(sp)
    1858:	017a8bb3          	add	s7,s5,s7
    185c:	ef7aece3          	bltu	s5,s7,0x1754
    1860:	f91ff06f          	j	0x17f0
    1864:	f20716e3          	bnez	a4,0x1790
    1868:	f89ff06f          	j	0x17f0
    186c:	ff010113          	addi	sp,sp,-16
    1870:	00113423          	sd	ra,8(sp)
    1874:	3f5000ef          	jal	ra,0x2468
    1878:	00813083          	ld	ra,8(sp)
    187c:	02051513          	slli	a0,a0,0x20
    1880:	02055513          	srli	a0,a0,0x20
    1884:	00002797          	auipc	a5,0x2
    1888:	5ea7ba23          	sd	a0,1524(a5) # 0x3e78
    188c:	01010113          	addi	sp,sp,16
    1890:	00008067          	ret
    1894:	ff010113          	addi	sp,sp,-16
    1898:	00113423          	sd	ra,8(sp)
    189c:	3cd000ef          	jal	ra,0x2468
    18a0:	00813083          	ld	ra,8(sp)
    18a4:	02051513          	slli	a0,a0,0x20
    18a8:	02055513          	srli	a0,a0,0x20
    18ac:	00002797          	auipc	a5,0x2
    18b0:	5ca7ba23          	sd	a0,1492(a5) # 0x3e80
    18b4:	01010113          	addi	sp,sp,16
    18b8:	00008067          	ret
    18bc:	00002517          	auipc	a0,0x2
    18c0:	5c453503          	ld	a0,1476(a0) # 0x3e80
    18c4:	00002797          	auipc	a5,0x2
    18c8:	5b47b783          	ld	a5,1460(a5) # 0x3e78
    18cc:	40f5053b          	subw	a0,a0,a5
    18d0:	00008067          	ret
    18d4:	00008067          	ret
    18d8:	00100793          	li	a5,1
    18dc:	00f50023          	sb	a5,0(a0)
    18e0:	00008067          	ret
    18e4:	00050023          	sb	zero,0(a0)
    18e8:	00008067          	ret
    18ec:	00500793          	li	a5,5
    18f0:	04a7ee63          	bltu	a5,a0,0x194c
    18f4:	00002717          	auipc	a4,0x2
    18f8:	bdc70713          	addi	a4,a4,-1060 # 0x34d0
    18fc:	00251513          	slli	a0,a0,0x2
    1900:	00e50533          	add	a0,a0,a4
    1904:	00052783          	lw	a5,0(a0)
    1908:	00e787b3          	add	a5,a5,a4
    190c:	00078067          	jr	a5
    1910:	00002517          	auipc	a0,0x2
    1914:	d8052503          	lw	a0,-640(a0) # 0x3690
    1918:	00008067          	ret
    191c:	00002517          	auipc	a0,0x2
    1920:	d7c52503          	lw	a0,-644(a0) # 0x3698
    1924:	00008067          	ret
    1928:	00002517          	auipc	a0,0x2
    192c:	d6c52503          	lw	a0,-660(a0) # 0x3694
    1930:	00008067          	ret
    1934:	00002517          	auipc	a0,0x2
    1938:	d5852503          	lw	a0,-680(a0) # 0x368c
    193c:	00008067          	ret
    1940:	00002517          	auipc	a0,0x2
    1944:	d4852503          	lw	a0,-696(a0) # 0x3688
    1948:	00008067          	ret
    194c:	00000513          	li	a0,0
    1950:	00008067          	ret
    1954:	00050693          	mv	a3,a0
    1958:	00058513          	mv	a0,a1
    195c:	ffffa5b7          	lui	a1,0xffffa
    1960:	00800793          	li	a5,8
    1964:	00158593          	addi	a1,a1,1 # 0xffffffffffffa001
    1968:	00d54733          	xor	a4,a0,a3
    196c:	fff7879b          	addiw	a5,a5,-1
    1970:	00155513          	srli	a0,a0,0x1
    1974:	00177713          	andi	a4,a4,1
    1978:	0ff7f793          	andi	a5,a5,255
    197c:	00b54633          	xor	a2,a0,a1
    1980:	0016d693          	srli	a3,a3,0x1
    1984:	00070663          	beqz	a4,0x1990
    1988:	03061513          	slli	a0,a2,0x30
    198c:	03055513          	srli	a0,a0,0x30
    1990:	fc079ce3          	bnez	a5,0x1968
    1994:	00008067          	ret
    1998:	00050693          	mv	a3,a0
    199c:	ffffa837          	lui	a6,0xffffa
    19a0:	00058513          	mv	a0,a1
    19a4:	0ff6f613          	andi	a2,a3,255
    19a8:	00800793          	li	a5,8
    19ac:	00180813          	addi	a6,a6,1 # 0xffffffffffffa001
    19b0:	00c54733          	xor	a4,a0,a2
    19b4:	fff7879b          	addiw	a5,a5,-1
    19b8:	00155513          	srli	a0,a0,0x1
    19bc:	00177713          	andi	a4,a4,1
    19c0:	0ff7f793          	andi	a5,a5,255
    19c4:	010545b3          	xor	a1,a0,a6
    19c8:	00165613          	srli	a2,a2,0x1
    19cc:	00070663          	beqz	a4,0x19d8
    19d0:	03059513          	slli	a0,a1,0x30
    19d4:	03055513          	srli	a0,a0,0x30
    19d8:	fc079ce3          	bnez	a5,0x19b0
    19dc:	ffffa5b7          	lui	a1,0xffffa
    19e0:	0086d693          	srli	a3,a3,0x8
    19e4:	00800793          	li	a5,8
    19e8:	00158593          	addi	a1,a1,1 # 0xffffffffffffa001
    19ec:	00d54733          	xor	a4,a0,a3
    19f0:	fff7879b          	addiw	a5,a5,-1
    19f4:	00155513          	srli	a0,a0,0x1
    19f8:	00177713          	andi	a4,a4,1
    19fc:	0ff7f793          	andi	a5,a5,255
    1a00:	00b54633          	xor	a2,a0,a1
    1a04:	0016d693          	srli	a3,a3,0x1
    1a08:	00070663          	beqz	a4,0x1a14
    1a0c:	03061513          	slli	a0,a2,0x30
    1a10:	03055513          	srli	a0,a0,0x30
    1a14:	fc079ce3          	bnez	a5,0x19ec
    1a18:	00008067          	ret
    1a1c:	ff010113          	addi	sp,sp,-16
    1a20:	00813023          	sd	s0,0(sp)
    1a24:	00050413          	mv	s0,a0
    1a28:	03051513          	slli	a0,a0,0x30
    1a2c:	03055513          	srli	a0,a0,0x30
    1a30:	00113423          	sd	ra,8(sp)
    1a34:	f65ff0ef          	jal	ra,0x1998
    1a38:	00050593          	mv	a1,a0
    1a3c:	0104551b          	srliw	a0,s0,0x10
    1a40:	00013403          	ld	s0,0(sp)
    1a44:	00813083          	ld	ra,8(sp)
    1a48:	01010113          	addi	sp,sp,16
    1a4c:	f4dff06f          	j	0x1998
    1a50:	03051513          	slli	a0,a0,0x30
    1a54:	03055513          	srli	a0,a0,0x30
    1a58:	f41ff06f          	j	0x1998
    1a5c:	00000513          	li	a0,0
    1a60:	00008067          	ret
    1a64:	f1010113          	addi	sp,sp,-240
    1a68:	0e113423          	sd	ra,232(sp)
    1a6c:	0e813023          	sd	s0,224(sp)
    1a70:	0c913c23          	sd	s1,216(sp)
    1a74:	00058413          	mv	s0,a1
    1a78:	0d213823          	sd	s2,208(sp)
    1a7c:	0d313423          	sd	s3,200(sp)
    1a80:	0d413023          	sd	s4,192(sp)
    1a84:	0b513c23          	sd	s5,184(sp)
    1a88:	0b613823          	sd	s6,176(sp)
    1a8c:	0b713423          	sd	s7,168(sp)
    1a90:	0b813023          	sd	s8,160(sp)
    1a94:	09913c23          	sd	s9,152(sp)
    1a98:	09a13823          	sd	s10,144(sp)
    1a9c:	09b13423          	sd	s11,136(sp)
    1aa0:	00a12623          	sw	a0,12(sp)
    1aa4:	730000ef          	jal	ra,0x21d4
    1aa8:	00a00593          	li	a1,10
    1aac:	00001517          	auipc	a0,0x1
    1ab0:	48c50513          	addi	a0,a0,1164 # 0x2f38
    1ab4:	408010ef          	jal	ra,0x2ebc
    1ab8:	00040613          	mv	a2,s0
    1abc:	00c10593          	addi	a1,sp,12
    1ac0:	07a10513          	addi	a0,sp,122
    1ac4:	e15ff0ef          	jal	ra,0x18d8
    1ac8:	00100513          	li	a0,1
    1acc:	e21ff0ef          	jal	ra,0x18ec
    1ad0:	00050793          	mv	a5,a0
    1ad4:	00200513          	li	a0,2
    1ad8:	00f11823          	sh	a5,16(sp)
    1adc:	e11ff0ef          	jal	ra,0x18ec
    1ae0:	00050793          	mv	a5,a0
    1ae4:	00300513          	li	a0,3
    1ae8:	00f11923          	sh	a5,18(sp)
    1aec:	e01ff0ef          	jal	ra,0x18ec
    1af0:	00050793          	mv	a5,a0
    1af4:	00400513          	li	a0,4
    1af8:	00f11a23          	sh	a5,20(sp)
    1afc:	df1ff0ef          	jal	ra,0x18ec
    1b00:	00050793          	mv	a5,a0
    1b04:	00500513          	li	a0,5
    1b08:	02f12e23          	sw	a5,60(sp)
    1b0c:	de1ff0ef          	jal	ra,0x18ec
    1b10:	0005051b          	sext.w	a0,a0
    1b14:	5a050a63          	beqz	a0,0x20c8
    1b18:	04a12023          	sw	a0,64(sp)
    1b1c:	01013783          	ld	a5,16(sp)
    1b20:	01079713          	slli	a4,a5,0x10
    1b24:	00071a63          	bnez	a4,0x1b38
    1b28:	06600793          	li	a5,102
    1b2c:	00012823          	sw	zero,16(sp)
    1b30:	00f11a23          	sh	a5,20(sp)
    1b34:	01013783          	ld	a5,16(sp)
    1b38:	01079793          	slli	a5,a5,0x10
    1b3c:	0107d793          	srli	a5,a5,0x10
    1b40:	00100713          	li	a4,1
    1b44:	00e79c63          	bne	a5,a4,0x1b5c
    1b48:	341537b7          	lui	a5,0x34153
    1b4c:	4157879b          	addiw	a5,a5,1045
    1b50:	00f12823          	sw	a5,16(sp)
    1b54:	06600793          	li	a5,102
    1b58:	00f11a23          	sh	a5,20(sp)
    1b5c:	04012783          	lw	a5,64(sp)
    1b60:	00002e17          	auipc	t3,0x2
    1b64:	b48e0e13          	addi	t3,t3,-1208 # 0x36a8
    1b68:	01c13c23          	sd	t3,24(sp)
    1b6c:	0017fe93          	andi	t4,a5,1
    1b70:	06011c23          	sh	zero,120(sp)
    1b74:	0027f713          	andi	a4,a5,2
    1b78:	000e8693          	mv	a3,t4
    1b7c:	00070863          	beqz	a4,0x1b8c
    1b80:	001e869b          	addiw	a3,t4,1
    1b84:	03069693          	slli	a3,a3,0x30
    1b88:	0306d693          	srli	a3,a3,0x30
    1b8c:	0047f613          	andi	a2,a5,4
    1b90:	00060863          	beqz	a2,0x1ba0
    1b94:	0016869b          	addiw	a3,a3,1
    1b98:	03069693          	slli	a3,a3,0x30
    1b9c:	0306d693          	srli	a3,a3,0x30
    1ba0:	7d000613          	li	a2,2000
    1ba4:	02d6553b          	divuw	a0,a2,a3
    1ba8:	00000593          	li	a1,0
    1bac:	00000613          	li	a2,0
    1bb0:	00100893          	li	a7,1
    1bb4:	00300813          	li	a6,3
    1bb8:	02a12c23          	sw	a0,56(sp)
    1bbc:	00c896bb          	sllw	a3,a7,a2
    1bc0:	00d7f6b3          	and	a3,a5,a3
    1bc4:	0006869b          	sext.w	a3,a3
    1bc8:	4c069c63          	bnez	a3,0x20a0
    1bcc:	00160613          	addi	a2,a2,1
    1bd0:	ff0616e3          	bne	a2,a6,0x1bbc
    1bd4:	240e9a63          	bnez	t4,0x1e28
    1bd8:	26071663          	bnez	a4,0x1e44
    1bdc:	0047f793          	andi	a5,a5,4
    1be0:	00078a63          	beqz	a5,0x1bf4
    1be4:	03013603          	ld	a2,48(sp)
    1be8:	01011583          	lh	a1,16(sp)
    1bec:	03812503          	lw	a0,56(sp)
    1bf0:	e18ff0ef          	jal	ra,0x1208
    1bf4:	03c12783          	lw	a5,60(sp)
    1bf8:	04079e63          	bnez	a5,0x1c54
    1bfc:	00100793          	li	a5,1
    1c00:	02f12e23          	sw	a5,60(sp)
    1c04:	03c12703          	lw	a4,60(sp)
    1c08:	0027179b          	slliw	a5,a4,0x2
    1c0c:	00e787bb          	addw	a5,a5,a4
    1c10:	0017979b          	slliw	a5,a5,0x1
    1c14:	02f12e23          	sw	a5,60(sp)
    1c18:	c55ff0ef          	jal	ra,0x186c
    1c1c:	01010513          	addi	a0,sp,16
    1c20:	bf0fe0ef          	jal	ra,0x10
    1c24:	c71ff0ef          	jal	ra,0x1894
    1c28:	c95ff0ef          	jal	ra,0x18bc
    1c2c:	0005051b          	sext.w	a0,a0
    1c30:	ca5ff0ef          	jal	ra,0x18d4
    1c34:	0005051b          	sext.w	a0,a0
    1c38:	fc0506e3          	beqz	a0,0x1c04
    1c3c:	00a00793          	li	a5,10
    1c40:	02a7d53b          	divuw	a0,a5,a0
    1c44:	03c12783          	lw	a5,60(sp)
    1c48:	0015051b          	addiw	a0,a0,1
    1c4c:	02a7853b          	mulw	a0,a5,a0
    1c50:	02a12e23          	sw	a0,60(sp)
    1c54:	c19ff0ef          	jal	ra,0x186c
    1c58:	01010513          	addi	a0,sp,16
    1c5c:	bb4fe0ef          	jal	ra,0x10
    1c60:	c35ff0ef          	jal	ra,0x1894
    1c64:	c59ff0ef          	jal	ra,0x18bc
    1c68:	00050993          	mv	s3,a0
    1c6c:	01011503          	lh	a0,16(sp)
    1c70:	00000593          	li	a1,0
    1c74:	0009899b          	sext.w	s3,s3
    1c78:	dd9ff0ef          	jal	ra,0x1a50
    1c7c:	00050593          	mv	a1,a0
    1c80:	01211503          	lh	a0,18(sp)
    1c84:	dcdff0ef          	jal	ra,0x1a50
    1c88:	00050593          	mv	a1,a0
    1c8c:	01411503          	lh	a0,20(sp)
    1c90:	dc1ff0ef          	jal	ra,0x1a50
    1c94:	00050593          	mv	a1,a0
    1c98:	03811503          	lh	a0,56(sp)
    1c9c:	db5ff0ef          	jal	ra,0x1a50
    1ca0:	000087b7          	lui	a5,0x8
    1ca4:	00050a1b          	sext.w	s4,a0
    1ca8:	b0578793          	addi	a5,a5,-1275 # 0x7b05
    1cac:	50fa0663          	beq	s4,a5,0x21b8
    1cb0:	3d47e263          	bltu	a5,s4,0x2074
    1cb4:	000027b7          	lui	a5,0x2
    1cb8:	8f278793          	addi	a5,a5,-1806 # 0x18f2
    1cbc:	4cfa0a63          	beq	s4,a5,0x2190
    1cc0:	000057b7          	lui	a5,0x5
    1cc4:	eaf78793          	addi	a5,a5,-337 # 0x4eaf
    1cc8:	1afa1463          	bne	s4,a5,0x1e70
    1ccc:	00001517          	auipc	a0,0x1
    1cd0:	2f450513          	addi	a0,a0,756 # 0x2fc0
    1cd4:	1e8010ef          	jal	ra,0x2ebc
    1cd8:	00200c93          	li	s9,2
    1cdc:	00002917          	auipc	s2,0x2
    1ce0:	9a890913          	addi	s2,s2,-1624 # 0x3684
    1ce4:	00092783          	lw	a5,0(s2)
    1ce8:	00000d13          	li	s10,0
    1cec:	00000c13          	li	s8,0
    1cf0:	00000d93          	li	s11,0
    1cf4:	4c078c63          	beqz	a5,0x21cc
    1cf8:	001c9c93          	slli	s9,s9,0x1
    1cfc:	00001797          	auipc	a5,0x1
    1d00:	64478793          	addi	a5,a5,1604 # 0x3340
    1d04:	01978cb3          	add	s9,a5,s9
    1d08:	00001b97          	auipc	s7,0x1
    1d0c:	350b8b93          	addi	s7,s7,848 # 0x3058
    1d10:	00001b17          	auipc	s6,0x1
    1d14:	378b0b13          	addi	s6,s6,888 # 0x3088
    1d18:	00001a97          	auipc	s5,0x1
    1d1c:	3a8a8a93          	addi	s5,s5,936 # 0x30c0
    1d20:	05c0006f          	j	0x1d7c
    1d24:	ff645603          	lhu	a2,-10(s0)
    1d28:	020cd683          	lhu	a3,32(s9)
    1d2c:	0ed60a63          	beq	a2,a3,0x1e20
    1d30:	000d8593          	mv	a1,s11
    1d34:	000a8513          	mv	a0,s5
    1d38:	184010ef          	jal	ra,0x2ebc
    1d3c:	ff845783          	lhu	a5,-8(s0)
    1d40:	0017879b          	addiw	a5,a5,1
    1d44:	03079793          	slli	a5,a5,0x30
    1d48:	0307d793          	srli	a5,a5,0x30
    1d4c:	fef41c23          	sh	a5,-8(s0)
    1d50:	001c0c1b          	addiw	s8,s8,1
    1d54:	00092703          	lw	a4,0(s2)
    1d58:	00fd07bb          	addw	a5,s10,a5
    1d5c:	030c1c13          	slli	s8,s8,0x30
    1d60:	030c5c13          	srli	s8,s8,0x30
    1d64:	03079493          	slli	s1,a5,0x30
    1d68:	01079d1b          	slliw	s10,a5,0x10
    1d6c:	0304d493          	srli	s1,s1,0x30
    1d70:	410d5d1b          	sraiw	s10,s10,0x10
    1d74:	000c0d9b          	sext.w	s11,s8
    1d78:	10ec7463          	bgeu	s8,a4,0x1e80
    1d7c:	003d9413          	slli	s0,s11,0x3
    1d80:	41b404b3          	sub	s1,s0,s11
    1d84:	08010793          	addi	a5,sp,128
    1d88:	00449493          	slli	s1,s1,0x4
    1d8c:	009784b3          	add	s1,a5,s1
    1d90:	fc04a783          	lw	a5,-64(s1)
    1d94:	fe049c23          	sh	zero,-8(s1)
    1d98:	0017f793          	andi	a5,a5,1
    1d9c:	02078463          	beqz	a5,0x1dc4
    1da0:	ff24d603          	lhu	a2,-14(s1)
    1da4:	000cd683          	lhu	a3,0(s9)
    1da8:	00d60e63          	beq	a2,a3,0x1dc4
    1dac:	000d8593          	mv	a1,s11
    1db0:	000b8513          	mv	a0,s7
    1db4:	108010ef          	jal	ra,0x2ebc
    1db8:	ff84d783          	lhu	a5,-8(s1)
    1dbc:	0017879b          	addiw	a5,a5,1
    1dc0:	fef49c23          	sh	a5,-8(s1)
    1dc4:	41b404b3          	sub	s1,s0,s11
    1dc8:	08010793          	addi	a5,sp,128
    1dcc:	00449493          	slli	s1,s1,0x4
    1dd0:	009784b3          	add	s1,a5,s1
    1dd4:	fc04a703          	lw	a4,-64(s1)
    1dd8:	00277793          	andi	a5,a4,2
    1ddc:	02078663          	beqz	a5,0x1e08
    1de0:	ff44d603          	lhu	a2,-12(s1)
    1de4:	010cd683          	lhu	a3,16(s9)
    1de8:	02d60063          	beq	a2,a3,0x1e08
    1dec:	000d8593          	mv	a1,s11
    1df0:	000b0513          	mv	a0,s6
    1df4:	0c8010ef          	jal	ra,0x2ebc
    1df8:	ff84d783          	lhu	a5,-8(s1)
    1dfc:	fc04a703          	lw	a4,-64(s1)
    1e00:	0017879b          	addiw	a5,a5,1
    1e04:	fef49c23          	sh	a5,-8(s1)
    1e08:	41b40433          	sub	s0,s0,s11
    1e0c:	00441413          	slli	s0,s0,0x4
    1e10:	08010793          	addi	a5,sp,128
    1e14:	00477713          	andi	a4,a4,4
    1e18:	00878433          	add	s0,a5,s0
    1e1c:	f00714e3          	bnez	a4,0x1d24
    1e20:	ff845783          	lhu	a5,-8(s0)
    1e24:	f2dff06f          	j	0x1d50
    1e28:	01011603          	lh	a2,16(sp)
    1e2c:	02013583          	ld	a1,32(sp)
    1e30:	a48ff0ef          	jal	ra,0x1078
    1e34:	04012783          	lw	a5,64(sp)
    1e38:	04a13423          	sd	a0,72(sp)
    1e3c:	0027f713          	andi	a4,a5,2
    1e40:	d8070ee3          	beqz	a4,0x1bdc
    1e44:	01211603          	lh	a2,18(sp)
    1e48:	01011783          	lh	a5,16(sp)
    1e4c:	02813583          	ld	a1,40(sp)
    1e50:	03812503          	lw	a0,56(sp)
    1e54:	0106161b          	slliw	a2,a2,0x10
    1e58:	00f66633          	or	a2,a2,a5
    1e5c:	05010693          	addi	a3,sp,80
    1e60:	0006061b          	sext.w	a2,a2
    1e64:	a30fe0ef          	jal	ra,0x94
    1e68:	04012783          	lw	a5,64(sp)
    1e6c:	d71ff06f          	j	0x1bdc
    1e70:	00010437          	lui	s0,0x10
    1e74:	fff40493          	addi	s1,s0,-1 # 0xffff
    1e78:	00002917          	auipc	s2,0x2
    1e7c:	80c90913          	addi	s2,s2,-2036 # 0x3684
    1e80:	bddff0ef          	jal	ra,0x1a5c
    1e84:	03812583          	lw	a1,56(sp)
    1e88:	009504bb          	addw	s1,a0,s1
    1e8c:	00001517          	auipc	a0,0x1
    1e90:	26450513          	addi	a0,a0,612 # 0x30f0
    1e94:	028010ef          	jal	ra,0x2ebc
    1e98:	00098513          	mv	a0,s3
    1e9c:	a39ff0ef          	jal	ra,0x18d4
    1ea0:	0005059b          	sext.w	a1,a0
    1ea4:	00001517          	auipc	a0,0x1
    1ea8:	26450513          	addi	a0,a0,612 # 0x3108
    1eac:	010010ef          	jal	ra,0x2ebc
    1eb0:	00092783          	lw	a5,0(s2)
    1eb4:	03c12583          	lw	a1,60(sp)
    1eb8:	00001517          	auipc	a0,0x1
    1ebc:	26850513          	addi	a0,a0,616 # 0x3120
    1ec0:	0104949b          	slliw	s1,s1,0x10
    1ec4:	02f585bb          	mulw	a1,a1,a5
    1ec8:	4104d49b          	sraiw	s1,s1,0x10
    1ecc:	7f1000ef          	jal	ra,0x2ebc
    1ed0:	00001597          	auipc	a1,0x1
    1ed4:	26858593          	addi	a1,a1,616 # 0x3138
    1ed8:	00001517          	auipc	a0,0x1
    1edc:	27050513          	addi	a0,a0,624 # 0x3148
    1ee0:	7dd000ef          	jal	ra,0x2ebc
    1ee4:	000a0593          	mv	a1,s4
    1ee8:	00001517          	auipc	a0,0x1
    1eec:	27850513          	addi	a0,a0,632 # 0x3160
    1ef0:	7cd000ef          	jal	ra,0x2ebc
    1ef4:	04012783          	lw	a5,64(sp)
    1ef8:	0017f713          	andi	a4,a5,1
    1efc:	04070c63          	beqz	a4,0x1f54
    1f00:	00092703          	lw	a4,0(s2)
    1f04:	04070863          	beqz	a4,0x1f54
    1f08:	00000413          	li	s0,0
    1f0c:	00000593          	li	a1,0
    1f10:	00001a17          	auipc	s4,0x1
    1f14:	270a0a13          	addi	s4,s4,624 # 0x3180
    1f18:	00359793          	slli	a5,a1,0x3
    1f1c:	40b787b3          	sub	a5,a5,a1
    1f20:	08010713          	addi	a4,sp,128
    1f24:	00479793          	slli	a5,a5,0x4
    1f28:	00f707b3          	add	a5,a4,a5
    1f2c:	ff27d603          	lhu	a2,-14(a5)
    1f30:	000a0513          	mv	a0,s4
    1f34:	0014041b          	addiw	s0,s0,1
    1f38:	785000ef          	jal	ra,0x2ebc
    1f3c:	00092783          	lw	a5,0(s2)
    1f40:	03041413          	slli	s0,s0,0x30
    1f44:	03045413          	srli	s0,s0,0x30
    1f48:	0004059b          	sext.w	a1,s0
    1f4c:	fcf466e3          	bltu	s0,a5,0x1f18
    1f50:	04012783          	lw	a5,64(sp)
    1f54:	0027f713          	andi	a4,a5,2
    1f58:	04070c63          	beqz	a4,0x1fb0
    1f5c:	00092703          	lw	a4,0(s2)
    1f60:	22070263          	beqz	a4,0x2184
    1f64:	00000413          	li	s0,0
    1f68:	00000593          	li	a1,0
    1f6c:	00001a17          	auipc	s4,0x1
    1f70:	234a0a13          	addi	s4,s4,564 # 0x31a0
    1f74:	00359793          	slli	a5,a1,0x3
    1f78:	40b787b3          	sub	a5,a5,a1
    1f7c:	08010713          	addi	a4,sp,128
    1f80:	00479793          	slli	a5,a5,0x4
    1f84:	00f707b3          	add	a5,a4,a5
    1f88:	ff47d603          	lhu	a2,-12(a5)
    1f8c:	000a0513          	mv	a0,s4
    1f90:	0014041b          	addiw	s0,s0,1
    1f94:	729000ef          	jal	ra,0x2ebc
    1f98:	00092783          	lw	a5,0(s2)
    1f9c:	03041413          	slli	s0,s0,0x30
    1fa0:	03045413          	srli	s0,s0,0x30
    1fa4:	0004059b          	sext.w	a1,s0
    1fa8:	fcf466e3          	bltu	s0,a5,0x1f74
    1fac:	04012783          	lw	a5,64(sp)
    1fb0:	0047f793          	andi	a5,a5,4
    1fb4:	12079063          	bnez	a5,0x20d4
    1fb8:	00092783          	lw	a5,0(s2)
    1fbc:	00000413          	li	s0,0
    1fc0:	00000593          	li	a1,0
    1fc4:	00001a17          	auipc	s4,0x1
    1fc8:	234a0a13          	addi	s4,s4,564 # 0x31f8
    1fcc:	02078e63          	beqz	a5,0x2008
    1fd0:	00359793          	slli	a5,a1,0x3
    1fd4:	40b787b3          	sub	a5,a5,a1
    1fd8:	08010713          	addi	a4,sp,128
    1fdc:	00479793          	slli	a5,a5,0x4
    1fe0:	00f707b3          	add	a5,a4,a5
    1fe4:	ff07d603          	lhu	a2,-16(a5)
    1fe8:	000a0513          	mv	a0,s4
    1fec:	0014041b          	addiw	s0,s0,1
    1ff0:	6cd000ef          	jal	ra,0x2ebc
    1ff4:	00092783          	lw	a5,0(s2)
    1ff8:	03041413          	slli	s0,s0,0x30
    1ffc:	03045413          	srli	s0,s0,0x30
    2000:	0004059b          	sext.w	a1,s0
    2004:	fcf466e3          	bltu	s0,a5,0x1fd0
    2008:	00098593          	mv	a1,s3
    200c:	00001517          	auipc	a0,0x1
    2010:	1b450513          	addi	a0,a0,436 # 0x31c0
    2014:	6a9000ef          	jal	ra,0x2ebc
    2018:	12048063          	beqz	s1,0x2138
    201c:	10905663          	blez	s1,0x2128
    2020:	00001517          	auipc	a0,0x1
    2024:	28850513          	addi	a0,a0,648 # 0x32a8
    2028:	695000ef          	jal	ra,0x2ebc
    202c:	07a10513          	addi	a0,sp,122
    2030:	8b5ff0ef          	jal	ra,0x18e4
    2034:	0e813083          	ld	ra,232(sp)
    2038:	0e013403          	ld	s0,224(sp)
    203c:	0d813483          	ld	s1,216(sp)
    2040:	0d013903          	ld	s2,208(sp)
    2044:	0c813983          	ld	s3,200(sp)
    2048:	0c013a03          	ld	s4,192(sp)
    204c:	0b813a83          	ld	s5,184(sp)
    2050:	0b013b03          	ld	s6,176(sp)
    2054:	0a813b83          	ld	s7,168(sp)
    2058:	0a013c03          	ld	s8,160(sp)
    205c:	09813c83          	ld	s9,152(sp)
    2060:	09013d03          	ld	s10,144(sp)
    2064:	08813d83          	ld	s11,136(sp)
    2068:	00000513          	li	a0,0
    206c:	0f010113          	addi	sp,sp,240
    2070:	00008067          	ret
    2074:	000097b7          	lui	a5,0x9
    2078:	a0278793          	addi	a5,a5,-1534 # 0x8a02
    207c:	12fa0463          	beq	s4,a5,0x21a4
    2080:	0000f7b7          	lui	a5,0xf
    2084:	9f578793          	addi	a5,a5,-1547 # 0xe9f5
    2088:	defa14e3          	bne	s4,a5,0x1e70
    208c:	00001517          	auipc	a0,0x1
    2090:	f6c50513          	addi	a0,a0,-148 # 0x2ff8
    2094:	629000ef          	jal	ra,0x2ebc
    2098:	00300c93          	li	s9,3
    209c:	c41ff06f          	j	0x1cdc
    20a0:	02a58333          	mul	t1,a1,a0
    20a4:	00361693          	slli	a3,a2,0x3
    20a8:	01010f13          	addi	t5,sp,16
    20ac:	0015859b          	addiw	a1,a1,1
    20b0:	00df06b3          	add	a3,t5,a3
    20b4:	03059593          	slli	a1,a1,0x30
    20b8:	0305d593          	srli	a1,a1,0x30
    20bc:	006e0333          	add	t1,t3,t1
    20c0:	0066b823          	sd	t1,16(a3)
    20c4:	b09ff06f          	j	0x1bcc
    20c8:	00700793          	li	a5,7
    20cc:	04f12023          	sw	a5,64(sp)
    20d0:	a4dff06f          	j	0x1b1c
    20d4:	00092783          	lw	a5,0(s2)
    20d8:	00000413          	li	s0,0
    20dc:	00000593          	li	a1,0
    20e0:	00001a17          	auipc	s4,0x1
    20e4:	0f8a0a13          	addi	s4,s4,248 # 0x31d8
    20e8:	f20780e3          	beqz	a5,0x2008
    20ec:	00359793          	slli	a5,a1,0x3
    20f0:	40b787b3          	sub	a5,a5,a1
    20f4:	08010713          	addi	a4,sp,128
    20f8:	00479793          	slli	a5,a5,0x4
    20fc:	00f707b3          	add	a5,a4,a5
    2100:	ff67d603          	lhu	a2,-10(a5)
    2104:	000a0513          	mv	a0,s4
    2108:	0014041b          	addiw	s0,s0,1
    210c:	5b1000ef          	jal	ra,0x2ebc
    2110:	00092783          	lw	a5,0(s2)
    2114:	03041413          	slli	s0,s0,0x30
    2118:	03045413          	srli	s0,s0,0x30
    211c:	0004059b          	sext.w	a1,s0
    2120:	fcf466e3          	bltu	s0,a5,0x20ec
    2124:	e95ff06f          	j	0x1fb8
    2128:	00001517          	auipc	a0,0x1
    212c:	19850513          	addi	a0,a0,408 # 0x32c0
    2130:	58d000ef          	jal	ra,0x2ebc
    2134:	ef9ff06f          	j	0x202c
    2138:	00001517          	auipc	a0,0x1
    213c:	0e050513          	addi	a0,a0,224 # 0x3218
    2140:	57d000ef          	jal	ra,0x2ebc
    2144:	00098513          	mv	a0,s3
    2148:	f8cff0ef          	jal	ra,0x18d4
    214c:	002c97b7          	lui	a5,0x2c9
    2150:	3b87879b          	addiw	a5,a5,952
    2154:	02a7d7bb          	divuw	a5,a5,a0
    2158:	00a00593          	li	a1,10
    215c:	00001517          	auipc	a0,0x1
    2160:	0f450513          	addi	a0,a0,244 # 0x3250
    2164:	02b787bb          	mulw	a5,a5,a1
    2168:	3e800593          	li	a1,1000
    216c:	02b7d5bb          	divuw	a1,a5,a1
    2170:	54d000ef          	jal	ra,0x2ebc
    2174:	00001517          	auipc	a0,0x1
    2178:	0fc50513          	addi	a0,a0,252 # 0x3270
    217c:	541000ef          	jal	ra,0x2ebc
    2180:	eadff06f          	j	0x202c
    2184:	0047f793          	andi	a5,a5,4
    2188:	e80790e3          	bnez	a5,0x2008
    218c:	e2dff06f          	j	0x1fb8
    2190:	00001517          	auipc	a0,0x1
    2194:	e9850513          	addi	a0,a0,-360 # 0x3028
    2198:	525000ef          	jal	ra,0x2ebc
    219c:	00400c93          	li	s9,4
    21a0:	b3dff06f          	j	0x1cdc
    21a4:	00001517          	auipc	a0,0x1
    21a8:	dbc50513          	addi	a0,a0,-580 # 0x2f60
    21ac:	511000ef          	jal	ra,0x2ebc
    21b0:	00000c93          	li	s9,0
    21b4:	b29ff06f          	j	0x1cdc
    21b8:	00001517          	auipc	a0,0x1
    21bc:	dd850513          	addi	a0,a0,-552 # 0x2f90
    21c0:	4fd000ef          	jal	ra,0x2ebc
    21c4:	00100c93          	li	s9,1
    21c8:	b15ff06f          	j	0x1cdc
    21cc:	00000493          	li	s1,0
    21d0:	cb1ff06f          	j	0x1e80
    21d4:	ff010113          	addi	sp,sp,-16
    21d8:	00113423          	sd	ra,8(sp)
    21dc:	1e0000ef          	jal	ra,0x23bc
    21e0:	140000ef          	jal	ra,0x2320
    21e4:	1dc000ef          	jal	ra,0x23c0
    21e8:	00813083          	ld	ra,8(sp)
    21ec:	00000513          	li	a0,0
    21f0:	01010113          	addi	sp,sp,16
    21f4:	00008067          	ret
    21f8:	0000b7b7          	lui	a5,0xb
    21fc:	00050713          	mv	a4,a0
    2200:	c0478813          	addi	a6,a5,-1020 # 0xac04
    2204:	00058513          	mv	a0,a1
    2208:	00060593          	mv	a1,a2
    220c:	00068613          	mv	a2,a3
    2210:	03070863          	beq	a4,a6,0x2240
    2214:	00e86c63          	bltu	a6,a4,0x222c
    2218:	c0278693          	addi	a3,a5,-1022
    221c:	02d70463          	beq	a4,a3,0x2244
    2220:	c0378793          	addi	a5,a5,-1021
    2224:	00f71a63          	bne	a4,a5,0x2238
    2228:	0200006f          	j	0x2248
    222c:	c0778793          	addi	a5,a5,-1017
    2230:	00f71463          	bne	a4,a5,0x2238
    2234:	1900006f          	j	0x23c4
    2238:	00000513          	li	a0,0
    223c:	00008067          	ret
    2240:	13c0006f          	j	0x237c
    2244:	1000006f          	j	0x2344
    2248:	00100793          	li	a5,1
    224c:	08f50263          	beq	a0,a5,0x22d0
    2250:	00200793          	li	a5,2
    2254:	06f51a63          	bne	a0,a5,0x22c8
    2258:	fe200793          	li	a5,-30
    225c:	00f58023          	sb	a5,0(a1)
    2260:	00700793          	li	a5,7
    2264:	00058a23          	sb	zero,20(a1)
    2268:	00058aa3          	sb	zero,21(a1)
    226c:	00058b23          	sb	zero,22(a1)
    2270:	00058ba3          	sb	zero,23(a1)
    2274:	00058823          	sb	zero,16(a1)
    2278:	000588a3          	sb	zero,17(a1)
    227c:	00058923          	sb	zero,18(a1)
    2280:	000589a3          	sb	zero,19(a1)
    2284:	00058623          	sb	zero,12(a1)
    2288:	000586a3          	sb	zero,13(a1)
    228c:	00058723          	sb	zero,14(a1)
    2290:	000587a3          	sb	zero,15(a1)
    2294:	00058423          	sb	zero,8(a1)
    2298:	000584a3          	sb	zero,9(a1)
    229c:	00058523          	sb	zero,10(a1)
    22a0:	000585a3          	sb	zero,11(a1)
    22a4:	00058223          	sb	zero,4(a1)
    22a8:	000582a3          	sb	zero,5(a1)
    22ac:	00058323          	sb	zero,6(a1)
    22b0:	000583a3          	sb	zero,7(a1)
    22b4:	00f580a3          	sb	a5,1(a1)
    22b8:	00058123          	sb	zero,2(a1)
    22bc:	000581a3          	sb	zero,3(a1)
    22c0:	01800513          	li	a0,24
    22c4:	00008067          	ret
    22c8:	00000513          	li	a0,0
    22cc:	00008067          	ret
    22d0:	3800c7b7          	lui	a5,0x3800c
    22d4:	ff87b783          	ld	a5,-8(a5) # 0x3800bff8
    22d8:	3e800713          	li	a4,1000
    22dc:	00058023          	sb	zero,0(a1)
    22e0:	02e7d7b3          	divu	a5,a5,a4
    22e4:	00001717          	auipc	a4,0x1
    22e8:	3bc73703          	ld	a4,956(a4) # 0x36a0
    22ec:	000580a3          	sb	zero,1(a1)
    22f0:	00058123          	sb	zero,2(a1)
    22f4:	000581a3          	sb	zero,3(a1)
    22f8:	00800513          	li	a0,8
    22fc:	40e787bb          	subw	a5,a5,a4
    2300:	0087d61b          	srliw	a2,a5,0x8
    2304:	0107d69b          	srliw	a3,a5,0x10
    2308:	0187d71b          	srliw	a4,a5,0x18
    230c:	00f58223          	sb	a5,4(a1)
    2310:	00c582a3          	sb	a2,5(a1)
    2314:	00d58323          	sb	a3,6(a1)
    2318:	00e583a3          	sb	a4,7(a1)
    231c:	00008067          	ret
    2320:	3800c7b7          	lui	a5,0x3800c
    2324:	ff87b783          	ld	a5,-8(a5) # 0x3800bff8
    2328:	3e800713          	li	a4,1000
    232c:	02e7d7b3          	divu	a5,a5,a4
    2330:	02079793          	slli	a5,a5,0x20
    2334:	0207d793          	srli	a5,a5,0x20
    2338:	00001717          	auipc	a4,0x1
    233c:	36f73423          	sd	a5,872(a4) # 0x36a0
    2340:	00008067          	ret
    2344:	00100793          	li	a5,1
    2348:	00f50663          	beq	a0,a5,0x2354
    234c:	00000513          	li	a0,0
    2350:	00008067          	ret
    2354:	00058023          	sb	zero,0(a1)
    2358:	000580a3          	sb	zero,1(a1)
    235c:	00058123          	sb	zero,2(a1)
    2360:	000581a3          	sb	zero,3(a1)
    2364:	00058223          	sb	zero,4(a1)
    2368:	000582a3          	sb	zero,5(a1)
    236c:	00058323          	sb	zero,6(a1)
    2370:	000583a3          	sb	zero,7(a1)
    2374:	00800513          	li	a0,8
    2378:	00008067          	ret
    237c:	00100793          	li	a5,1
    2380:	00f50663          	beq	a0,a5,0x238c
    2384:	00000513          	li	a0,0
    2388:	00008067          	ret
    238c:	04000793          	li	a5,64
    2390:	00f58023          	sb	a5,0(a1)
    2394:	ff000793          	li	a5,-16
    2398:	00a580a3          	sb	a0,1(a1)
    239c:	00058123          	sb	zero,2(a1)
    23a0:	000581a3          	sb	zero,3(a1)
    23a4:	00f58223          	sb	a5,4(a1)
    23a8:	000582a3          	sb	zero,5(a1)
    23ac:	00058323          	sb	zero,6(a1)
    23b0:	000583a3          	sb	zero,7(a1)
    23b4:	00800513          	li	a0,8
    23b8:	00008067          	ret
    23bc:	00008067          	ret
    23c0:	00008067          	ret
    23c4:	00000513          	li	a0,0
    23c8:	00008067          	ret
    23cc:	0540006f          	j	0x2420
    23d0:	ff010113          	addi	sp,sp,-16
    23d4:	00113423          	sd	ra,8(sp)
    23d8:	00050593          	mv	a1,a0
    23dc:	00050513          	mv	a0,a0
    23e0:	0005006b          	0x5006b
    23e4:	00001517          	auipc	a0,0x1
    23e8:	10450513          	addi	a0,a0,260 # 0x34e8
    23ec:	2d1000ef          	jal	ra,0x2ebc
    23f0:	0000006f          	j	0x23f0
    23f4:	ff010113          	addi	sp,sp,-16
    23f8:	00113423          	sd	ra,8(sp)
    23fc:	014000ef          	jal	ra,0x2410
    2400:	00001517          	auipc	a0,0x1
    2404:	0fd50513          	addi	a0,a0,253 # 0x34fd
    2408:	e5cff0ef          	jal	ra,0x1a64
    240c:	fc5ff0ef          	jal	ra,0x23d0
    2410:	406007b7          	lui	a5,0x40600
    2414:	00300713          	li	a4,3
    2418:	00e78623          	sb	a4,12(a5) # 0x4060000c
    241c:	00008067          	ret
    2420:	ff010113          	addi	sp,sp,-16
    2424:	00813023          	sd	s0,0(sp)
    2428:	00113423          	sd	ra,8(sp)
    242c:	00a00793          	li	a5,10
    2430:	00050413          	mv	s0,a0
    2434:	02f50463          	beq	a0,a5,0x245c
    2438:	40600737          	lui	a4,0x40600
    243c:	00874783          	lbu	a5,8(a4) # 0x40600008
    2440:	0087f793          	andi	a5,a5,8
    2444:	fe079ce3          	bnez	a5,0x243c
    2448:	00870223          	sb	s0,4(a4)
    244c:	00813083          	ld	ra,8(sp)
    2450:	00013403          	ld	s0,0(sp)
    2454:	01010113          	addi	sp,sp,16
    2458:	00008067          	ret
    245c:	00d00513          	li	a0,13
    2460:	fc1ff0ef          	jal	ra,0x2420
    2464:	fd5ff06f          	j	0x2438
    2468:	fe010113          	addi	sp,sp,-32
    246c:	0000b537          	lui	a0,0xb
    2470:	00810613          	addi	a2,sp,8
    2474:	00800693          	li	a3,8
    2478:	00100593          	li	a1,1
    247c:	c0350513          	addi	a0,a0,-1021 # 0xac03
    2480:	00113c23          	sd	ra,24(sp)
    2484:	d75ff0ef          	jal	ra,0x21f8
    2488:	01813083          	ld	ra,24(sp)
    248c:	00c12503          	lw	a0,12(sp)
    2490:	02010113          	addi	sp,sp,32
    2494:	00008067          	ret
    2498:	08058c63          	beqz	a1,0x2530
    249c:	fd010113          	addi	sp,sp,-48
    24a0:	02813023          	sd	s0,32(sp)
    24a4:	00913c23          	sd	s1,24(sp)
    24a8:	01213823          	sd	s2,16(sp)
    24ac:	01313423          	sd	s3,8(sp)
    24b0:	02113423          	sd	ra,40(sp)
    24b4:	fff5849b          	addiw	s1,a1,-1
    24b8:	00060413          	mv	s0,a2
    24bc:	00050993          	mv	s3,a0
    24c0:	fff00913          	li	s2,-1
    24c4:	0280006f          	j	0x24ec
    24c8:	01843703          	ld	a4,24(s0)
    24cc:	00e78663          	beq	a5,a4,0x24d8
    24d0:	00d43823          	sd	a3,16(s0)
    24d4:	01378023          	sb	s3,0(a5)
    24d8:	02043783          	ld	a5,32(s0)
    24dc:	fff4849b          	addiw	s1,s1,-1
    24e0:	00178793          	addi	a5,a5,1
    24e4:	02f43023          	sd	a5,32(s0)
    24e8:	03248663          	beq	s1,s2,0x2514
    24ec:	01043783          	ld	a5,16(s0)
    24f0:	00178693          	addi	a3,a5,1
    24f4:	fc079ae3          	bnez	a5,0x24c8
    24f8:	00098513          	mv	a0,s3
    24fc:	ed1ff0ef          	jal	ra,0x23cc
    2500:	02043783          	ld	a5,32(s0)
    2504:	fff4849b          	addiw	s1,s1,-1
    2508:	00178793          	addi	a5,a5,1
    250c:	02f43023          	sd	a5,32(s0)
    2510:	fd249ee3          	bne	s1,s2,0x24ec
    2514:	02813083          	ld	ra,40(sp)
    2518:	02013403          	ld	s0,32(sp)
    251c:	01813483          	ld	s1,24(sp)
    2520:	01013903          	ld	s2,16(sp)
    2524:	00813983          	ld	s3,8(sp)
    2528:	03010113          	addi	sp,sp,48
    252c:	00008067          	ret
    2530:	00008067          	ret
    2534:	f1010113          	addi	sp,sp,-240
    2538:	0e813023          	sd	s0,224(sp)
    253c:	0d413023          	sd	s4,192(sp)
    2540:	0e113423          	sd	ra,232(sp)
    2544:	0c913c23          	sd	s1,216(sp)
    2548:	0d213823          	sd	s2,208(sp)
    254c:	0d313423          	sd	s3,200(sp)
    2550:	0b513c23          	sd	s5,184(sp)
    2554:	0b613823          	sd	s6,176(sp)
    2558:	0b713423          	sd	s7,168(sp)
    255c:	0b813023          	sd	s8,160(sp)
    2560:	09913c23          	sd	s9,152(sp)
    2564:	09a13823          	sd	s10,144(sp)
    2568:	09b13423          	sd	s11,136(sp)
    256c:	00013c23          	sd	zero,24(sp)
    2570:	02013023          	sd	zero,32(sp)
    2574:	02013c23          	sd	zero,56(sp)
    2578:	02a13423          	sd	a0,40(sp)
    257c:	00060413          	mv	s0,a2
    2580:	00068a13          	mv	s4,a3
    2584:	00050663          	beqz	a0,0x2590
    2588:	00b50533          	add	a0,a0,a1
    258c:	58058863          	beqz	a1,0x2b1c
    2590:	02a13823          	sd	a0,48(sp)
    2594:	00001917          	auipc	s2,0x1
    2598:	f6c90913          	addi	s2,s2,-148 # 0x3500
    259c:	03900a93          	li	s5,57
    25a0:	00001997          	auipc	s3,0x1
    25a4:	0d098993          	addi	s3,s3,208 # 0x3670
    25a8:	00044503          	lbu	a0,0(s0)
    25ac:	02050263          	beqz	a0,0x25d0
    25b0:	02500793          	li	a5,37
    25b4:	00140413          	addi	s0,s0,1
    25b8:	06f50263          	beq	a0,a5,0x261c
    25bc:	01810613          	addi	a2,sp,24
    25c0:	00100593          	li	a1,1
    25c4:	ed5ff0ef          	jal	ra,0x2498
    25c8:	00044503          	lbu	a0,0(s0)
    25cc:	fe0512e3          	bnez	a0,0x25b0
    25d0:	02813783          	ld	a5,40(sp)
    25d4:	00078463          	beqz	a5,0x25dc
    25d8:	00078023          	sb	zero,0(a5)
    25dc:	0e813083          	ld	ra,232(sp)
    25e0:	0e013403          	ld	s0,224(sp)
    25e4:	03812503          	lw	a0,56(sp)
    25e8:	0d813483          	ld	s1,216(sp)
    25ec:	0d013903          	ld	s2,208(sp)
    25f0:	0c813983          	ld	s3,200(sp)
    25f4:	0c013a03          	ld	s4,192(sp)
    25f8:	0b813a83          	ld	s5,184(sp)
    25fc:	0b013b03          	ld	s6,176(sp)
    2600:	0a813b83          	ld	s7,168(sp)
    2604:	0a013c03          	ld	s8,160(sp)
    2608:	09813c83          	ld	s9,152(sp)
    260c:	09013d03          	ld	s10,144(sp)
    2610:	08813d83          	ld	s11,136(sp)
    2614:	0f010113          	addi	sp,sp,240
    2618:	00008067          	ret
    261c:	02000793          	li	a5,32
    2620:	00f10e23          	sb	a5,28(sp)
    2624:	00012c23          	sw	zero,24(sp)
    2628:	02012023          	sw	zero,32(sp)
    262c:	00040793          	mv	a5,s0
    2630:	00000b93          	li	s7,0
    2634:	00000b13          	li	s6,0
    2638:	00000c13          	li	s8,0
    263c:	05800693          	li	a3,88
    2640:	06c00e13          	li	t3,108
    2644:	06800313          	li	t1,104
    2648:	02f00593          	li	a1,47
    264c:	02d00e93          	li	t4,45
    2650:	00900613          	li	a2,9
    2654:	02000813          	li	a6,32
    2658:	00100513          	li	a0,1
    265c:	02b00893          	li	a7,43
    2660:	02b00f13          	li	t5,43
    2664:	0007c703          	lbu	a4,0(a5)
    2668:	00140413          	addi	s0,s0,1
    266c:	fe07079b          	addiw	a5,a4,-32
    2670:	0ff7f793          	andi	a5,a5,255
    2674:	f2f6eae3          	bltu	a3,a5,0x25a8
    2678:	00279793          	slli	a5,a5,0x2
    267c:	012787b3          	add	a5,a5,s2
    2680:	0007a783          	lw	a5,0(a5)
    2684:	012787b3          	add	a5,a5,s2
    2688:	00078067          	jr	a5
    268c:	fd070c1b          	addiw	s8,a4,-48
    2690:	00044703          	lbu	a4,0(s0)
    2694:	00140413          	addi	s0,s0,1
    2698:	02e5f463          	bgeu	a1,a4,0x26c0
    269c:	fceae8e3          	bltu	s5,a4,0x266c
    26a0:	002c179b          	slliw	a5,s8,0x2
    26a4:	01878c3b          	addw	s8,a5,s8
    26a8:	001c1c1b          	slliw	s8,s8,0x1
    26ac:	00140413          	addi	s0,s0,1
    26b0:	00ec0c3b          	addw	s8,s8,a4
    26b4:	fff44703          	lbu	a4,-1(s0)
    26b8:	fd0c0c1b          	addiw	s8,s8,-48
    26bc:	fee5e0e3          	bltu	a1,a4,0x269c
    26c0:	fbd716e3          	bne	a4,t4,0x266c
    26c4:	41800c3b          	negw	s8,s8
    26c8:	00040793          	mv	a5,s0
    26cc:	f99ff06f          	j	0x2664
    26d0:	00200793          	li	a5,2
    26d4:	008a0513          	addi	a0,s4,8
    26d8:	74fb8063          	beq	s7,a5,0x2e18
    26dc:	4b77da63          	bge	a5,s7,0x2b90
    26e0:	00300793          	li	a5,3
    26e4:	00fb8663          	beq	s7,a5,0x26f0
    26e8:	00400793          	li	a5,4
    26ec:	72fb9a63          	bne	s7,a5,0x2e20
    26f0:	000a3483          	ld	s1,0(s4)
    26f4:	01810c93          	addi	s9,sp,24
    26f8:	00050a13          	mv	s4,a0
    26fc:	06010fa3          	sb	zero,127(sp)
    2700:	07f10713          	addi	a4,sp,127
    2704:	00f00613          	li	a2,15
    2708:	0080006f          	j	0x2710
    270c:	00068493          	mv	s1,a3
    2710:	00f4f793          	andi	a5,s1,15
    2714:	00f987b3          	add	a5,s3,a5
    2718:	0007c783          	lbu	a5,0(a5)
    271c:	fff70713          	addi	a4,a4,-1
    2720:	0044d693          	srli	a3,s1,0x4
    2724:	00f70023          	sb	a5,0(a4)
    2728:	fe9662e3          	bltu	a2,s1,0x270c
    272c:	08010793          	addi	a5,sp,128
    2730:	40e7873b          	subw	a4,a5,a4
    2734:	fff70d1b          	addiw	s10,a4,-1
    2738:	ffe7079b          	addiw	a5,a4,-2
    273c:	fffd4493          	not	s1,s10
    2740:	00f13023          	sd	a5,0(sp)
    2744:	08010793          	addi	a5,sp,128
    2748:	009784b3          	add	s1,a5,s1
    274c:	00000b93          	li	s7,0
    2750:	136d5a63          	bge	s10,s6,0x2884
    2754:	41ab083b          	subw	a6,s6,s10
    2758:	01780b3b          	addw	s6,a6,s7
    275c:	01ab073b          	addw	a4,s6,s10
    2760:	00000d93          	li	s11,0
    2764:	01875463          	bge	a4,s8,0x276c
    2768:	40ec0dbb          	subw	s11,s8,a4
    276c:	01813683          	ld	a3,24(sp)
    2770:	fff00713          	li	a4,-1
    2774:	01875713          	srli	a4,a4,0x18
    2778:	00e6f6b3          	and	a3,a3,a4
    277c:	00100713          	li	a4,1
    2780:	02571713          	slli	a4,a4,0x25
    2784:	3ae68063          	beq	a3,a4,0x2b24
    2788:	3a0b9c63          	bnez	s7,0x2b40
    278c:	01813683          	ld	a3,24(sp)
    2790:	fff00713          	li	a4,-1
    2794:	01875713          	srli	a4,a4,0x18
    2798:	00e6f6b3          	and	a3,a3,a4
    279c:	00300713          	li	a4,3
    27a0:	02471713          	slli	a4,a4,0x24
    27a4:	3ce68863          	beq	a3,a4,0x2b74
    27a8:	000c8613          	mv	a2,s9
    27ac:	00080593          	mv	a1,a6
    27b0:	03000513          	li	a0,48
    27b4:	ce5ff0ef          	jal	ra,0x2498
    27b8:	020d0463          	beqz	s10,0x27e0
    27bc:	00016b03          	lwu	s6,0(sp)
    27c0:	001b0b13          	addi	s6,s6,1
    27c4:	01648b33          	add	s6,s1,s6
    27c8:	00148493          	addi	s1,s1,1
    27cc:	fff4c503          	lbu	a0,-1(s1)
    27d0:	000c8613          	mv	a2,s9
    27d4:	00100593          	li	a1,1
    27d8:	cc1ff0ef          	jal	ra,0x2498
    27dc:	ff6496e3          	bne	s1,s6,0x27c8
    27e0:	01812783          	lw	a5,24(sp)
    27e4:	dc0782e3          	beqz	a5,0x25a8
    27e8:	01c14503          	lbu	a0,28(sp)
    27ec:	000c8613          	mv	a2,s9
    27f0:	000d8593          	mv	a1,s11
    27f4:	ca5ff0ef          	jal	ra,0x2498
    27f8:	db1ff06f          	j	0x25a8
    27fc:	01812783          	lw	a5,24(sp)
    2800:	ec0794e3          	bnez	a5,0x26c8
    2804:	03000793          	li	a5,48
    2808:	00f10e23          	sb	a5,28(sp)
    280c:	00040793          	mv	a5,s0
    2810:	e55ff06f          	j	0x2664
    2814:	00200793          	li	a5,2
    2818:	60fb8e63          	beq	s7,a5,0x2e34
    281c:	4377d663          	bge	a5,s7,0x2c48
    2820:	00300793          	li	a5,3
    2824:	64fb8063          	beq	s7,a5,0x2e64
    2828:	00400793          	li	a5,4
    282c:	00a00713          	li	a4,10
    2830:	60fb9a63          	bne	s7,a5,0x2e44
    2834:	00800693          	li	a3,8
    2838:	008a0513          	addi	a0,s4,8
    283c:	000a3783          	ld	a5,0(s4)
    2840:	44d70263          	beq	a4,a3,0x2c84
    2844:	00a00693          	li	a3,10
    2848:	00050a13          	mv	s4,a0
    284c:	66d70463          	beq	a4,a3,0x2eb4
    2850:	fff00793          	li	a5,-1
    2854:	00f13023          	sd	a5,0(sp)
    2858:	fff00493          	li	s1,-1
    285c:	00000b93          	li	s7,0
    2860:	00000d13          	li	s10,0
    2864:	08010793          	addi	a5,sp,128
    2868:	009784b3          	add	s1,a5,s1
    286c:	01810c93          	addi	s9,sp,24
    2870:	ee0b80e3          	beqz	s7,0x2750
    2874:	02012b83          	lw	s7,32(sp)
    2878:	01810c93          	addi	s9,sp,24
    287c:	01703bb3          	snez	s7,s7
    2880:	ed6d4ae3          	blt	s10,s6,0x2754
    2884:	000b8b13          	mv	s6,s7
    2888:	00000813          	li	a6,0
    288c:	ed1ff06f          	j	0x275c
    2890:	008a0c93          	addi	s9,s4,8
    2894:	000a3483          	ld	s1,0(s4)
    2898:	500b0a63          	beqz	s6,0x2dac
    289c:	fffb0b9b          	addiw	s7,s6,-1
    28a0:	000c8a13          	mv	s4,s9
    28a4:	00000d13          	li	s10,0
    28a8:	018b5463          	bge	s6,s8,0x28b0
    28ac:	416c0d3b          	subw	s10,s8,s6
    28b0:	01812783          	lw	a5,24(sp)
    28b4:	3a078663          	beqz	a5,0x2c60
    28b8:	01810c93          	addi	s9,sp,24
    28bc:	020b0a63          	beqz	s6,0x28f0
    28c0:	020b9b13          	slli	s6,s7,0x20
    28c4:	020b5b13          	srli	s6,s6,0x20
    28c8:	001b0b13          	addi	s6,s6,1
    28cc:	01648b33          	add	s6,s1,s6
    28d0:	00148493          	addi	s1,s1,1
    28d4:	fff4c503          	lbu	a0,-1(s1)
    28d8:	000c8613          	mv	a2,s9
    28dc:	00100593          	li	a1,1
    28e0:	bb9ff0ef          	jal	ra,0x2498
    28e4:	fe9b16e3          	bne	s6,s1,0x28d0
    28e8:	01812783          	lw	a5,24(sp)
    28ec:	ca078ee3          	beqz	a5,0x25a8
    28f0:	01c14503          	lbu	a0,28(sp)
    28f4:	000c8613          	mv	a2,s9
    28f8:	000d0593          	mv	a1,s10
    28fc:	b9dff0ef          	jal	ra,0x2498
    2900:	ca9ff06f          	j	0x25a8
    2904:	000a3483          	ld	s1,0(s4)
    2908:	008a0a13          	addi	s4,s4,8
    290c:	46049c63          	bnez	s1,0x2d84
    2910:	02800513          	li	a0,40
    2914:	00001497          	auipc	s1,0x1
    2918:	d5448493          	addi	s1,s1,-684 # 0x3668
    291c:	01810c93          	addi	s9,sp,24
    2920:	00001b17          	auipc	s6,0x1
    2924:	d4db0b13          	addi	s6,s6,-691 # 0x366d
    2928:	0080006f          	j	0x2930
    292c:	0004c503          	lbu	a0,0(s1)
    2930:	00148493          	addi	s1,s1,1
    2934:	000c8613          	mv	a2,s9
    2938:	00100593          	li	a1,1
    293c:	b5dff0ef          	jal	ra,0x2498
    2940:	ff6496e3          	bne	s1,s6,0x292c
    2944:	c65ff06f          	j	0x25a8
    2948:	00200793          	li	a5,2
    294c:	4cfb8e63          	beq	s7,a5,0x2e28
    2950:	2d77dc63          	bge	a5,s7,0x2c28
    2954:	00300793          	li	a5,3
    2958:	32fb8263          	beq	s7,a5,0x2c7c
    295c:	00400793          	li	a5,4
    2960:	00800713          	li	a4,8
    2964:	ecfb88e3          	beq	s7,a5,0x2834
    2968:	000a2783          	lw	a5,0(s4)
    296c:	008a0a13          	addi	s4,s4,8
    2970:	0077f713          	andi	a4,a5,7
    2974:	00e98733          	add	a4,s3,a4
    2978:	00074603          	lbu	a2,0(a4)
    297c:	06010fa3          	sb	zero,127(sp)
    2980:	07f10713          	addi	a4,sp,127
    2984:	00700593          	li	a1,7
    2988:	0140006f          	j	0x299c
    298c:	0076f793          	andi	a5,a3,7
    2990:	00f987b3          	add	a5,s3,a5
    2994:	0007c603          	lbu	a2,0(a5)
    2998:	0006879b          	sext.w	a5,a3
    299c:	fff70713          	addi	a4,a4,-1
    29a0:	00c70023          	sb	a2,0(a4)
    29a4:	0037d69b          	srliw	a3,a5,0x3
    29a8:	fef5e2e3          	bltu	a1,a5,0x298c
    29ac:	08010793          	addi	a5,sp,128
    29b0:	40e7873b          	subw	a4,a5,a4
    29b4:	fff70d1b          	addiw	s10,a4,-1
    29b8:	ffe7079b          	addiw	a5,a4,-2
    29bc:	fffd4493          	not	s1,s10
    29c0:	00f13023          	sd	a5,0(sp)
    29c4:	01810c93          	addi	s9,sp,24
    29c8:	d7dff06f          	j	0x2744
    29cc:	00044703          	lbu	a4,0(s0)
    29d0:	00140413          	addi	s0,s0,1
    29d4:	4dc70463          	beq	a4,t3,0x2e9c
    29d8:	00300b93          	li	s7,3
    29dc:	c91ff06f          	j	0x266c
    29e0:	02a12023          	sw	a0,32(sp)
    29e4:	03110223          	sb	a7,36(sp)
    29e8:	00040793          	mv	a5,s0
    29ec:	c79ff06f          	j	0x2664
    29f0:	01810613          	addi	a2,sp,24
    29f4:	00100593          	li	a1,1
    29f8:	02500513          	li	a0,37
    29fc:	a9dff0ef          	jal	ra,0x2498
    2a00:	ba9ff06f          	j	0x25a8
    2a04:	02012783          	lw	a5,32(sp)
    2a08:	2c079863          	bnez	a5,0x2cd8
    2a0c:	02a12023          	sw	a0,32(sp)
    2a10:	03010223          	sb	a6,36(sp)
    2a14:	00040793          	mv	a5,s0
    2a18:	c4dff06f          	j	0x2664
    2a1c:	00044703          	lbu	a4,0(s0)
    2a20:	00140413          	addi	s0,s0,1
    2a24:	fd07079b          	addiw	a5,a4,-48
    2a28:	0ff7f793          	andi	a5,a5,255
    2a2c:	02f66663          	bltu	a2,a5,0x2a58
    2a30:	002b179b          	slliw	a5,s6,0x2
    2a34:	01678b3b          	addw	s6,a5,s6
    2a38:	001b1b1b          	slliw	s6,s6,0x1
    2a3c:	00140413          	addi	s0,s0,1
    2a40:	00eb0b3b          	addw	s6,s6,a4
    2a44:	fff44703          	lbu	a4,-1(s0)
    2a48:	fd0b0b1b          	addiw	s6,s6,-48
    2a4c:	fd07079b          	addiw	a5,a4,-48
    2a50:	0ff7f793          	andi	a5,a5,255
    2a54:	fcf67ee3          	bgeu	a2,a5,0x2a30
    2a58:	01010e23          	sb	a6,28(sp)
    2a5c:	c11ff06f          	j	0x266c
    2a60:	00200793          	li	a5,2
    2a64:	38fb8a63          	beq	s7,a5,0x2df8
    2a68:	1977d463          	bge	a5,s7,0x2bf0
    2a6c:	00300793          	li	a5,3
    2a70:	00fb8663          	beq	s7,a5,0x2a7c
    2a74:	00400793          	li	a5,4
    2a78:	34fb9263          	bne	s7,a5,0x2dbc
    2a7c:	000a3783          	ld	a5,0(s4)
    2a80:	008a0a13          	addi	s4,s4,8
    2a84:	2607c463          	bltz	a5,0x2cec
    2a88:	00100b93          	li	s7,1
    2a8c:	06010fa3          	sb	zero,127(sp)
    2a90:	07f10693          	addi	a3,sp,127
    2a94:	00a00613          	li	a2,10
    2a98:	00900513          	li	a0,9
    2a9c:	0080006f          	j	0x2aa4
    2aa0:	00058793          	mv	a5,a1
    2aa4:	02c7f733          	remu	a4,a5,a2
    2aa8:	fff68693          	addi	a3,a3,-1
    2aac:	00e98733          	add	a4,s3,a4
    2ab0:	00074703          	lbu	a4,0(a4)
    2ab4:	02c7d5b3          	divu	a1,a5,a2
    2ab8:	00e68023          	sb	a4,0(a3)
    2abc:	fef562e3          	bltu	a0,a5,0x2aa0
    2ac0:	08010793          	addi	a5,sp,128
    2ac4:	40d786bb          	subw	a3,a5,a3
    2ac8:	fff68d1b          	addiw	s10,a3,-1
    2acc:	ffe6879b          	addiw	a5,a3,-2
    2ad0:	fffd4493          	not	s1,s10
    2ad4:	00f13023          	sd	a5,0(sp)
    2ad8:	d8dff06f          	j	0x2864
    2adc:	00a12c23          	sw	a0,24(sp)
    2ae0:	01010e23          	sb	a6,28(sp)
    2ae4:	00040793          	mv	a5,s0
    2ae8:	b7dff06f          	j	0x2664
    2aec:	00044703          	lbu	a4,0(s0)
    2af0:	00140413          	addi	s0,s0,1
    2af4:	3a670a63          	beq	a4,t1,0x2ea8
    2af8:	00200b93          	li	s7,2
    2afc:	b71ff06f          	j	0x266c
    2b00:	000a2783          	lw	a5,0(s4)
    2b04:	00000b93          	li	s7,0
    2b08:	008a0a13          	addi	s4,s4,8
    2b0c:	04f10023          	sb	a5,64(sp)
    2b10:	04010493          	addi	s1,sp,64
    2b14:	00100b13          	li	s6,1
    2b18:	d8dff06f          	j	0x28a4
    2b1c:	00000513          	li	a0,0
    2b20:	a71ff06f          	j	0x2590
    2b24:	01c14503          	lbu	a0,28(sp)
    2b28:	000c8613          	mv	a2,s9
    2b2c:	000d8593          	mv	a1,s11
    2b30:	01013423          	sd	a6,8(sp)
    2b34:	965ff0ef          	jal	ra,0x2498
    2b38:	00813803          	ld	a6,8(sp)
    2b3c:	c40b88e3          	beqz	s7,0x278c
    2b40:	02414503          	lbu	a0,36(sp)
    2b44:	000c8613          	mv	a2,s9
    2b48:	00100593          	li	a1,1
    2b4c:	01013423          	sd	a6,8(sp)
    2b50:	949ff0ef          	jal	ra,0x2498
    2b54:	01813683          	ld	a3,24(sp)
    2b58:	fff00713          	li	a4,-1
    2b5c:	01875713          	srli	a4,a4,0x18
    2b60:	00e6f6b3          	and	a3,a3,a4
    2b64:	00300713          	li	a4,3
    2b68:	02471713          	slli	a4,a4,0x24
    2b6c:	00813803          	ld	a6,8(sp)
    2b70:	c2e69ce3          	bne	a3,a4,0x27a8
    2b74:	01c14503          	lbu	a0,28(sp)
    2b78:	000c8613          	mv	a2,s9
    2b7c:	000d8593          	mv	a1,s11
    2b80:	01013423          	sd	a6,8(sp)
    2b84:	915ff0ef          	jal	ra,0x2498
    2b88:	00813803          	ld	a6,8(sp)
    2b8c:	c1dff06f          	j	0x27a8
    2b90:	00100793          	li	a5,1
    2b94:	28fb9663          	bne	s7,a5,0x2e20
    2b98:	000a4703          	lbu	a4,0(s4)
    2b9c:	06010fa3          	sb	zero,127(sp)
    2ba0:	07f10693          	addi	a3,sp,127
    2ba4:	00f00593          	li	a1,15
    2ba8:	0080006f          	j	0x2bb0
    2bac:	00060713          	mv	a4,a2
    2bb0:	00f77793          	andi	a5,a4,15
    2bb4:	00f987b3          	add	a5,s3,a5
    2bb8:	0007c783          	lbu	a5,0(a5)
    2bbc:	fff68693          	addi	a3,a3,-1
    2bc0:	0047561b          	srliw	a2,a4,0x4
    2bc4:	00f68023          	sb	a5,0(a3)
    2bc8:	fee5e2e3          	bltu	a1,a4,0x2bac
    2bcc:	08010793          	addi	a5,sp,128
    2bd0:	40d786bb          	subw	a3,a5,a3
    2bd4:	fff68d1b          	addiw	s10,a3,-1
    2bd8:	ffe6879b          	addiw	a5,a3,-2
    2bdc:	fffd4493          	not	s1,s10
    2be0:	00f13023          	sd	a5,0(sp)
    2be4:	00050a13          	mv	s4,a0
    2be8:	01810c93          	addi	s9,sp,24
    2bec:	b59ff06f          	j	0x2744
    2bf0:	00100793          	li	a5,1
    2bf4:	1cfb9463          	bne	s7,a5,0x2dbc
    2bf8:	000a2703          	lw	a4,0(s4)
    2bfc:	008a0793          	addi	a5,s4,8
    2c00:	0187169b          	slliw	a3,a4,0x18
    2c04:	4186d69b          	sraiw	a3,a3,0x18
    2c08:	0e06ce63          	bltz	a3,0x2d04
    2c0c:	0ff77713          	andi	a4,a4,255
    2c10:	00a00693          	li	a3,10
    2c14:	02d776bb          	remuw	a3,a4,a3
    2c18:	00078a13          	mv	s4,a5
    2c1c:	00d987b3          	add	a5,s3,a3
    2c20:	0007c783          	lbu	a5,0(a5)
    2c24:	1100006f          	j	0x2d34
    2c28:	00100793          	li	a5,1
    2c2c:	d2fb9ee3          	bne	s7,a5,0x2968
    2c30:	000a4783          	lbu	a5,0(s4)
    2c34:	008a0a13          	addi	s4,s4,8
    2c38:	0077f713          	andi	a4,a5,7
    2c3c:	00e98733          	add	a4,s3,a4
    2c40:	00074603          	lbu	a2,0(a4)
    2c44:	d39ff06f          	j	0x297c
    2c48:	00100793          	li	a5,1
    2c4c:	1efb9c63          	bne	s7,a5,0x2e44
    2c50:	008a0793          	addi	a5,s4,8
    2c54:	000a4703          	lbu	a4,0(s4)
    2c58:	00000b93          	li	s7,0
    2c5c:	fb5ff06f          	j	0x2c10
    2c60:	01c14503          	lbu	a0,28(sp)
    2c64:	01810c93          	addi	s9,sp,24
    2c68:	000c8613          	mv	a2,s9
    2c6c:	000d0593          	mv	a1,s10
    2c70:	829ff0ef          	jal	ra,0x2498
    2c74:	c40b16e3          	bnez	s6,0x28c0
    2c78:	c71ff06f          	j	0x28e8
    2c7c:	000a3783          	ld	a5,0(s4)
    2c80:	008a0513          	addi	a0,s4,8
    2c84:	06010fa3          	sb	zero,127(sp)
    2c88:	07f10693          	addi	a3,sp,127
    2c8c:	00700593          	li	a1,7
    2c90:	0080006f          	j	0x2c98
    2c94:	00060793          	mv	a5,a2
    2c98:	0077f713          	andi	a4,a5,7
    2c9c:	00e98733          	add	a4,s3,a4
    2ca0:	00074703          	lbu	a4,0(a4)
    2ca4:	fff68693          	addi	a3,a3,-1
    2ca8:	0037d613          	srli	a2,a5,0x3
    2cac:	00e68023          	sb	a4,0(a3)
    2cb0:	fef5e2e3          	bltu	a1,a5,0x2c94
    2cb4:	08010793          	addi	a5,sp,128
    2cb8:	40d786bb          	subw	a3,a5,a3
    2cbc:	fff68d1b          	addiw	s10,a3,-1
    2cc0:	ffe6879b          	addiw	a5,a3,-2
    2cc4:	fffd4493          	not	s1,s10
    2cc8:	00f13023          	sd	a5,0(sp)
    2ccc:	00050a13          	mv	s4,a0
    2cd0:	01810c93          	addi	s9,sp,24
    2cd4:	a71ff06f          	j	0x2744
    2cd8:	02414783          	lbu	a5,36(sp)
    2cdc:	9fe786e3          	beq	a5,t5,0x26c8
    2ce0:	02a12023          	sw	a0,32(sp)
    2ce4:	03010223          	sb	a6,36(sp)
    2ce8:	d2dff06f          	j	0x2a14
    2cec:	02d00713          	li	a4,45
    2cf0:	02e10223          	sb	a4,36(sp)
    2cf4:	00100713          	li	a4,1
    2cf8:	02e12023          	sw	a4,32(sp)
    2cfc:	40f007b3          	neg	a5,a5
    2d00:	d89ff06f          	j	0x2a88
    2d04:	fff74713          	not	a4,a4
    2d08:	0ff77713          	andi	a4,a4,255
    2d0c:	02d00693          	li	a3,45
    2d10:	02d10223          	sb	a3,36(sp)
    2d14:	03712023          	sw	s7,32(sp)
    2d18:	00170713          	addi	a4,a4,1
    2d1c:	00078a13          	mv	s4,a5
    2d20:	00a00793          	li	a5,10
    2d24:	02f777bb          	remuw	a5,a4,a5
    2d28:	00100b93          	li	s7,1
    2d2c:	00f987b3          	add	a5,s3,a5
    2d30:	0007c783          	lbu	a5,0(a5)
    2d34:	06010fa3          	sb	zero,127(sp)
    2d38:	07f10693          	addi	a3,sp,127
    2d3c:	00a00613          	li	a2,10
    2d40:	00900593          	li	a1,9
    2d44:	0140006f          	j	0x2d58
    2d48:	0007871b          	sext.w	a4,a5
    2d4c:	02c7f7bb          	remuw	a5,a5,a2
    2d50:	00f987b3          	add	a5,s3,a5
    2d54:	0007c783          	lbu	a5,0(a5)
    2d58:	fff68693          	addi	a3,a3,-1
    2d5c:	00f68023          	sb	a5,0(a3)
    2d60:	02c757bb          	divuw	a5,a4,a2
    2d64:	fee5e2e3          	bltu	a1,a4,0x2d48
    2d68:	08010793          	addi	a5,sp,128
    2d6c:	40d786bb          	subw	a3,a5,a3
    2d70:	fff68d1b          	addiw	s10,a3,-1
    2d74:	ffe6879b          	addiw	a5,a3,-2
    2d78:	fffd4493          	not	s1,s10
    2d7c:	00f13023          	sd	a5,0(sp)
    2d80:	ae5ff06f          	j	0x2864
    2d84:	01810c93          	addi	s9,sp,24
    2d88:	000c8613          	mv	a2,s9
    2d8c:	00100593          	li	a1,1
    2d90:	03000513          	li	a0,48
    2d94:	f04ff0ef          	jal	ra,0x2498
    2d98:	000c8613          	mv	a2,s9
    2d9c:	00100593          	li	a1,1
    2da0:	07800513          	li	a0,120
    2da4:	ef4ff0ef          	jal	ra,0x2498
    2da8:	955ff06f          	j	0x26fc
    2dac:	00048513          	mv	a0,s1
    2db0:	158000ef          	jal	ra,0x2f08
    2db4:	00050b1b          	sext.w	s6,a0
    2db8:	ae5ff06f          	j	0x289c
    2dbc:	000a2783          	lw	a5,0(s4)
    2dc0:	008a0a13          	addi	s4,s4,8
    2dc4:	0007871b          	sext.w	a4,a5
    2dc8:	f407dce3          	bgez	a5,0x2d20
    2dcc:	40e0073b          	negw	a4,a4
    2dd0:	00a00793          	li	a5,10
    2dd4:	02f777bb          	remuw	a5,a4,a5
    2dd8:	02d00693          	li	a3,45
    2ddc:	02d10223          	sb	a3,36(sp)
    2de0:	00100693          	li	a3,1
    2de4:	02d12023          	sw	a3,32(sp)
    2de8:	00100b93          	li	s7,1
    2dec:	00f987b3          	add	a5,s3,a5
    2df0:	0007c783          	lbu	a5,0(a5)
    2df4:	f41ff06f          	j	0x2d34
    2df8:	000a2703          	lw	a4,0(s4)
    2dfc:	008a0793          	addi	a5,s4,8
    2e00:	03071693          	slli	a3,a4,0x30
    2e04:	0606c863          	bltz	a3,0x2e74
    2e08:	03071713          	slli	a4,a4,0x30
    2e0c:	03075713          	srli	a4,a4,0x30
    2e10:	00100b93          	li	s7,1
    2e14:	dfdff06f          	j	0x2c10
    2e18:	000a5703          	lhu	a4,0(s4)
    2e1c:	d81ff06f          	j	0x2b9c
    2e20:	000a2703          	lw	a4,0(s4)
    2e24:	d79ff06f          	j	0x2b9c
    2e28:	000a5783          	lhu	a5,0(s4)
    2e2c:	008a0a13          	addi	s4,s4,8
    2e30:	e09ff06f          	j	0x2c38
    2e34:	008a0793          	addi	a5,s4,8
    2e38:	000a5703          	lhu	a4,0(s4)
    2e3c:	00000b93          	li	s7,0
    2e40:	dd1ff06f          	j	0x2c10
    2e44:	000a2703          	lw	a4,0(s4)
    2e48:	00a00793          	li	a5,10
    2e4c:	008a0a13          	addi	s4,s4,8
    2e50:	02f777bb          	remuw	a5,a4,a5
    2e54:	00000b93          	li	s7,0
    2e58:	00f987b3          	add	a5,s3,a5
    2e5c:	0007c783          	lbu	a5,0(a5)
    2e60:	ed5ff06f          	j	0x2d34
    2e64:	000a3783          	ld	a5,0(s4)
    2e68:	00000b93          	li	s7,0
    2e6c:	008a0a13          	addi	s4,s4,8
    2e70:	c1dff06f          	j	0x2a8c
    2e74:	fff74713          	not	a4,a4
    2e78:	02d00693          	li	a3,45
    2e7c:	0107171b          	slliw	a4,a4,0x10
    2e80:	0107571b          	srliw	a4,a4,0x10
    2e84:	02d10223          	sb	a3,36(sp)
    2e88:	00100693          	li	a3,1
    2e8c:	02d12023          	sw	a3,32(sp)
    2e90:	00170713          	addi	a4,a4,1
    2e94:	00078a13          	mv	s4,a5
    2e98:	e89ff06f          	j	0x2d20
    2e9c:	00400b93          	li	s7,4
    2ea0:	00040793          	mv	a5,s0
    2ea4:	fc0ff06f          	j	0x2664
    2ea8:	00100b93          	li	s7,1
    2eac:	00040793          	mv	a5,s0
    2eb0:	fb4ff06f          	j	0x2664
    2eb4:	00000b93          	li	s7,0
    2eb8:	bd5ff06f          	j	0x2a8c
    2ebc:	fa010113          	addi	sp,sp,-96
    2ec0:	02810313          	addi	t1,sp,40
    2ec4:	02b13423          	sd	a1,40(sp)
    2ec8:	02c13823          	sd	a2,48(sp)
    2ecc:	02d13c23          	sd	a3,56(sp)
    2ed0:	00050613          	mv	a2,a0
    2ed4:	00030693          	mv	a3,t1
    2ed8:	00000593          	li	a1,0
    2edc:	00000513          	li	a0,0
    2ee0:	00113c23          	sd	ra,24(sp)
    2ee4:	04e13023          	sd	a4,64(sp)
    2ee8:	04f13423          	sd	a5,72(sp)
    2eec:	05013823          	sd	a6,80(sp)
    2ef0:	05113c23          	sd	a7,88(sp)
    2ef4:	00613423          	sd	t1,8(sp)
    2ef8:	e3cff0ef          	jal	ra,0x2534
    2efc:	01813083          	ld	ra,24(sp)
    2f00:	06010113          	addi	sp,sp,96
    2f04:	00008067          	ret
    2f08:	00054783          	lbu	a5,0(a0)
    2f0c:	02078063          	beqz	a5,0x2f2c
    2f10:	00000793          	li	a5,0
    2f14:	00178793          	addi	a5,a5,1
    2f18:	00f50733          	add	a4,a0,a5
    2f1c:	00074703          	lbu	a4,0(a4)
    2f20:	fe071ae3          	bnez	a4,0x2f14
    2f24:	00078513          	mv	a0,a5
    2f28:	00008067          	ret
    2f2c:	00000793          	li	a5,0
    2f30:	00078513          	mv	a0,a5
    2f34:	00008067          	ret
    2f38:	7552                	ld	a0,304(sp)
    2f3a:	6e6e                	ld	t3,216(sp)
    2f3c:	6e69                	lui	t3,0x1a
    2f3e:	6f432067          	0x6f432067
    2f42:	6572                	ld	a0,280(sp)
    2f44:	614d                	addi	sp,sp,176
    2f46:	6b72                	ld	s6,280(sp)
    2f48:	6620                	ld	s0,72(a2)
    2f4a:	2520726f          	jal	tp,0xa19c
    2f4e:	2064                	fld	fs1,192(s0)
    2f50:	7469                	lui	s0,0xffffa
    2f52:	7265                	lui	tp,0xffff9
    2f54:	7461                	lui	s0,0xffff8
    2f56:	6f69                	lui	t5,0x1a
    2f58:	736e                	ld	t1,248(sp)
    2f5a:	000a                	c.slli	zero,0x2
    2f5c:	0000                	unimp
    2f5e:	0000                	unimp
    2f60:	6b36                	ld	s6,328(sp)
    2f62:	7020                	ld	s0,96(s0)
    2f64:	7265                	lui	tp,0xffff9
    2f66:	6f66                	ld	t5,88(sp)
    2f68:	6d72                	ld	s10,280(sp)
    2f6a:	6e61                	lui	t3,0x18
    2f6c:	72206563          	bltu	zero,sp,0x3696
    2f70:	6e75                	lui	t3,0x1d
    2f72:	7020                	ld	s0,96(s0)
    2f74:	7261                	lui	tp,0xffff8
    2f76:	6d61                	lui	s10,0x18
    2f78:	7465                	lui	s0,0xffff9
    2f7a:	7265                	lui	tp,0xffff9
    2f7c:	6f662073          	csrs	0x6f6,a2
    2f80:	2072                	fld	ft0,280(sp)
    2f82:	65726f63          	bltu	tp,s7,0x35e0
    2f86:	616d                	addi	sp,sp,240
    2f88:	6b72                	ld	s6,280(sp)
    2f8a:	0a2e                	slli	s4,s4,0xb
    2f8c:	0000                	unimp
    2f8e:	0000                	unimp
    2f90:	6b36                	ld	s6,328(sp)
    2f92:	7620                	ld	s0,104(a2)
    2f94:	6c61                	lui	s8,0x18
    2f96:	6469                	lui	s0,0x1a
    2f98:	7461                	lui	s0,0xffff8
    2f9a:	6f69                	lui	t5,0x1a
    2f9c:	206e                	fld	ft0,216(sp)
    2f9e:	7572                	ld	a0,312(sp)
    2fa0:	206e                	fld	ft0,216(sp)
    2fa2:	6170                	ld	a2,192(a0)
    2fa4:	6172                	ld	sp,280(sp)
    2fa6:	656d                	lui	a0,0x1b
    2fa8:	6574                	ld	a3,200(a0)
    2faa:	7372                	ld	t1,312(sp)
    2fac:	6620                	ld	s0,72(a2)
    2fae:	6320726f          	jal	tp,0xa5e0
    2fb2:	6d65726f          	jal	tp,0x5a688
    2fb6:	7261                	lui	tp,0xffff8
    2fb8:	000a2e6b          	0xa2e6b
    2fbc:	0000                	unimp
    2fbe:	0000                	unimp
    2fc0:	7250                	ld	a2,160(a2)
    2fc2:	6c69666f          	jal	a2,0x99688
    2fc6:	2065                	0x2065
    2fc8:	656e6567          	0x656e6567
    2fcc:	6172                	ld	sp,280(sp)
    2fce:	6974                	ld	a3,208(a0)
    2fd0:	72206e6f          	jal	t3,0x96f2
    2fd4:	6e75                	lui	t3,0x1d
    2fd6:	7020                	ld	s0,96(s0)
    2fd8:	7261                	lui	tp,0xffff8
    2fda:	6d61                	lui	s10,0x18
    2fdc:	7465                	lui	s0,0xffff9
    2fde:	7265                	lui	tp,0xffff9
    2fe0:	6f662073          	csrs	0x6f6,a2
    2fe4:	2072                	fld	ft0,280(sp)
    2fe6:	65726f63          	bltu	tp,s7,0x3644
    2fea:	616d                	addi	sp,sp,240
    2fec:	6b72                	ld	s6,280(sp)
    2fee:	0a2e                	slli	s4,s4,0xb
	...
    2ff8:	4b32                	lw	s6,12(sp)
    2ffa:	7020                	ld	s0,96(s0)
    2ffc:	7265                	lui	tp,0xffff9
    2ffe:	6f66                	ld	t5,88(sp)
    3000:	6d72                	ld	s10,280(sp)
    3002:	6e61                	lui	t3,0x18
    3004:	72206563          	bltu	zero,sp,0x372e
    3008:	6e75                	lui	t3,0x1d
    300a:	7020                	ld	s0,96(s0)
    300c:	7261                	lui	tp,0xffff8
    300e:	6d61                	lui	s10,0x18
    3010:	7465                	lui	s0,0xffff9
    3012:	7265                	lui	tp,0xffff9
    3014:	6f662073          	csrs	0x6f6,a2
    3018:	2072                	fld	ft0,280(sp)
    301a:	65726f63          	bltu	tp,s7,0x3678
    301e:	616d                	addi	sp,sp,240
    3020:	6b72                	ld	s6,280(sp)
    3022:	0a2e                	slli	s4,s4,0xb
    3024:	0000                	unimp
    3026:	0000                	unimp
    3028:	4b32                	lw	s6,12(sp)
    302a:	7620                	ld	s0,104(a2)
    302c:	6c61                	lui	s8,0x18
    302e:	6469                	lui	s0,0x1a
    3030:	7461                	lui	s0,0xffff8
    3032:	6f69                	lui	t5,0x1a
    3034:	206e                	fld	ft0,216(sp)
    3036:	7572                	ld	a0,312(sp)
    3038:	206e                	fld	ft0,216(sp)
    303a:	6170                	ld	a2,192(a0)
    303c:	6172                	ld	sp,280(sp)
    303e:	656d                	lui	a0,0x1b
    3040:	6574                	ld	a3,200(a0)
    3042:	7372                	ld	t1,312(sp)
    3044:	6620                	ld	s0,72(a2)
    3046:	6320726f          	jal	tp,0xa678
    304a:	6d65726f          	jal	tp,0x5a720
    304e:	7261                	lui	tp,0xffff8
    3050:	000a2e6b          	0xa2e6b
    3054:	0000                	unimp
    3056:	0000                	unimp
    3058:	5d75255b          	0x5d75255b
    305c:	5245                	li	tp,-15
    305e:	4f52                	lw	t5,20(sp)
    3060:	2152                	fld	ft2,272(sp)
    3062:	6c20                	ld	s0,88(s0)
    3064:	7369                	lui	t1,0xffffa
    3066:	2074                	fld	fa3,192(s0)
    3068:	20637263          	bgeu	t1,t1,0x326c
    306c:	7830                	ld	a2,112(s0)
    306e:	3025                	0x3025
    3070:	7834                	ld	a3,112(s0)
    3072:	2d20                	fld	fs0,88(a0)
    3074:	7320                	ld	s0,96(a4)
    3076:	6f68                	ld	a0,216(a4)
    3078:	6c75                	lui	s8,0x1d
    307a:	2064                	fld	fs1,192(s0)
    307c:	6562                	ld	a0,24(sp)
    307e:	3020                	fld	fs0,96(s0)
    3080:	2578                	fld	fa4,200(a0)
    3082:	3430                	fld	fa2,104(s0)
    3084:	0a78                	addi	a4,sp,284
    3086:	0000                	unimp
    3088:	5d75255b          	0x5d75255b
    308c:	5245                	li	tp,-15
    308e:	4f52                	lw	t5,20(sp)
    3090:	2152                	fld	ft2,272(sp)
    3092:	6d20                	ld	s0,88(a0)
    3094:	7461                	lui	s0,0xffff8
    3096:	6972                	ld	s2,280(sp)
    3098:	2078                	fld	fa4,192(s0)
    309a:	20637263          	bgeu	t1,t1,0x329e
    309e:	7830                	ld	a2,112(s0)
    30a0:	3025                	0x3025
    30a2:	7834                	ld	a3,112(s0)
    30a4:	2d20                	fld	fs0,88(a0)
    30a6:	7320                	ld	s0,96(a4)
    30a8:	6f68                	ld	a0,216(a4)
    30aa:	6c75                	lui	s8,0x1d
    30ac:	2064                	fld	fs1,192(s0)
    30ae:	6562                	ld	a0,24(sp)
    30b0:	3020                	fld	fs0,96(s0)
    30b2:	2578                	fld	fa4,200(a0)
    30b4:	3430                	fld	fa2,104(s0)
    30b6:	0a78                	addi	a4,sp,284
	...
    30c0:	5d75255b          	0x5d75255b
    30c4:	5245                	li	tp,-15
    30c6:	4f52                	lw	t5,20(sp)
    30c8:	2152                	fld	ft2,272(sp)
    30ca:	7320                	ld	s0,96(a4)
    30cc:	6174                	ld	a3,192(a0)
    30ce:	6574                	ld	a3,200(a0)
    30d0:	6320                	ld	s0,64(a4)
    30d2:	6372                	ld	t1,280(sp)
    30d4:	3020                	fld	fs0,96(s0)
    30d6:	2578                	fld	fa4,200(a0)
    30d8:	3430                	fld	fa2,104(s0)
    30da:	2078                	fld	fa4,192(s0)
    30dc:	202d                	0x202d
    30de:	756f6873          	csrrsi	a6,0x756,30
    30e2:	646c                	ld	a1,200(s0)
    30e4:	6220                	ld	s0,64(a2)
    30e6:	2065                	0x2065
    30e8:	7830                	ld	a2,112(s0)
    30ea:	3025                	0x3025
    30ec:	7834                	ld	a3,112(s0)
    30ee:	000a                	c.slli	zero,0x2
    30f0:	65726f43          	0x65726f43
    30f4:	614d                	addi	sp,sp,176
    30f6:	6b72                	ld	s6,280(sp)
    30f8:	5320                	lw	s0,96(a4)
    30fa:	7a69                	lui	s4,0xffffa
    30fc:	2065                	0x2065
    30fe:	2020                	fld	fs0,64(s0)
    3100:	3a20                	fld	fs0,112(a2)
    3102:	2520                	fld	fs0,72(a0)
    3104:	0a64                	addi	s1,sp,284
    3106:	0000                	unimp
    3108:	6f54                	ld	a3,152(a4)
    310a:	6174                	ld	a3,192(a0)
    310c:	206c                	fld	fa1,192(s0)
    310e:	6974                	ld	a3,208(a0)
    3110:	656d                	lui	a0,0x1b
    3112:	2820                	fld	fs0,80(s0)
    3114:	736d                	lui	t1,0xffffb
    3116:	2029                	0x2029
    3118:	3a20                	fld	fs0,112(a2)
    311a:	2520                	fld	fs0,72(a0)
    311c:	0a64                	addi	s1,sp,284
    311e:	0000                	unimp
    3120:	7449                	lui	s0,0xffff2
    3122:	7265                	lui	tp,0xffff9
    3124:	7461                	lui	s0,0xffff8
    3126:	6f69                	lui	t5,0x1a
    3128:	736e                	ld	t1,248(sp)
    312a:	2020                	fld	fs0,64(s0)
    312c:	2020                	fld	fs0,64(s0)
    312e:	2020                	fld	fs0,64(s0)
    3130:	3a20                	fld	fs0,112(a2)
    3132:	2520                	fld	fs0,72(a0)
    3134:	0a64                	addi	s1,sp,284
    3136:	0000                	unimp
    3138:	39434347          	fmsub.s	ft6,ft6,fs4,ft7,rmm
    313c:	342e                	fld	fs0,232(sp)
    313e:	302e                	fld	ft0,232(sp)
	...
    3148:	706d6f43          	fmadd.s	ft10,fs10,ft6,fa4,unknown
    314c:	6c69                	lui	s8,0x1a
    314e:	7265                	lui	tp,0xffff9
    3150:	7620                	ld	s0,104(a2)
    3152:	7265                	lui	tp,0xffff9
    3154:	6e6f6973          	csrrsi	s2,0x6e6,30
    3158:	3a20                	fld	fs0,112(a2)
    315a:	2520                	fld	fs0,72(a0)
    315c:	00000a73          	0xa73
    3160:	64656573          	csrrsi	a0,0x646,10
    3164:	20637263          	bgeu	t1,t1,0x3368
    3168:	2020                	fld	fs0,64(s0)
    316a:	2020                	fld	fs0,64(s0)
    316c:	2020                	fld	fs0,64(s0)
    316e:	2020                	fld	fs0,64(s0)
    3170:	3a20                	fld	fs0,112(a2)
    3172:	3020                	fld	fs0,96(s0)
    3174:	2578                	fld	fa4,200(a0)
    3176:	3430                	fld	fa2,104(s0)
    3178:	0a78                	addi	a4,sp,284
    317a:	0000                	unimp
    317c:	0000                	unimp
    317e:	0000                	unimp
    3180:	5d64255b          	0x5d64255b
    3184:	6c637263          	bgeu	t1,t1,0x3848
    3188:	7369                	lui	t1,0xffffa
    318a:	2074                	fld	fa3,192(s0)
    318c:	2020                	fld	fs0,64(s0)
    318e:	2020                	fld	fs0,64(s0)
    3190:	2020                	fld	fs0,64(s0)
    3192:	203a                	fld	ft0,392(sp)
    3194:	7830                	ld	a2,112(s0)
    3196:	3025                	0x3025
    3198:	7834                	ld	a3,112(s0)
    319a:	000a                	c.slli	zero,0x2
    319c:	0000                	unimp
    319e:	0000                	unimp
    31a0:	5d64255b          	0x5d64255b
    31a4:	6d637263          	bgeu	t1,s6,0x3868
    31a8:	7461                	lui	s0,0xffff8
    31aa:	6972                	ld	s2,280(sp)
    31ac:	2078                	fld	fa4,192(s0)
    31ae:	2020                	fld	fs0,64(s0)
    31b0:	2020                	fld	fs0,64(s0)
    31b2:	203a                	fld	ft0,392(sp)
    31b4:	7830                	ld	a2,112(s0)
    31b6:	3025                	0x3025
    31b8:	7834                	ld	a3,112(s0)
    31ba:	000a                	c.slli	zero,0x2
    31bc:	0000                	unimp
    31be:	0000                	unimp
    31c0:	6946                	ld	s2,80(sp)
    31c2:	696e                	ld	s2,216(sp)
    31c4:	20646573          	csrrsi	a0,0x206,8
    31c8:	6e69                	lui	t3,0x1a
    31ca:	2520                	fld	fs0,72(a0)
    31cc:	2064                	fld	fs1,192(s0)
    31ce:	736d                	lui	t1,0xffffb
    31d0:	0a2e                	slli	s4,s4,0xb
    31d2:	0000                	unimp
    31d4:	0000                	unimp
    31d6:	0000                	unimp
    31d8:	5d64255b          	0x5d64255b
    31dc:	73637263          	bgeu	t1,s6,0x3900
    31e0:	6174                	ld	a3,192(a0)
    31e2:	6574                	ld	a3,200(a0)
    31e4:	2020                	fld	fs0,64(s0)
    31e6:	2020                	fld	fs0,64(s0)
    31e8:	2020                	fld	fs0,64(s0)
    31ea:	203a                	fld	ft0,392(sp)
    31ec:	7830                	ld	a2,112(s0)
    31ee:	3025                	0x3025
    31f0:	7834                	ld	a3,112(s0)
    31f2:	000a                	c.slli	zero,0x2
    31f4:	0000                	unimp
    31f6:	0000                	unimp
    31f8:	5d64255b          	0x5d64255b
    31fc:	66637263          	bgeu	t1,t1,0x3860
    3200:	6e69                	lui	t3,0x1a
    3202:	6c61                	lui	s8,0x18
    3204:	2020                	fld	fs0,64(s0)
    3206:	2020                	fld	fs0,64(s0)
    3208:	2020                	fld	fs0,64(s0)
    320a:	203a                	fld	ft0,392(sp)
    320c:	7830                	ld	a2,112(s0)
    320e:	3025                	0x3025
    3210:	7834                	ld	a3,112(s0)
    3212:	000a                	c.slli	zero,0x2
    3214:	0000                	unimp
    3216:	0000                	unimp
    3218:	3d3d                	addiw	s10,s10,-17
    321a:	3d3d                	addiw	s10,s10,-17
    321c:	3d3d                	addiw	s10,s10,-17
    321e:	3d3d                	addiw	s10,s10,-17
    3220:	3d3d                	addiw	s10,s10,-17
    3222:	3d3d                	addiw	s10,s10,-17
    3224:	3d3d                	addiw	s10,s10,-17
    3226:	3d3d                	addiw	s10,s10,-17
    3228:	3d3d                	addiw	s10,s10,-17
    322a:	3d3d                	addiw	s10,s10,-17
    322c:	3d3d                	addiw	s10,s10,-17
    322e:	3d3d                	addiw	s10,s10,-17
    3230:	3d3d                	addiw	s10,s10,-17
    3232:	3d3d                	addiw	s10,s10,-17
    3234:	3d3d                	addiw	s10,s10,-17
    3236:	3d3d                	addiw	s10,s10,-17
    3238:	3d3d                	addiw	s10,s10,-17
    323a:	3d3d                	addiw	s10,s10,-17
    323c:	3d3d                	addiw	s10,s10,-17
    323e:	3d3d                	addiw	s10,s10,-17
    3240:	3d3d                	addiw	s10,s10,-17
    3242:	3d3d                	addiw	s10,s10,-17
    3244:	3d3d                	addiw	s10,s10,-17
    3246:	3d3d                	addiw	s10,s10,-17
    3248:	3d3d                	addiw	s10,s10,-17
    324a:	000a                	c.slli	zero,0x2
    324c:	0000                	unimp
    324e:	0000                	unimp
    3250:	65726f43          	0x65726f43
    3254:	614d                	addi	sp,sp,176
    3256:	6b72                	ld	s6,280(sp)
    3258:	5020                	lw	s0,96(s0)
    325a:	5341                	li	t1,-16
    325c:	20202053          	fsgnjx.s	ft0,ft0,ft2
    3260:	2020                	fld	fs0,64(s0)
    3262:	2020                	fld	fs0,64(s0)
    3264:	6425                	lui	s0,0x9
    3266:	4d20                	lw	s0,88(a0)
    3268:	7261                	lui	tp,0xffff8
    326a:	000a736b          	0xa736b
    326e:	0000                	unimp
    3270:	2020                	fld	fs0,64(s0)
    3272:	2020                	fld	fs0,64(s0)
    3274:	2020                	fld	fs0,64(s0)
    3276:	2020                	fld	fs0,64(s0)
    3278:	2020                	fld	fs0,64(s0)
    327a:	2020                	fld	fs0,64(s0)
    327c:	2020                	fld	fs0,64(s0)
    327e:	2020                	fld	fs0,64(s0)
    3280:	7376                	ld	t1,376(sp)
    3282:	202e                	fld	ft0,200(sp)
    3284:	3031                	0x3031
    3286:	3030                	fld	fa2,96(s0)
    3288:	3030                	fld	fa2,96(s0)
    328a:	4d20                	lw	s0,88(a0)
    328c:	7261                	lui	tp,0xffff8
    328e:	2820736b          	0x2820736b
    3292:	3769                	addiw	a4,a4,-6
    3294:	372d                	addiw	a4,a4,-21
    3296:	4b303037          	lui	zero,0x4b303
    329a:	4020                	lw	s0,64(s0)
    329c:	3420                	fld	fs0,104(s0)
    329e:	322e                	fld	ft4,232(sp)
    32a0:	4730                	lw	a2,72(a4)
    32a2:	7a48                	ld	a0,176(a2)
    32a4:	0a29                	addi	s4,s4,10
    32a6:	0000                	unimp
    32a8:	7245                	lui	tp,0xffff1
    32aa:	6f72                	ld	t5,280(sp)
    32ac:	7372                	ld	t1,312(sp)
    32ae:	6420                	ld	s0,72(s0)
    32b0:	7465                	lui	s0,0xffff9
    32b2:	6365                	lui	t1,0x19
    32b4:	6574                	ld	a3,200(a0)
    32b6:	0a64                	addi	s1,sp,284
	...
    32c0:	6e6e6143          	fmadd.q	ft2,ft8,ft6,fa3,unknown
    32c4:	7620746f          	jal	s0,0xaa26
    32c8:	6c61                	lui	s8,0x18
    32ca:	6469                	lui	s0,0x1a
    32cc:	7461                	lui	s0,0xffff8
    32ce:	2065                	0x2065
    32d0:	7265706f          	j	0x5a9f6
    32d4:	7461                	lui	s0,0xffff8
    32d6:	6f69                	lui	t5,0x1a
    32d8:	206e                	fld	ft0,216(sp)
    32da:	6f66                	ld	t5,88(sp)
    32dc:	2072                	fld	ft0,280(sp)
    32de:	6874                	ld	a3,208(s0)
    32e0:	7365                	lui	t1,0xffff9
    32e2:	2065                	0x2065
    32e4:	64656573          	csrrsi	a0,0x646,10
    32e8:	7620                	ld	s0,104(a2)
    32ea:	6c61                	lui	s8,0x18
    32ec:	6575                	lui	a0,0x1d
    32ee:	70202c73          	csrr	s8,0x702
    32f2:	656c                	ld	a1,200(a0)
    32f4:	7361                	lui	t1,0xffff8
    32f6:	2065                	0x2065
    32f8:	706d6f63          	bltu	s10,t1,0x3a16
    32fc:	7261                	lui	tp,0xffff8
    32fe:	2065                	0x2065
    3300:	68746977          	0x68746977
    3304:	7220                	ld	s0,96(a2)
    3306:	7365                	lui	t1,0xffff9
    3308:	6c75                	lui	s8,0x1d
    330a:	7374                	ld	a3,224(a4)
    330c:	6f20                	ld	s0,88(a4)
    330e:	206e                	fld	ft0,216(sp)
    3310:	2061                	0x2061
    3312:	776f6e6b          	0x776f6e6b
    3316:	206e                	fld	ft0,216(sp)
    3318:	6c70                	ld	a2,216(s0)
    331a:	7461                	lui	s0,0xffff8
    331c:	6f66                	ld	t5,88(sp)
    331e:	6d72                	ld	s10,280(sp)
    3320:	0a2e                	slli	s4,s4,0xb
    3322:	0000                	unimp
    3324:	0000                	unimp
    3326:	0000                	unimp
    3328:	74617453          	0x74617453
    332c:	6369                	lui	t1,0x1a
    332e:	0000                	unimp
    3330:	6548                	ld	a0,136(a0)
    3332:	7061                	c.lui	zero,0xffff8
    3334:	0000                	unimp
    3336:	0000                	unimp
    3338:	63617453          	0x63617453
    333c:	0000006b          	0x6b
    3340:	d4b0                	sw	a2,104(s1)
    3342:	3340                	fld	fs0,160(a4)
    3344:	6a79                	lui	s4,0x1e
    3346:	e714                	sd	a3,8(a4)
    3348:	e3c1                	bnez	a5,0x33c8
    334a:	0000                	unimp
    334c:	0000                	unimp
    334e:	0000                	unimp
    3350:	be52                	fsd	fs4,312(sp)
    3352:	1199                	addi	gp,gp,-26
    3354:	5608                	lw	a0,40(a2)
    3356:	07471fd7          	0x7471fd7
    335a:	0000                	unimp
    335c:	0000                	unimp
    335e:	0000                	unimp
    3360:	39bf5e47          	fmsub.s	ft8,ft10,fs11,ft7,unknown
    3364:	e5a4                	sd	s1,72(a1)
    3366:	8e3a                	mv	t3,a4
    3368:	8d84                	0x8d84
    336a:	0000                	unimp
    336c:	0000                	unimp
    336e:	0000                	unimp
    3370:	3054                	fld	fa3,160(s0)
    3372:	332e                	fld	ft6,232(sp)
    3374:	2d65                	addiw	s10,s10,25
    3376:	4631                	li	a2,12
	...
    3380:	542d                	li	s0,-21
    3382:	542e                	lw	s0,232(sp)
    3384:	71542b2b          	0x71542b2b
	...
    3390:	5431                	li	s0,-20
    3392:	65342e33          	0x65342e33
    3396:	7a34                	ld	a3,112(a2)
	...
    33a0:	302e3433          	0x302e3433
    33a4:	2d65                	addiw	s10,s10,25
    33a6:	5e54                	lw	a3,60(a2)
	...
    33b0:	2e35                	addiw	t3,t3,13
    33b2:	3035                	0x3035
    33b4:	6530                	ld	a2,72(a0)
    33b6:	0000332b          	0x332b
    33ba:	0000                	unimp
    33bc:	0000                	unimp
    33be:	0000                	unimp
    33c0:	2e2d                	addiw	t3,t3,11
    33c2:	3231                	addiw	tp,tp,-20
    33c4:	322d6533          	0x322d6533
	...
    33d0:	382d                	addiw	a6,a6,-21
    33d2:	382b6537          	lui	a0,0x382b6
    33d6:	00003233          	snez	tp,zero
    33da:	0000                	unimp
    33dc:	0000                	unimp
    33de:	0000                	unimp
    33e0:	362e302b          	0x362e302b
    33e4:	2d65                	addiw	s10,s10,25
    33e6:	3231                	addiw	tp,tp,-20
	...
    33f0:	352e3533          	0x352e3533
    33f4:	3434                	fld	fa3,104(s0)
    33f6:	3030                	fld	fa2,96(s0)
	...
    3400:	312e                	fld	ft2,232(sp)
    3402:	3332                	fld	ft6,296(sp)
    3404:	3534                	fld	fa3,104(a0)
    3406:	3030                	fld	fa2,96(s0)
	...
    3410:	312d                	addiw	sp,sp,-21
    3412:	3031                	0x3031
    3414:	372e                	fld	fa4,232(sp)
    3416:	3030                	fld	fa2,96(s0)
	...
    3420:	362e302b          	0x362e302b
    3424:	3434                	fld	fa3,104(s0)
    3426:	3030                	fld	fa2,96(s0)
	...
    3430:	3035                	0x3035
    3432:	3231                	addiw	tp,tp,-20
    3434:	0000                	unimp
    3436:	0000                	unimp
    3438:	3231                	addiw	tp,tp,-20
    343a:	00003433          	snez	s0,zero
    343e:	0000                	unimp
    3440:	382d                	addiw	a6,a6,-21
    3442:	00003437          	lui	s0,0x3
    3446:	0000                	unimp
    3448:	3232312b          	0x3232312b
    344c:	0000                	unimp
    344e:	0000                	unimp
    3450:	3430                	fld	fa2,104(s0)
    3452:	8000                	0x8000
    3454:	0000                	unimp
    3456:	0000                	unimp
    3458:	3438                	fld	fa4,104(s0)
    345a:	8000                	0x8000
    345c:	0000                	unimp
    345e:	0000                	unimp
    3460:	3440                	fld	fs0,168(s0)
    3462:	8000                	0x8000
    3464:	0000                	unimp
    3466:	0000                	unimp
    3468:	3448                	fld	fa0,168(s0)
    346a:	8000                	0x8000
    346c:	0000                	unimp
    346e:	0000                	unimp
    3470:	33f0                	fld	fa2,224(a5)
    3472:	8000                	0x8000
    3474:	0000                	unimp
    3476:	0000                	unimp
    3478:	3400                	fld	fs0,40(s0)
    347a:	8000                	0x8000
    347c:	0000                	unimp
    347e:	0000                	unimp
    3480:	3410                	fld	fa2,40(s0)
    3482:	8000                	0x8000
    3484:	0000                	unimp
    3486:	0000                	unimp
    3488:	3420                	fld	fs0,104(s0)
    348a:	8000                	0x8000
    348c:	0000                	unimp
    348e:	0000                	unimp
    3490:	33b0                	fld	fa2,96(a5)
    3492:	8000                	0x8000
    3494:	0000                	unimp
    3496:	0000                	unimp
    3498:	33c0                	fld	fs0,160(a5)
    349a:	8000                	0x8000
    349c:	0000                	unimp
    349e:	0000                	unimp
    34a0:	33d0                	fld	fa2,160(a5)
    34a2:	8000                	0x8000
    34a4:	0000                	unimp
    34a6:	0000                	unimp
    34a8:	33e0                	fld	fs0,224(a5)
    34aa:	8000                	0x8000
    34ac:	0000                	unimp
    34ae:	0000                	unimp
    34b0:	3370                	fld	fa2,224(a4)
    34b2:	8000                	0x8000
    34b4:	0000                	unimp
    34b6:	0000                	unimp
    34b8:	3380                	fld	fs0,32(a5)
    34ba:	8000                	0x8000
    34bc:	0000                	unimp
    34be:	0000                	unimp
    34c0:	3390                	fld	fa2,32(a5)
    34c2:	8000                	0x8000
    34c4:	0000                	unimp
    34c6:	0000                	unimp
    34c8:	33a0                	fld	fs0,96(a5)
    34ca:	8000                	0x8000
    34cc:	0000                	unimp
    34ce:	0000                	unimp
    34d0:	e47c                	sd	a5,200(s0)
    34d2:	ffff                	0xffff
    34d4:	e44c                	sd	a1,136(s0)
    34d6:	ffff                	0xffff
    34d8:	e458                	sd	a4,136(s0)
    34da:	ffff                	0xffff
    34dc:	e464                	sd	s1,200(s0)
    34de:	ffff                	0xffff
    34e0:	e470                	sd	a2,200(s0)
    34e2:	ffff                	0xffff
    34e4:	e440                	sd	s0,136(s0)
    34e6:	ffff                	0xffff
    34e8:	7845                	lui	a6,0xffff1
    34ea:	7469                	lui	s0,0xffffa
    34ec:	7720                	ld	s0,104(a4)
    34ee:	7469                	lui	s0,0xffffa
    34f0:	2068                	fld	fa0,192(s0)
    34f2:	65646f63          	bltu	s0,s6,0x3b50
    34f6:	3d20                	fld	fs0,120(a0)
    34f8:	2520                	fld	fs0,72(a0)
    34fa:	0a64                	addi	s1,sp,284
    34fc:	0000                	unimp
    34fe:	0000                	unimp
    3500:	f504                	sd	s1,40(a0)
    3502:	ffff                	0xffff
    3504:	f0a8                	sd	a0,96(s1)
    3506:	ffff                	0xffff
    3508:	f0a8                	sd	a0,96(s1)
    350a:	ffff                	0xffff
    350c:	f1c8                	sd	a0,160(a1)
    350e:	ffff                	0xffff
    3510:	f0a8                	sd	a0,96(s1)
    3512:	ffff                	0xffff
    3514:	f4f0                	sd	a2,232(s1)
    3516:	ffff                	0xffff
    3518:	f0a8                	sd	a0,96(s1)
    351a:	ffff                	0xffff
    351c:	f0a8                	sd	a0,96(s1)
    351e:	ffff                	0xffff
    3520:	f0a8                	sd	a0,96(s1)
    3522:	ffff                	0xffff
    3524:	f0a8                	sd	a0,96(s1)
    3526:	ffff                	0xffff
    3528:	f0a8                	sd	a0,96(s1)
    352a:	ffff                	0xffff
    352c:	f4e0                	sd	s0,232(s1)
    352e:	ffff                	0xffff
    3530:	f0a8                	sd	a0,96(s1)
    3532:	ffff                	0xffff
    3534:	f5dc                	sd	a5,168(a1)
    3536:	ffff                	0xffff
    3538:	f51c                	sd	a5,40(a0)
    353a:	ffff                	0xffff
    353c:	f0a8                	sd	a0,96(s1)
    353e:	ffff                	0xffff
    3540:	f2fc                	sd	a5,224(a3)
    3542:	ffff                	0xffff
    3544:	f18c                	sd	a1,32(a1)
    3546:	ffff                	0xffff
    3548:	f18c                	sd	a1,32(a1)
    354a:	ffff                	0xffff
    354c:	f18c                	sd	a1,32(a1)
    354e:	ffff                	0xffff
    3550:	f18c                	sd	a1,32(a1)
    3552:	ffff                	0xffff
    3554:	f18c                	sd	a1,32(a1)
    3556:	ffff                	0xffff
    3558:	f18c                	sd	a1,32(a1)
    355a:	ffff                	0xffff
    355c:	f18c                	sd	a1,32(a1)
    355e:	ffff                	0xffff
    3560:	f18c                	sd	a1,32(a1)
    3562:	ffff                	0xffff
    3564:	f18c                	sd	a1,32(a1)
    3566:	ffff                	0xffff
    3568:	f0a8                	sd	a0,96(s1)
    356a:	ffff                	0xffff
    356c:	f0a8                	sd	a0,96(s1)
    356e:	ffff                	0xffff
    3570:	f0a8                	sd	a0,96(s1)
    3572:	ffff                	0xffff
    3574:	f0a8                	sd	a0,96(s1)
    3576:	ffff                	0xffff
    3578:	f0a8                	sd	a0,96(s1)
    357a:	ffff                	0xffff
    357c:	f0a8                	sd	a0,96(s1)
    357e:	ffff                	0xffff
    3580:	f0a8                	sd	a0,96(s1)
    3582:	ffff                	0xffff
    3584:	f0a8                	sd	a0,96(s1)
    3586:	ffff                	0xffff
    3588:	f0a8                	sd	a0,96(s1)
    358a:	ffff                	0xffff
    358c:	f0a8                	sd	a0,96(s1)
    358e:	ffff                	0xffff
    3590:	f0a8                	sd	a0,96(s1)
    3592:	ffff                	0xffff
    3594:	f0a8                	sd	a0,96(s1)
    3596:	ffff                	0xffff
    3598:	f0a8                	sd	a0,96(s1)
    359a:	ffff                	0xffff
    359c:	f0a8                	sd	a0,96(s1)
    359e:	ffff                	0xffff
    35a0:	f0a8                	sd	a0,96(s1)
    35a2:	ffff                	0xffff
    35a4:	f0a8                	sd	a0,96(s1)
    35a6:	ffff                	0xffff
    35a8:	f0a8                	sd	a0,96(s1)
    35aa:	ffff                	0xffff
    35ac:	f0a8                	sd	a0,96(s1)
    35ae:	ffff                	0xffff
    35b0:	f0a8                	sd	a0,96(s1)
    35b2:	ffff                	0xffff
    35b4:	f0a8                	sd	a0,96(s1)
    35b6:	ffff                	0xffff
    35b8:	f0a8                	sd	a0,96(s1)
    35ba:	ffff                	0xffff
    35bc:	f0a8                	sd	a0,96(s1)
    35be:	ffff                	0xffff
    35c0:	f0a8                	sd	a0,96(s1)
    35c2:	ffff                	0xffff
    35c4:	f0a8                	sd	a0,96(s1)
    35c6:	ffff                	0xffff
    35c8:	f0a8                	sd	a0,96(s1)
    35ca:	ffff                	0xffff
    35cc:	f0a8                	sd	a0,96(s1)
    35ce:	ffff                	0xffff
    35d0:	f0a8                	sd	a0,96(s1)
    35d2:	ffff                	0xffff
    35d4:	f0a8                	sd	a0,96(s1)
    35d6:	ffff                	0xffff
    35d8:	f0a8                	sd	a0,96(s1)
    35da:	ffff                	0xffff
    35dc:	f0a8                	sd	a0,96(s1)
    35de:	ffff                	0xffff
    35e0:	f1d0                	sd	a2,160(a1)
    35e2:	ffff                	0xffff
    35e4:	f0a8                	sd	a0,96(s1)
    35e6:	ffff                	0xffff
    35e8:	f0a8                	sd	a0,96(s1)
    35ea:	ffff                	0xffff
    35ec:	f0a8                	sd	a0,96(s1)
    35ee:	ffff                	0xffff
    35f0:	f0a8                	sd	a0,96(s1)
    35f2:	ffff                	0xffff
    35f4:	f0a8                	sd	a0,96(s1)
    35f6:	ffff                	0xffff
    35f8:	f0a8                	sd	a0,96(s1)
    35fa:	ffff                	0xffff
    35fc:	f0a8                	sd	a0,96(s1)
    35fe:	ffff                	0xffff
    3600:	f0a8                	sd	a0,96(s1)
    3602:	ffff                	0xffff
    3604:	f0a8                	sd	a0,96(s1)
    3606:	ffff                	0xffff
    3608:	f0a8                	sd	a0,96(s1)
    360a:	ffff                	0xffff
    360c:	f600                	sd	s0,40(a2)
    360e:	ffff                	0xffff
    3610:	f560                	sd	s0,232(a0)
    3612:	ffff                	0xffff
    3614:	f0a8                	sd	a0,96(s1)
    3616:	ffff                	0xffff
    3618:	f0a8                	sd	a0,96(s1)
    361a:	ffff                	0xffff
    361c:	f0a8                	sd	a0,96(s1)
    361e:	ffff                	0xffff
    3620:	f5ec                	sd	a1,232(a1)
    3622:	ffff                	0xffff
    3624:	f560                	sd	s0,232(a0)
    3626:	ffff                	0xffff
    3628:	f0a8                	sd	a0,96(s1)
    362a:	ffff                	0xffff
    362c:	f0a8                	sd	a0,96(s1)
    362e:	ffff                	0xffff
    3630:	f4cc                	sd	a1,168(s1)
    3632:	ffff                	0xffff
    3634:	f0a8                	sd	a0,96(s1)
    3636:	ffff                	0xffff
    3638:	f0a8                	sd	a0,96(s1)
    363a:	ffff                	0xffff
    363c:	f448                	sd	a0,168(s0)
    363e:	ffff                	0xffff
    3640:	f404                	sd	s1,40(s0)
    3642:	ffff                	0xffff
    3644:	f0a8                	sd	a0,96(s1)
    3646:	ffff                	0xffff
    3648:	f0a8                	sd	a0,96(s1)
    364a:	ffff                	0xffff
    364c:	f390                	sd	a2,32(a5)
    364e:	ffff                	0xffff
    3650:	f0a8                	sd	a0,96(s1)
    3652:	ffff                	0xffff
    3654:	f314                	sd	a3,32(a4)
    3656:	ffff                	0xffff
    3658:	f0a8                	sd	a0,96(s1)
    365a:	ffff                	0xffff
    365c:	f0a8                	sd	a0,96(s1)
    365e:	ffff                	0xffff
    3660:	f1d0                	sd	a2,160(a1)
    3662:	ffff                	0xffff
    3664:	0000                	unimp
    3666:	0000                	unimp
    3668:	6e28                	ld	a0,88(a2)
    366a:	6c69                	lui	s8,0x1a
    366c:	0029                	c.nop	10
    366e:	0000                	unimp
    3670:	3130                	fld	fa2,96(a0)
    3672:	3332                	fld	ft6,296(sp)
    3674:	3534                	fld	fa3,104(a0)
    3676:	3736                	fld	fa4,360(sp)
    3678:	3938                	fld	fa4,112(a0)
    367a:	6261                	lui	tp,0x18
    367c:	66656463          	bltu	a0,t1,0x3ce4
    3680:	0000                	unimp
    3682:	0000                	unimp
    3684:	0001                	nop
    3686:	0000                	unimp
    3688:	000a                	c.slli	zero,0x2
    368a:	0000                	unimp
    368c:	0066                	c.slli	zero,0x19
	...
