
rtthread.bin:     file format binary


Disassembly of section .data:

0000000000000000 <.data>:
       0:	f14022f3          	csrr	t0,mhartid
       4:	00a29293          	slli	t0,t0,0xa
       8:	f1402573          	csrr	a0,mhartid
       c:	02051e63          	bnez	a0,0x48
      10:	30405073          	csrwi	mie,0
      14:	34405073          	csrwi	mip,0
      18:	00005297          	auipc	t0,0x5
      1c:	24c28293          	addi	t0,t0,588 # 0x5264
      20:	30529073          	csrw	mtvec,t0
      24:	000062b7          	lui	t0,0x6
      28:	3002b073          	csrc	mstatus,t0
      2c:	00012197          	auipc	gp,0x12
      30:	97418193          	addi	gp,gp,-1676 # 0x119a0
      34:	82018113          	addi	sp,gp,-2016
      38:	000042b7          	lui	t0,0x4
      3c:	00510133          	add	sp,sp,t0
      40:	34011073          	csrw	mscratch,sp
      44:	2fc0006f          	j	0x340
      48:	10500073          	wfi
      4c:	ffdff06f          	j	0x48
      50:	30047573          	csrrci	a0,mstatus,8
      54:	00008067          	ret
      58:	30051073          	csrw	mstatus,a0
      5c:	00008067          	ret
      60:	00053103          	0x53103
      64:	01013503          	0x1013503
      68:	30051073          	csrw	mstatus,a0
      6c:	0a00006f          	j	0x10c
      70:	f0010113          	addi	sp,sp,-256
      74:	00253023          	0x253023
      78:	00113023          	0x113023
      7c:	00113423          	0x113423
      80:	30002573          	csrr	a0,mstatus
      84:	00857513          	andi	a0,a0,8
      88:	00050463          	beqz	a0,0x90
      8c:	08000513          	li	a0,128
      90:	00a13823          	0xa13823
      94:	02413023          	0x2413023
      98:	02513423          	0x2513423
      9c:	02613823          	0x2613823
      a0:	02713c23          	0x2713c23
      a4:	04813023          	0x4813023
      a8:	04913423          	0x4913423
      ac:	04a13823          	0x4a13823
      b0:	04b13c23          	0x4b13c23
      b4:	06c13023          	0x6c13023
      b8:	06d13423          	0x6d13423
      bc:	06e13823          	0x6e13823
      c0:	06f13c23          	0x6f13c23
      c4:	09013023          	0x9013023
      c8:	09113423          	0x9113423
      cc:	09213823          	0x9213823
      d0:	09313c23          	0x9313c23
      d4:	0b413023          	0xb413023
      d8:	0b513423          	0xb513423
      dc:	0b613823          	0xb613823
      e0:	0b713c23          	0xb713c23
      e4:	0d813023          	0xd813023
      e8:	0d913423          	0xd913423
      ec:	0da13823          	0xda13823
      f0:	0db13c23          	0xdb13c23
      f4:	0fc13023          	0xfc13023
      f8:	0fd13423          	0xfd13423
      fc:	0fe13823          	0xfe13823
     100:	0ff13c23          	0xff13c23
     104:	0005b103          	0x5b103
     108:	0040006f          	j	0x10c
     10c:	00013503          	0x13503
     110:	34151073          	csrw	mepc,a0
     114:	00813083          	0x813083
     118:	000082b7          	lui	t0,0x8
     11c:	8002829b          	0x8002829b
     120:	30029073          	csrw	mstatus,t0
     124:	01013503          	0x1013503
     128:	30052073          	csrs	mstatus,a0
     12c:	02013203          	0x2013203
     130:	02813283          	0x2813283
     134:	03013303          	0x3013303
     138:	03813383          	0x3813383
     13c:	04013403          	0x4013403
     140:	04813483          	0x4813483
     144:	05013503          	0x5013503
     148:	05813583          	0x5813583
     14c:	06013603          	0x6013603
     150:	06813683          	0x6813683
     154:	07013703          	0x7013703
     158:	07813783          	0x7813783
     15c:	08013803          	0x8013803
     160:	08813883          	0x8813883
     164:	09013903          	0x9013903
     168:	09813983          	0x9813983
     16c:	0a013a03          	0xa013a03
     170:	0a813a83          	0xa813a83
     174:	0b013b03          	0xb013b03
     178:	0b813b83          	0xb813b83
     17c:	0c013c03          	0xc013c03
     180:	0c813c83          	0xc813c83
     184:	0d013d03          	0xd013d03
     188:	0d813d83          	0xd813d83
     18c:	0e013e03          	0xe013e03
     190:	0e813e83          	0xe813e83
     194:	0f013f03          	0xf013f03
     198:	0f813f83          	0xf813f83
     19c:	10010113          	addi	sp,sp,256
     1a0:	30200073          	mret
     1a4:	02051513          	slli	a0,a0,0x20
     1a8:	02059593          	slli	a1,a1,0x20
     1ac:	00008293          	mv	t0,ra
     1b0:	03c000ef          	jal	ra,0x1ec
     1b4:	0005051b          	0x5051b
     1b8:	00028067          	jr	t0 # 0x8000
     1bc:	02051513          	slli	a0,a0,0x20
     1c0:	02059593          	slli	a1,a1,0x20
     1c4:	02055513          	srli	a0,a0,0x20
     1c8:	0205d593          	srli	a1,a1,0x20
     1cc:	00008293          	mv	t0,ra
     1d0:	01c000ef          	jal	ra,0x1ec
     1d4:	0005851b          	0x5851b
     1d8:	00028067          	jr	t0
     1dc:	fff00293          	li	t0,-1
     1e0:	0a558c63          	beq	a1,t0,0x298
     1e4:	06054063          	bltz	a0,0x244
     1e8:	0605c663          	bltz	a1,0x254
     1ec:	00058613          	mv	a2,a1
     1f0:	00050593          	mv	a1,a0
     1f4:	fff00513          	li	a0,-1
     1f8:	02060c63          	beqz	a2,0x230
     1fc:	00100693          	li	a3,1
     200:	00b67a63          	bgeu	a2,a1,0x214
     204:	00c05863          	blez	a2,0x214
     208:	00161613          	slli	a2,a2,0x1
     20c:	00169693          	slli	a3,a3,0x1
     210:	feb66ae3          	bltu	a2,a1,0x204
     214:	00000513          	li	a0,0
     218:	00c5e663          	bltu	a1,a2,0x224
     21c:	40c585b3          	sub	a1,a1,a2
     220:	00d56533          	or	a0,a0,a3
     224:	0016d693          	srli	a3,a3,0x1
     228:	00165613          	srli	a2,a2,0x1
     22c:	fe0696e3          	bnez	a3,0x218
     230:	00008067          	ret
     234:	00008293          	mv	t0,ra
     238:	fb5ff0ef          	jal	ra,0x1ec
     23c:	00058513          	mv	a0,a1
     240:	00028067          	jr	t0
     244:	40a00533          	neg	a0,a0
     248:	00b04863          	bgtz	a1,0x258
     24c:	40b005b3          	neg	a1,a1
     250:	f9dff06f          	j	0x1ec
     254:	40b005b3          	neg	a1,a1
     258:	00008293          	mv	t0,ra
     25c:	f91ff0ef          	jal	ra,0x1ec
     260:	40a00533          	neg	a0,a0
     264:	00028067          	jr	t0
     268:	00008293          	mv	t0,ra
     26c:	0005ca63          	bltz	a1,0x280
     270:	00054c63          	bltz	a0,0x288
     274:	f79ff0ef          	jal	ra,0x1ec
     278:	00058513          	mv	a0,a1
     27c:	00028067          	jr	t0
     280:	40b005b3          	neg	a1,a1
     284:	fe0558e3          	bgez	a0,0x274
     288:	40a00533          	neg	a0,a0
     28c:	f61ff0ef          	jal	ra,0x1ec
     290:	40b00533          	neg	a0,a1
     294:	00028067          	jr	t0
     298:	01f29293          	slli	t0,t0,0x1f
     29c:	f45514e3          	bne	a0,t0,0x1e4
     2a0:	00008067          	ret
     2a4:	00050613          	mv	a2,a0
     2a8:	00000513          	li	a0,0
     2ac:	0015f693          	andi	a3,a1,1
     2b0:	00068463          	beqz	a3,0x2b8
     2b4:	00c50533          	add	a0,a0,a2
     2b8:	0015d593          	srli	a1,a1,0x1
     2bc:	00161613          	slli	a2,a2,0x1
     2c0:	fe0596e3          	bnez	a1,0x2ac
     2c4:	00008067          	ret
     2c8:	ff010113          	addi	sp,sp,-16
     2cc:	0000d517          	auipc	a0,0xd
     2d0:	d2c50513          	addi	a0,a0,-724 # 0xcff8
     2d4:	00113423          	0x113423
     2d8:	331020ef          	jal	ra,0x2e08
     2dc:	00813083          	0x813083
     2e0:	00000513          	li	a0,0
     2e4:	01010113          	addi	sp,sp,16
     2e8:	00008067          	ret
     2ec:	f14027f3          	csrr	a5,mhartid
     2f0:	00c7971b          	0xc7971b
     2f4:	0c2007b7          	lui	a5,0xc200
     2f8:	00e787b3          	add	a5,a5,a4
     2fc:	0047a503          	lw	a0,4(a5) # 0xc200004
     300:	00008067          	ret
     304:	f14027f3          	csrr	a5,mhartid
     308:	00c7971b          	0xc7971b
     30c:	0c2007b7          	lui	a5,0xc200
     310:	00e787b3          	add	a5,a5,a4
     314:	00a7a223          	sw	a0,4(a5) # 0xc200004
     318:	00008067          	ret
     31c:	00000513          	li	a0,0
     320:	00000593          	li	a1,0
     324:	00000613          	li	a2,0
     328:	00000693          	li	a3,0
     32c:	00000713          	li	a4,0
     330:	00000813          	li	a6,0
     334:	00800893          	li	a7,8
     338:	00000073          	ecall
     33c:	0000006f          	j	0x33c
     340:	00019517          	auipc	a0,0x19
     344:	e8050513          	addi	a0,a0,-384 # 0x191c0
     348:	00022617          	auipc	a2,0x22
     34c:	14160613          	addi	a2,a2,321 # 0x22489
     350:	ff010113          	addi	sp,sp,-16
     354:	40a60633          	sub	a2,a2,a0
     358:	00000593          	li	a1,0
     35c:	00113423          	0x113423
     360:	0d8020ef          	jal	ra,0x2438
     364:	cedff0ef          	jal	ra,0x50
     368:	00813083          	0x813083
     36c:	01010113          	addi	sp,sp,16
     370:	4c40406f          	j	0x4834
     374:	ff010113          	addi	sp,sp,-16
     378:	00113423          	0x113423
     37c:	00813023          	0x813023
     380:	0a8050ef          	jal	ra,0x5428
     384:	170000ef          	jal	ra,0x4f4
     388:	06422617          	auipc	a2,0x6422
     38c:	10160613          	addi	a2,a2,257 # 0x6422489
     390:	00022417          	auipc	s0,0x22
     394:	0f940413          	addi	s0,s0,249 # 0x22489
     398:	00060593          	mv	a1,a2
     39c:	00040513          	mv	a0,s0
     3a0:	3f9000ef          	jal	ra,0xf98
     3a4:	0000d517          	auipc	a0,0xd
     3a8:	c6450513          	addi	a0,a0,-924 # 0xd008
     3ac:	1e9020ef          	jal	ra,0x2d94
     3b0:	008050ef          	jal	ra,0x53b8
     3b4:	00040593          	mv	a1,s0
     3b8:	06422617          	auipc	a2,0x6422
     3bc:	0d160613          	addi	a2,a2,209 # 0x6422489
     3c0:	0000d517          	auipc	a0,0xd
     3c4:	c5050513          	addi	a0,a0,-944 # 0xd010
     3c8:	241020ef          	jal	ra,0x2e08
     3cc:	00013403          	0x13403
     3d0:	00813083          	0x813083
     3d4:	01010113          	addi	sp,sp,16
     3d8:	3140406f          	j	0x46ec
     3dc:	00058513          	mv	a0,a1
     3e0:	10000737          	lui	a4,0x10000
     3e4:	00574783          	lbu	a5,5(a4) # 0x10000005
     3e8:	0207f793          	andi	a5,a5,32
     3ec:	fe078ce3          	beqz	a5,0x3e4
     3f0:	00a70023          	sb	a0,0(a4)
     3f4:	00008067          	ret
     3f8:	10000737          	lui	a4,0x10000
     3fc:	00574783          	lbu	a5,5(a4) # 0x10000005
     400:	fff00513          	li	a0,-1
     404:	0017f793          	andi	a5,a5,1
     408:	00078663          	beqz	a5,0x414
     40c:	00074503          	lbu	a0,0(a4)
     410:	0ff57513          	andi	a0,a0,255
     414:	00008067          	ret
     418:	fe010113          	addi	sp,sp,-32
     41c:	00813823          	0x813823
     420:	00913423          	0x913423
     424:	00113c23          	0x113c23
     428:	00050413          	mv	s0,a0
     42c:	00058493          	mv	s1,a1
     430:	00051e63          	bnez	a0,0x44c
     434:	03a00613          	li	a2,58
     438:	0000d597          	auipc	a1,0xd
     43c:	c4058593          	addi	a1,a1,-960 # 0xd078
     440:	0000d517          	auipc	a0,0xd
     444:	c1050513          	addi	a0,a0,-1008 # 0xd050
     448:	34d020ef          	jal	ra,0x2f94
     44c:	0004a783          	lw	a5,0(s1)
     450:	01813083          	0x1813083
     454:	00000513          	li	a0,0
     458:	08f42423          	sw	a5,136(s0)
     45c:	0044a783          	lw	a5,4(s1)
     460:	00813483          	0x813483
     464:	08f42623          	sw	a5,140(s0)
     468:	01013403          	0x1013403
     46c:	02010113          	addi	sp,sp,32
     470:	00008067          	ret
     474:	07853783          	0x7853783
     478:	02079a63          	bnez	a5,0x4ac
     47c:	ff010113          	addi	sp,sp,-16
     480:	0000d517          	auipc	a0,0xd
     484:	be850513          	addi	a0,a0,-1048 # 0xd068
     488:	04700613          	li	a2,71
     48c:	0000d597          	auipc	a1,0xd
     490:	c0458593          	addi	a1,a1,-1020 # 0xd090
     494:	00113423          	0x113423
     498:	2fd020ef          	jal	ra,0x2f94
     49c:	00813083          	0x813083
     4a0:	00000513          	li	a0,0
     4a4:	01010113          	addi	sp,sp,16
     4a8:	00008067          	ret
     4ac:	00000513          	li	a0,0
     4b0:	00008067          	ret
     4b4:	100007b7          	lui	a5,0x10000
     4b8:	000780a3          	sb	zero,1(a5) # 0x10000001
     4bc:	0037c703          	lbu	a4,3(a5)
     4c0:	f8076713          	ori	a4,a4,-128
     4c4:	0ff77713          	andi	a4,a4,255
     4c8:	00e781a3          	sb	a4,3(a5)
     4cc:	00100713          	li	a4,1
     4d0:	00e78023          	sb	a4,0(a5)
     4d4:	000780a3          	sb	zero,1(a5)
     4d8:	00300713          	li	a4,3
     4dc:	00e781a3          	sb	a4,3(a5)
     4e0:	0017c703          	lbu	a4,1(a5)
     4e4:	0ff77713          	andi	a4,a4,255
     4e8:	00176713          	ori	a4,a4,1
     4ec:	00e780a3          	sb	a4,1(a5)
     4f0:	00008067          	ret
     4f4:	ff010113          	addi	sp,sp,-16
     4f8:	00113423          	0x113423
     4fc:	00019517          	auipc	a0,0x19
     500:	e0c50513          	addi	a0,a0,-500 # 0x19308
     504:	0000d797          	auipc	a5,0xd
     508:	b9c78793          	addi	a5,a5,-1124 # 0xd0a0
     50c:	08f53023          	0x8f53023
     510:	00011797          	auipc	a5,0x11
     514:	a487b783          	0xa487b783
     518:	00019697          	auipc	a3,0x19
     51c:	e9068693          	addi	a3,a3,-368 # 0x193a8
     520:	08f53423          	0x8f53423
     524:	100007b7          	lui	a5,0x10000
     528:	00f6b023          	0xf6b023
     52c:	00a00793          	li	a5,10
     530:	00f6a423          	sw	a5,8(a3)
     534:	f81ff0ef          	jal	ra,0x4b4
     538:	00019697          	auipc	a3,0x19
     53c:	e7068693          	addi	a3,a3,-400 # 0x193a8
     540:	04300613          	li	a2,67
     544:	0000d597          	auipc	a1,0xd
     548:	ac458593          	addi	a1,a1,-1340 # 0xd008
     54c:	00019517          	auipc	a0,0x19
     550:	dbc50513          	addi	a0,a0,-580 # 0x19308
     554:	088060ef          	jal	ra,0x65dc
     558:	00813083          	0x813083
     55c:	00000513          	li	a0,0
     560:	01010113          	addi	sp,sp,16
     564:	00008067          	ret
     568:	1980206f          	j	0x2700
     56c:	00050793          	mv	a5,a0
     570:	0005c703          	lbu	a4,0(a1)
     574:	00071663          	bnez	a4,0x580
     578:	00078023          	sb	zero,0(a5) # 0x10000000
     57c:	00008067          	ret
     580:	00e78023          	sb	a4,0(a5)
     584:	00158593          	addi	a1,a1,1
     588:	00178793          	addi	a5,a5,1
     58c:	fe5ff06f          	j	0x570
     590:	0c80206f          	j	0x2658
     594:	fe010113          	addi	sp,sp,-32
     598:	00113c23          	0x113c23
     59c:	00813823          	0x813823
     5a0:	00b13423          	0xb13423
     5a4:	00050413          	mv	s0,a0
     5a8:	158020ef          	jal	ra,0x2700
     5ac:	00813583          	0x813583
     5b0:	00a40533          	add	a0,s0,a0
     5b4:	fb9ff0ef          	jal	ra,0x56c
     5b8:	01813083          	0x1813083
     5bc:	00040513          	mv	a0,s0
     5c0:	01013403          	0x1013403
     5c4:	02010113          	addi	sp,sp,32
     5c8:	00008067          	ret
     5cc:	1100206f          	j	0x26dc
     5d0:	0cc0206f          	j	0x269c
     5d4:	6650106f          	j	0x2438
     5d8:	70d0106f          	j	0x24e4
     5dc:	0480206f          	j	0x2624
     5e0:	13c0206f          	j	0x271c
     5e4:	00050c63          	beqz	a0,0x5fc
     5e8:	00050793          	mv	a5,a0
     5ec:	0ff5f593          	andi	a1,a1,255
     5f0:	00000513          	li	a0,0
     5f4:	0007c703          	lbu	a4,0(a5)
     5f8:	00071463          	bnez	a4,0x600
     5fc:	00008067          	ret
     600:	00e59463          	bne	a1,a4,0x608
     604:	00078513          	mv	a0,a5
     608:	00178793          	addi	a5,a5,1
     60c:	fe9ff06f          	j	0x5f4
     610:	00050793          	mv	a5,a0
     614:	02000713          	li	a4,32
     618:	0007c683          	lbu	a3,0(a5)
     61c:	02e68063          	beq	a3,a4,0x63c
     620:	00000513          	li	a0,0
     624:	00900593          	li	a1,9
     628:	0007c603          	lbu	a2,0(a5)
     62c:	fd06069b          	0xfd06069b
     630:	0ff6f693          	andi	a3,a3,255
     634:	00d5f863          	bgeu	a1,a3,0x644
     638:	00008067          	ret
     63c:	00178793          	addi	a5,a5,1
     640:	fd9ff06f          	j	0x618
     644:	0025171b          	0x25171b
     648:	00a7053b          	0xa7053b
     64c:	0015151b          	0x15151b
     650:	00c5053b          	0xc5053b
     654:	fd05051b          	0xfd05051b
     658:	00178793          	addi	a5,a5,1
     65c:	fcdff06f          	j	0x628
     660:	00019797          	auipc	a5,0x19
     664:	b6079c23          	sh	zero,-1160(a5) # 0x191d8
     668:	00019797          	auipc	a5,0x19
     66c:	d5078793          	addi	a5,a5,-688 # 0x193b8
     670:	00019717          	auipc	a4,0x19
     674:	f4870713          	addi	a4,a4,-184 # 0x195b8
     678:	00f7b423          	0xf7b423
     67c:	00f7b023          	0xf7b023
     680:	01078793          	addi	a5,a5,16
     684:	fee79ae3          	bne	a5,a4,0x678
     688:	00019797          	auipc	a5,0x19
     68c:	b607a023          	sw	zero,-1184(a5) # 0x191e8
     690:	00008067          	ret
     694:	ff010113          	addi	sp,sp,-16
     698:	00813023          	0x813023
     69c:	00113423          	0x113423
     6a0:	00050413          	mv	s0,a0
     6a4:	00051e63          	bnez	a0,0x6c0
     6a8:	2c700613          	li	a2,711
     6ac:	0000d597          	auipc	a1,0xd
     6b0:	a3458593          	addi	a1,a1,-1484 # 0xd0e0
     6b4:	0000d517          	auipc	a0,0xd
     6b8:	a1450513          	addi	a0,a0,-1516 # 0xd0c8
     6bc:	0d9020ef          	jal	ra,0x2f94
     6c0:	991ff0ef          	jal	ra,0x50
     6c4:	06844783          	lbu	a5,104(s0)
     6c8:	00019717          	auipc	a4,0x19
     6cc:	b0073703          	0xb0073703
     6d0:	ff87f793          	andi	a5,a5,-8
     6d4:	00871e63          	bne	a4,s0,0x6f0
     6d8:	0037e793          	ori	a5,a5,3
     6dc:	06f40423          	sb	a5,104(s0)
     6e0:	00013403          	0x13403
     6e4:	00813083          	0x813083
     6e8:	01010113          	addi	sp,sp,16
     6ec:	96dff06f          	j	0x58
     6f0:	06944703          	lbu	a4,105(s0)
     6f4:	0017e793          	ori	a5,a5,1
     6f8:	06f40423          	sb	a5,104(s0)
     6fc:	00471693          	slli	a3,a4,0x4
     700:	00019797          	auipc	a5,0x19
     704:	cb878793          	addi	a5,a5,-840 # 0x193b8
     708:	00d786b3          	add	a3,a5,a3
     70c:	0086b583          	0x86b583
     710:	02840613          	addi	a2,s0,40
     714:	00019717          	auipc	a4,0x19
     718:	ad470713          	addi	a4,a4,-1324 # 0x191e8
     71c:	00c5b023          	0xc5b023
     720:	02b43823          	0x2b43823
     724:	00c6b423          	0xc6b423
     728:	06c42783          	lw	a5,108(s0)
     72c:	02d43423          	0x2d43423
     730:	00072683          	lw	a3,0(a4)
     734:	00d7e7b3          	or	a5,a5,a3
     738:	00f72023          	sw	a5,0(a4)
     73c:	fa5ff06f          	j	0x6e0
     740:	ff010113          	addi	sp,sp,-16
     744:	00813023          	0x813023
     748:	00113423          	0x113423
     74c:	00050413          	mv	s0,a0
     750:	00051e63          	bnez	a0,0x76c
     754:	32800613          	li	a2,808
     758:	0000d597          	auipc	a1,0xd
     75c:	9a858593          	addi	a1,a1,-1624 # 0xd100
     760:	0000d517          	auipc	a0,0xd
     764:	96850513          	addi	a0,a0,-1688 # 0xd0c8
     768:	02d020ef          	jal	ra,0x2f94
     76c:	8e5ff0ef          	jal	ra,0x50
     770:	02843683          	0x2843683
     774:	03043703          	0x3043703
     778:	02840793          	addi	a5,s0,40
     77c:	00e6b423          	0xe6b423
     780:	00d73023          	0xd73023
     784:	06944703          	lbu	a4,105(s0)
     788:	02f43423          	0x2f43423
     78c:	02f43823          	0x2f43823
     790:	00471693          	slli	a3,a4,0x4
     794:	00019797          	auipc	a5,0x19
     798:	c2478793          	addi	a5,a5,-988 # 0x193b8
     79c:	00d786b3          	add	a3,a5,a3
     7a0:	0006b783          	0x6b783
     7a4:	02d79063          	bne	a5,a3,0x7c4
     7a8:	00019717          	auipc	a4,0x19
     7ac:	a4070713          	addi	a4,a4,-1472 # 0x191e8
     7b0:	06c42783          	lw	a5,108(s0)
     7b4:	00072683          	lw	a3,0(a4)
     7b8:	fff7c793          	not	a5,a5
     7bc:	00d7f7b3          	and	a5,a5,a3
     7c0:	00f72023          	sw	a5,0(a4)
     7c4:	00013403          	0x13403
     7c8:	00813083          	0x813083
     7cc:	01010113          	addi	sp,sp,16
     7d0:	889ff06f          	j	0x58
     7d4:	ff010113          	addi	sp,sp,-16
     7d8:	00019517          	auipc	a0,0x19
     7dc:	a1052503          	lw	a0,-1520(a0) # 0x191e8
     7e0:	00113423          	0x113423
     7e4:	00813023          	0x813023
     7e8:	728020ef          	jal	ra,0x2f10
     7ec:	fff5051b          	0xfff5051b
     7f0:	00019797          	auipc	a5,0x19
     7f4:	bc878793          	addi	a5,a5,-1080 # 0x193b8
     7f8:	00451513          	slli	a0,a0,0x4
     7fc:	00a78533          	add	a0,a5,a0
     800:	00053403          	0x53403
     804:	fd840513          	addi	a0,s0,-40
     808:	00019797          	auipc	a5,0x19
     80c:	9ca7b023          	0x9ca7b023
     810:	f31ff0ef          	jal	ra,0x740
     814:	00300793          	li	a5,3
     818:	04f40023          	sb	a5,64(s0)
     81c:	01040513          	addi	a0,s0,16
     820:	00013403          	0x13403
     824:	00813083          	0x813083
     828:	01010113          	addi	sp,sp,16
     82c:	835ff06f          	j	0x60
     830:	fc010113          	addi	sp,sp,-64
     834:	01313c23          	0x1313c23
     838:	02113c23          	0x2113c23
     83c:	02813823          	0x2813823
     840:	02913423          	0x2913423
     844:	03213023          	0x3213023
     848:	01413823          	0x1413823
     84c:	805ff0ef          	jal	ra,0x50
     850:	00019797          	auipc	a5,0x19
     854:	98879783          	lh	a5,-1656(a5) # 0x191d8
     858:	00050993          	mv	s3,a0
     85c:	0e079e63          	bnez	a5,0x958
     860:	00019517          	auipc	a0,0x19
     864:	98852503          	lw	a0,-1656(a0) # 0x191e8
     868:	0e050863          	beqz	a0,0x958
     86c:	6a4020ef          	jal	ra,0x2f10
     870:	00019917          	auipc	s2,0x19
     874:	95890913          	addi	s2,s2,-1704 # 0x191c8
     878:	00093483          	0x93483
     87c:	fff5079b          	0xfff5079b
     880:	00479693          	slli	a3,a5,0x4
     884:	00019717          	auipc	a4,0x19
     888:	b3470713          	addi	a4,a4,-1228 # 0x193b8
     88c:	00d70733          	add	a4,a4,a3
     890:	00073403          	0x73403
     894:	0684c703          	lbu	a4,104(s1)
     898:	00300693          	li	a3,3
     89c:	fd840413          	addi	s0,s0,-40
     8a0:	00777613          	andi	a2,a4,7
     8a4:	00000a13          	li	s4,0
     8a8:	02d61663          	bne	a2,a3,0x8d4
     8ac:	0694c683          	lbu	a3,105(s1)
     8b0:	0cf6e663          	bltu	a3,a5,0x97c
     8b4:	00100a13          	li	s4,1
     8b8:	00f69a63          	bne	a3,a5,0x8cc
     8bc:	00877693          	andi	a3,a4,8
     8c0:	00069663          	bnez	a3,0x8cc
     8c4:	00048413          	mv	s0,s1
     8c8:	00000a13          	li	s4,0
     8cc:	ff777713          	andi	a4,a4,-9
     8d0:	06e48423          	sb	a4,104(s1)
     8d4:	0a848e63          	beq	s1,s0,0x990
     8d8:	00019717          	auipc	a4,0x19
     8dc:	8ef70423          	sb	a5,-1816(a4) # 0x191c0
     8e0:	00893023          	0x893023
     8e4:	00019797          	auipc	a5,0x19
     8e8:	8ec7b783          	0x8ec7b783
     8ec:	00078863          	beqz	a5,0x8fc
     8f0:	00040593          	mv	a1,s0
     8f4:	00048513          	mv	a0,s1
     8f8:	000780e7          	jalr	a5 # 0x198e4
     8fc:	000a0663          	beqz	s4,0x908
     900:	00048513          	mv	a0,s1
     904:	d91ff0ef          	jal	ra,0x694
     908:	00040513          	mv	a0,s0
     90c:	e35ff0ef          	jal	ra,0x740
     910:	06844783          	lbu	a5,104(s0)
     914:	03848913          	addi	s2,s1,56
     918:	03840593          	addi	a1,s0,56
     91c:	ff87f793          	andi	a5,a5,-8
     920:	0037e793          	ori	a5,a5,3
     924:	06f40423          	sb	a5,104(s0)
     928:	00019797          	auipc	a5,0x19
     92c:	9887c783          	lbu	a5,-1656(a5) # 0x192b0
     930:	04079a63          	bnez	a5,0x984
     934:	00019797          	auipc	a5,0x19
     938:	8ac7b783          	0x8ac7b783
     93c:	00078a63          	beqz	a5,0x950
     940:	00048513          	mv	a0,s1
     944:	00b13423          	0xb13423
     948:	000780e7          	jalr	a5 # 0x19934
     94c:	00813583          	0x813583
     950:	00090513          	mv	a0,s2
     954:	f1cff0ef          	jal	ra,0x70
     958:	03013403          	0x3013403
     95c:	03813083          	0x3813083
     960:	02813483          	0x2813483
     964:	02013903          	0x2013903
     968:	01013a03          	0x1013a03
     96c:	00098513          	mv	a0,s3
     970:	01813983          	0x1813983
     974:	04010113          	addi	sp,sp,64
     978:	ee0ff06f          	j	0x58
     97c:	00048413          	mv	s0,s1
     980:	f4dff06f          	j	0x8cc
     984:	00090513          	mv	a0,s2
     988:	0b1040ef          	jal	ra,0x5238
     98c:	fcdff06f          	j	0x958
     990:	00048513          	mv	a0,s1
     994:	dadff0ef          	jal	ra,0x740
     998:	00093703          	0x93703
     99c:	06874783          	lbu	a5,104(a4)
     9a0:	ff87f793          	andi	a5,a5,-8
     9a4:	0037e793          	ori	a5,a5,3
     9a8:	06f70423          	sb	a5,104(a4)
     9ac:	fadff06f          	j	0x958
     9b0:	ff010113          	addi	sp,sp,-16
     9b4:	00113423          	0x113423
     9b8:	e98ff0ef          	jal	ra,0x50
     9bc:	00019717          	auipc	a4,0x19
     9c0:	81c70713          	addi	a4,a4,-2020 # 0x191d8
     9c4:	00075783          	lhu	a5,0(a4)
     9c8:	00813083          	0x813083
     9cc:	0017879b          	0x17879b
     9d0:	00f71023          	sh	a5,0(a4)
     9d4:	01010113          	addi	sp,sp,16
     9d8:	e80ff06f          	j	0x58
     9dc:	ff010113          	addi	sp,sp,-16
     9e0:	00113423          	0x113423
     9e4:	e6cff0ef          	jal	ra,0x50
     9e8:	00018717          	auipc	a4,0x18
     9ec:	7f070713          	addi	a4,a4,2032 # 0x191d8
     9f0:	00075783          	lhu	a5,0(a4)
     9f4:	fff7879b          	0xfff7879b
     9f8:	0107979b          	0x107979b
     9fc:	4107d79b          	0x4107d79b
     a00:	00f71023          	sh	a5,0(a4)
     a04:	02f04463          	bgtz	a5,0xa2c
     a08:	00018797          	auipc	a5,0x18
     a0c:	7c079823          	sh	zero,2000(a5) # 0x191d8
     a10:	e48ff0ef          	jal	ra,0x58
     a14:	00018797          	auipc	a5,0x18
     a18:	7b47b783          	0x7b47b783
     a1c:	00078e63          	beqz	a5,0xa38
     a20:	00813083          	0x813083
     a24:	01010113          	addi	sp,sp,16
     a28:	e09ff06f          	j	0x830
     a2c:	00813083          	0x813083
     a30:	01010113          	addi	sp,sp,16
     a34:	e24ff06f          	j	0x58
     a38:	00813083          	0x813083
     a3c:	01010113          	addi	sp,sp,16
     a40:	00008067          	ret
     a44:	00018517          	auipc	a0,0x18
     a48:	7a852503          	lw	a0,1960(a0) # 0x191ec
     a4c:	00008067          	ret
     a50:	ff010113          	addi	sp,sp,-16
     a54:	00113423          	0x113423
     a58:	00813023          	0x813023
     a5c:	df4ff0ef          	jal	ra,0x50
     a60:	00018797          	auipc	a5,0x18
     a64:	78c7a783          	lw	a5,1932(a5) # 0x191ec
     a68:	0017879b          	0x17879b
     a6c:	00018717          	auipc	a4,0x18
     a70:	78f72023          	sw	a5,1920(a4) # 0x191ec
     a74:	00050413          	mv	s0,a0
     a78:	0f1020ef          	jal	ra,0x3368
     a7c:	08053783          	0x8053783
     a80:	fff78793          	addi	a5,a5,-1
     a84:	08f53023          	0x8f53023
     a88:	02079a63          	bnez	a5,0xabc
     a8c:	07853783          	0x7853783
     a90:	08f53023          	0x8f53023
     a94:	06854783          	lbu	a5,104(a0)
     a98:	0087e793          	ori	a5,a5,8
     a9c:	06f50423          	sb	a5,104(a0)
     aa0:	00040513          	mv	a0,s0
     aa4:	db4ff0ef          	jal	ra,0x58
     aa8:	d89ff0ef          	jal	ra,0x830
     aac:	00013403          	0x13403
     ab0:	00813083          	0x813083
     ab4:	01010113          	addi	sp,sp,16
     ab8:	2800106f          	j	0x1d38
     abc:	00040513          	mv	a0,s0
     ac0:	d98ff0ef          	jal	ra,0x58
     ac4:	fe9ff06f          	j	0xaac
     ac8:	06054c63          	bltz	a0,0xb40
     acc:	fe010113          	addi	sp,sp,-32
     ad0:	3e800593          	li	a1,1000
     ad4:	00113c23          	0x113c23
     ad8:	00813823          	0x813823
     adc:	00913423          	0x913423
     ae0:	00050493          	mv	s1,a0
     ae4:	f00ff0ef          	jal	ra,0x1e4
     ae8:	0015141b          	0x15141b
     aec:	00a4043b          	0xa4043b
     af0:	0034141b          	0x34141b
     af4:	00a4053b          	0xa4053b
     af8:	0025141b          	0x25141b
     afc:	3e800593          	li	a1,1000
     b00:	00048513          	mv	a0,s1
     b04:	f64ff0ef          	jal	ra,0x268
     b08:	0015179b          	0x15179b
     b0c:	00a787bb          	0xa787bb
     b10:	0037979b          	0x37979b
     b14:	00a7853b          	0xa7853b
     b18:	0025151b          	0x25151b
     b1c:	3e800593          	li	a1,1000
     b20:	3e75051b          	0x3e75051b
     b24:	ec0ff0ef          	jal	ra,0x1e4
     b28:	01813083          	0x1813083
     b2c:	00a4053b          	0xa4053b
     b30:	01013403          	0x1013403
     b34:	00813483          	0x813483
     b38:	02010113          	addi	sp,sp,32
     b3c:	00008067          	ret
     b40:	fff00513          	li	a0,-1
     b44:	00008067          	ret
     b48:	00000713          	li	a4,0
     b4c:	00800613          	li	a2,8
     b50:	00e586b3          	add	a3,a1,a4
     b54:	0006c683          	lbu	a3,0(a3)
     b58:	0007079b          	0x7079b
     b5c:	00069c63          	bnez	a3,0xb74
     b60:	00700713          	li	a4,7
     b64:	02000613          	li	a2,32
     b68:	0007869b          	0x7869b
     b6c:	00d75e63          	bge	a4,a3,0xb88
     b70:	00008067          	ret
     b74:	00e507b3          	add	a5,a0,a4
     b78:	00d78c23          	sb	a3,24(a5)
     b7c:	00170713          	addi	a4,a4,1
     b80:	fcc718e3          	bne	a4,a2,0xb50
     b84:	00008067          	ret
     b88:	00f506b3          	add	a3,a0,a5
     b8c:	00c68c23          	sb	a2,24(a3)
     b90:	00178793          	addi	a5,a5,1
     b94:	fd5ff06f          	j	0xb68
     b98:	ff010113          	addi	sp,sp,-16
     b9c:	00018597          	auipc	a1,0x18
     ba0:	6745b583          	0x6745b583
     ba4:	0000c517          	auipc	a0,0xc
     ba8:	57c50513          	addi	a0,a0,1404 # 0xd120
     bac:	00113423          	0x113423
     bb0:	258020ef          	jal	ra,0x2e08
     bb4:	00018597          	auipc	a1,0x18
     bb8:	6745b583          	0x6745b583
     bbc:	0000c517          	auipc	a0,0xc
     bc0:	57c50513          	addi	a0,a0,1404 # 0xd138
     bc4:	244020ef          	jal	ra,0x2e08
     bc8:	00813083          	0x813083
     bcc:	00018597          	auipc	a1,0x18
     bd0:	63c5b583          	0x63c5b583
     bd4:	0000c517          	auipc	a0,0xc
     bd8:	57c50513          	addi	a0,a0,1404 # 0xd150
     bdc:	01010113          	addi	sp,sp,16
     be0:	2280206f          	j	0x2e08
     be4:	fa010113          	addi	sp,sp,-96
     be8:	04113c23          	0x4113c23
     bec:	04813823          	0x4813823
     bf0:	04913423          	0x4913423
     bf4:	05213023          	0x5213023
     bf8:	03313c23          	0x3313c23
     bfc:	03413823          	0x3413823
     c00:	03513423          	0x3513423
     c04:	03613023          	0x3613023
     c08:	01713c23          	0x1713c23
     c0c:	01813823          	0x1813823
     c10:	01913423          	0x1913423
     c14:	01a13023          	0x1a13023
     c18:	f81ff0ef          	jal	ra,0xb98
     c1c:	0000c517          	auipc	a0,0xc
     c20:	55450513          	addi	a0,a0,1364 # 0xd170
     c24:	1e4020ef          	jal	ra,0x2e08
     c28:	00018497          	auipc	s1,0x18
     c2c:	5d048493          	addi	s1,s1,1488 # 0x191f8
     c30:	0004b583          	0x4b583
     c34:	0000c517          	auipc	a0,0xc
     c38:	55450513          	addi	a0,a0,1364 # 0xd188
     c3c:	00018917          	auipc	s2,0x18
     c40:	5b490913          	addi	s2,s2,1460 # 0x191f0
     c44:	1c4020ef          	jal	ra,0x2e08
     c48:	00018597          	auipc	a1,0x18
     c4c:	5b85b583          	0x5b85b583
     c50:	0000c517          	auipc	a0,0xc
     c54:	55050513          	addi	a0,a0,1360 # 0xd1a0
     c58:	1b0020ef          	jal	ra,0x2e08
     c5c:	00093583          	0x93583
     c60:	0000c517          	auipc	a0,0xc
     c64:	55850513          	addi	a0,a0,1368 # 0xd1b8
     c68:	000029b7          	lui	s3,0x2
     c6c:	19c020ef          	jal	ra,0x2e08
     c70:	0000c517          	auipc	a0,0xc
     c74:	56050513          	addi	a0,a0,1376 # 0xd1d0
     c78:	190020ef          	jal	ra,0x2e08
     c7c:	0004b403          	0x4b403
     c80:	0000ca17          	auipc	s4,0xc
     c84:	570a0a13          	addi	s4,s4,1392 # 0xd1f0
     c88:	3ff00a93          	li	s5,1023
     c8c:	00100b37          	lui	s6,0x100
     c90:	0000cb97          	auipc	s7,0xc
     c94:	580b8b93          	addi	s7,s7,1408 # 0xd210
     c98:	0000cc17          	auipc	s8,0xc
     c9c:	570c0c13          	addi	s8,s8,1392 # 0xd208
     ca0:	0000cc97          	auipc	s9,0xc
     ca4:	560c8c93          	addi	s9,s9,1376 # 0xd200
     ca8:	ea098993          	addi	s3,s3,-352 # 0x1ea0
     cac:	00093783          	0x93783
     cb0:	04879063          	bne	a5,s0,0xcf0
     cb4:	05813083          	0x5813083
     cb8:	05013403          	0x5013403
     cbc:	04813483          	0x4813483
     cc0:	04013903          	0x4013903
     cc4:	03813983          	0x3813983
     cc8:	03013a03          	0x3013a03
     ccc:	02813a83          	0x2813a83
     cd0:	02013b03          	0x2013b03
     cd4:	01813b83          	0x1813b83
     cd8:	01013c03          	0x1013c03
     cdc:	00813c83          	0x813c83
     ce0:	00013d03          	0x13d03
     ce4:	00000513          	li	a0,0
     ce8:	06010113          	addi	sp,sp,96
     cec:	00008067          	ret
     cf0:	0004b783          	0x4b783
     cf4:	00040593          	mv	a1,s0
     cf8:	000a0513          	mv	a0,s4
     cfc:	40f40d33          	sub	s10,s0,a5
     d00:	108020ef          	jal	ra,0x2e08
     d04:	00843783          	0x843783
     d08:	000c8513          	mv	a0,s9
     d0c:	fe07879b          	0xfe07879b
     d10:	41a785bb          	0x41a785bb
     d14:	00bad863          	bge	s5,a1,0xd24
     d18:	0565dc63          	bge	a1,s6,0xd70
     d1c:	40a5d59b          	0x40a5d59b
     d20:	000c0513          	mv	a0,s8
     d24:	0e4020ef          	jal	ra,0x2e08
     d28:	01b44703          	lbu	a4,27(s0)
     d2c:	01a44683          	lbu	a3,26(s0)
     d30:	01944603          	lbu	a2,25(s0)
     d34:	01844583          	lbu	a1,24(s0)
     d38:	0000c517          	auipc	a0,0xc
     d3c:	4e050513          	addi	a0,a0,1248 # 0xd218
     d40:	0c8020ef          	jal	ra,0x2e08
     d44:	00045783          	lhu	a5,0(s0)
     d48:	0000c517          	auipc	a0,0xc
     d4c:	4e050513          	addi	a0,a0,1248 # 0xd228
     d50:	01379663          	bne	a5,s3,0xd5c
     d54:	0000f517          	auipc	a0,0xf
     d58:	85450513          	addi	a0,a0,-1964 # 0xf5a8
     d5c:	0ac020ef          	jal	ra,0x2e08
     d60:	00843783          	0x843783
     d64:	0004b403          	0x4b403
     d68:	00f40433          	add	s0,s0,a5
     d6c:	f41ff06f          	j	0xcac
     d70:	4145d59b          	0x4145d59b
     d74:	000b8513          	mv	a0,s7
     d78:	fadff06f          	j	0xd24
     d7c:	00018797          	auipc	a5,0x18
     d80:	47c78793          	addi	a5,a5,1148 # 0x191f8
     d84:	0007b703          	0x7b703
     d88:	fe010113          	addi	sp,sp,-32
     d8c:	00813823          	0x813823
     d90:	01213023          	0x1213023
     d94:	00113c23          	0x113c23
     d98:	00913423          	0x913423
     d9c:	00050413          	mv	s0,a0
     da0:	00078913          	mv	s2,a5
     da4:	00e57e63          	bgeu	a0,a4,0xdc0
     da8:	0a100613          	li	a2,161
     dac:	0000c597          	auipc	a1,0xc
     db0:	7b458593          	addi	a1,a1,1972 # 0xd560
     db4:	0000c517          	auipc	a0,0xc
     db8:	47c50513          	addi	a0,a0,1148 # 0xd230
     dbc:	1d8020ef          	jal	ra,0x2f94
     dc0:	00018797          	auipc	a5,0x18
     dc4:	43078793          	addi	a5,a5,1072 # 0x191f0
     dc8:	0007b703          	0x7b703
     dcc:	00078493          	mv	s1,a5
     dd0:	00e46e63          	bltu	s0,a4,0xdec
     dd4:	0a200613          	li	a2,162
     dd8:	0000c597          	auipc	a1,0xc
     ddc:	78858593          	addi	a1,a1,1928 # 0xd560
     de0:	0000c517          	auipc	a0,0xc
     de4:	47050513          	addi	a0,a0,1136 # 0xd250
     de8:	1ac020ef          	jal	ra,0x2f94
     dec:	00245783          	lhu	a5,2(s0)
     df0:	00078e63          	beqz	a5,0xe0c
     df4:	0a300613          	li	a2,163
     df8:	0000c597          	auipc	a1,0xc
     dfc:	76858593          	addi	a1,a1,1896 # 0xd560
     e00:	0000c517          	auipc	a0,0xc
     e04:	48050513          	addi	a0,a0,1152 # 0xd280
     e08:	18c020ef          	jal	ra,0x2f94
     e0c:	00093703          	0x93703
     e10:	00843783          	0x843783
     e14:	00f707b3          	add	a5,a4,a5
     e18:	04f40063          	beq	s0,a5,0xe58
     e1c:	0027d683          	lhu	a3,2(a5)
     e20:	02069c63          	bnez	a3,0xe58
     e24:	0004b683          	0x4b683
     e28:	02f68863          	beq	a3,a5,0xe58
     e2c:	00018697          	auipc	a3,0x18
     e30:	3d468693          	addi	a3,a3,980 # 0x19200
     e34:	0006b603          	0x6b603
     e38:	00f61463          	bne	a2,a5,0xe40
     e3c:	0086b023          	0x86b023
     e40:	0087b683          	0x87b683
     e44:	00d43423          	0xd43423
     e48:	0087b783          	0x87b783
     e4c:	40e406b3          	sub	a3,s0,a4
     e50:	00f707b3          	add	a5,a4,a5
     e54:	00d7b823          	0xd7b823
     e58:	01043683          	0x1043683
     e5c:	00d707b3          	add	a5,a4,a3
     e60:	02f40a63          	beq	s0,a5,0xe94
     e64:	0027d603          	lhu	a2,2(a5)
     e68:	02061663          	bnez	a2,0xe94
     e6c:	00018617          	auipc	a2,0x18
     e70:	39460613          	addi	a2,a2,916 # 0x19200
     e74:	00063583          	0x63583
     e78:	00859463          	bne	a1,s0,0xe80
     e7c:	00f63023          	0xf63023
     e80:	00843603          	0x843603
     e84:	00c7b423          	0xc7b423
     e88:	00843783          	0x843783
     e8c:	00f70733          	add	a4,a4,a5
     e90:	00d73823          	0xd73823
     e94:	01813083          	0x1813083
     e98:	01013403          	0x1013403
     e9c:	00813483          	0x813483
     ea0:	00013903          	0x13903
     ea4:	02010113          	addi	sp,sp,32
     ea8:	00008067          	ret
     eac:	fe010113          	addi	sp,sp,-32
     eb0:	00813823          	0x813823
     eb4:	00913423          	0x913423
     eb8:	00113c23          	0x113c23
     ebc:	01213023          	0x1213023
     ec0:	990ff0ef          	jal	ra,0x50
     ec4:	00018797          	auipc	a5,0x18
     ec8:	3347b783          	0x3347b783
     ecc:	00002737          	lui	a4,0x2
     ed0:	00050493          	mv	s1,a0
     ed4:	00018697          	auipc	a3,0x18
     ed8:	31c6b683          	0x31c6b683
     edc:	00018617          	auipc	a2,0x18
     ee0:	33462603          	lw	a2,820(a2) # 0x19210
     ee4:	00078413          	mv	s0,a5
     ee8:	ea070713          	addi	a4,a4,-352 # 0x1ea0
     eec:	00100593          	li	a1,1
     ef0:	02869463          	bne	a3,s0,0xf18
     ef4:	00048513          	mv	a0,s1
     ef8:	960ff0ef          	jal	ra,0x58
     efc:	01813083          	0x1813083
     f00:	01013403          	0x1013403
     f04:	00813483          	0x813483
     f08:	00013903          	0x13903
     f0c:	00000513          	li	a0,0
     f10:	02010113          	addi	sp,sp,32
     f14:	00008067          	ret
     f18:	40f4093b          	0x40f4093b
     f1c:	02094263          	bltz	s2,0xf40
     f20:	03264063          	blt	a2,s2,0xf40
     f24:	00045503          	lhu	a0,0(s0)
     f28:	00e51c63          	bne	a0,a4,0xf40
     f2c:	00245503          	lhu	a0,2(s0)
     f30:	00a5e863          	bltu	a1,a0,0xf40
     f34:	00843403          	0x843403
     f38:	00878433          	add	s0,a5,s0
     f3c:	fb5ff06f          	j	0xef0
     f40:	0000c517          	auipc	a0,0xc
     f44:	35050513          	addi	a0,a0,848 # 0xd290
     f48:	6c1010ef          	jal	ra,0x2e08
     f4c:	00040593          	mv	a1,s0
     f50:	0000c517          	auipc	a0,0xc
     f54:	35850513          	addi	a0,a0,856 # 0xd2a8
     f58:	6b1010ef          	jal	ra,0x2e08
     f5c:	00045583          	lhu	a1,0(s0)
     f60:	0000c517          	auipc	a0,0xc
     f64:	36050513          	addi	a0,a0,864 # 0xd2c0
     f68:	6a1010ef          	jal	ra,0x2e08
     f6c:	00245583          	lhu	a1,2(s0)
     f70:	0000c517          	auipc	a0,0xc
     f74:	36850513          	addi	a0,a0,872 # 0xd2d8
     f78:	691010ef          	jal	ra,0x2e08
     f7c:	00843583          	0x843583
     f80:	0000c517          	auipc	a0,0xc
     f84:	36850513          	addi	a0,a0,872 # 0xd2e8
     f88:	fe058593          	addi	a1,a1,-32
     f8c:	412585b3          	sub	a1,a1,s2
     f90:	679010ef          	jal	ra,0x2e08
     f94:	f61ff06f          	j	0xef4
     f98:	fd010113          	addi	sp,sp,-48
     f9c:	02813023          	0x2813023
     fa0:	00913c23          	0x913c23
     fa4:	01213823          	0x1213823
     fa8:	01313423          	0x1313423
     fac:	01413023          	0x1413023
     fb0:	02113423          	0x2113423
     fb4:	00750413          	addi	s0,a0,7
     fb8:	00050913          	mv	s2,a0
     fbc:	00058993          	mv	s3,a1
     fc0:	ff85f493          	andi	s1,a1,-8
     fc4:	88cff0ef          	jal	ra,0x50
     fc8:	ff847413          	andi	s0,s0,-8
     fcc:	00050a13          	mv	s4,a0
     fd0:	109030ef          	jal	ra,0x48d8
     fd4:	02050863          	beqz	a0,0x1004
     fd8:	0000c597          	auipc	a1,0xc
     fdc:	59858593          	addi	a1,a1,1432 # 0xd570
     fe0:	0000c517          	auipc	a0,0xc
     fe4:	31850513          	addi	a0,a0,792 # 0xd2f8
     fe8:	621010ef          	jal	ra,0x2e08
     fec:	0d200613          	li	a2,210
     ff0:	0000c597          	auipc	a1,0xc
     ff4:	58058593          	addi	a1,a1,1408 # 0xd570
     ff8:	0000c517          	auipc	a0,0xc
     ffc:	32850513          	addi	a0,a0,808 # 0xd320
    1000:	795010ef          	jal	ra,0x2f94
    1004:	000a0513          	mv	a0,s4
    1008:	850ff0ef          	jal	ra,0x58
    100c:	04000793          	li	a5,64
    1010:	0c97f463          	bgeu	a5,s1,0x10d8
    1014:	fc048793          	addi	a5,s1,-64
    1018:	0c87e063          	bltu	a5,s0,0x10d8
    101c:	408484b3          	sub	s1,s1,s0
    1020:	fc048793          	addi	a5,s1,-64
    1024:	00018717          	auipc	a4,0x18
    1028:	1ef73623          	0x1ef73623
    102c:	000027b7          	lui	a5,0x2
    1030:	fe048493          	addi	s1,s1,-32
    1034:	ea07879b          	0xea07879b
    1038:	00f42023          	sw	a5,0(s0)
    103c:	00018917          	auipc	s2,0x18
    1040:	1bc90913          	addi	s2,s2,444 # 0x191f8
    1044:	00943423          	0x943423
    1048:	00040513          	mv	a0,s0
    104c:	00043823          	0x43823
    1050:	0000c597          	auipc	a1,0xc
    1054:	2d858593          	addi	a1,a1,728 # 0xd328
    1058:	00893023          	0x893023
    105c:	aedff0ef          	jal	ra,0xb48
    1060:	00843503          	0x843503
    1064:	0000c597          	auipc	a1,0xc
    1068:	2c458593          	addi	a1,a1,708 # 0xd328
    106c:	00a40533          	add	a0,s0,a0
    1070:	00018797          	auipc	a5,0x18
    1074:	18a7b023          	0x18a7b023
    1078:	000127b7          	lui	a5,0x12
    107c:	ea07879b          	0xea07879b
    1080:	00f52023          	sw	a5,0(a0)
    1084:	00953423          	0x953423
    1088:	00953823          	0x953823
    108c:	abdff0ef          	jal	ra,0xb48
    1090:	00100693          	li	a3,1
    1094:	00100613          	li	a2,1
    1098:	0000c597          	auipc	a1,0xc
    109c:	29858593          	addi	a1,a1,664 # 0xd330
    10a0:	00018517          	auipc	a0,0x18
    10a4:	51850513          	addi	a0,a0,1304 # 0x195b8
    10a8:	13d030ef          	jal	ra,0x49e4
    10ac:	00093783          	0x93783
    10b0:	02813083          	0x2813083
    10b4:	02013403          	0x2013403
    10b8:	00018717          	auipc	a4,0x18
    10bc:	14f73423          	0x14f73423
    10c0:	01813483          	0x1813483
    10c4:	01013903          	0x1013903
    10c8:	00813983          	0x813983
    10cc:	00013a03          	0x13a03
    10d0:	03010113          	addi	sp,sp,48
    10d4:	00008067          	ret
    10d8:	02013403          	0x2013403
    10dc:	02813083          	0x2813083
    10e0:	01813483          	0x1813483
    10e4:	00013a03          	0x13a03
    10e8:	00098613          	mv	a2,s3
    10ec:	00090593          	mv	a1,s2
    10f0:	00813983          	0x813983
    10f4:	01013903          	0x1013903
    10f8:	0000c517          	auipc	a0,0xc
    10fc:	24050513          	addi	a0,a0,576 # 0xd338
    1100:	03010113          	addi	sp,sp,48
    1104:	5050106f          	j	0x2e08
    1108:	f9010113          	addi	sp,sp,-112
    110c:	06113423          	0x6113423
    1110:	06813023          	0x6813023
    1114:	04913c23          	0x4913c23
    1118:	05213823          	0x5213823
    111c:	05313423          	0x5313423
    1120:	05413023          	0x5413023
    1124:	03513c23          	0x3513c23
    1128:	03613823          	0x3613823
    112c:	03713423          	0x3713423
    1130:	03813023          	0x3813023
    1134:	01913c23          	0x1913c23
    1138:	01a13823          	0x1a13823
    113c:	01b13423          	0x1b13423
    1140:	00051663          	bnez	a0,0x114c
    1144:	00000913          	li	s2,0
    1148:	24c0006f          	j	0x1394
    114c:	00050413          	mv	s0,a0
    1150:	f01fe0ef          	jal	ra,0x50
    1154:	00050493          	mv	s1,a0
    1158:	780030ef          	jal	ra,0x48d8
    115c:	02050863          	beqz	a0,0x118c
    1160:	0000c597          	auipc	a1,0xc
    1164:	42858593          	addi	a1,a1,1064 # 0xd588
    1168:	0000c517          	auipc	a0,0xc
    116c:	19050513          	addi	a0,a0,400 # 0xd2f8
    1170:	499010ef          	jal	ra,0x2e08
    1174:	11800613          	li	a2,280
    1178:	0000c597          	auipc	a1,0xc
    117c:	41058593          	addi	a1,a1,1040 # 0xd588
    1180:	0000c517          	auipc	a0,0xc
    1184:	1a050513          	addi	a0,a0,416 # 0xd320
    1188:	60d010ef          	jal	ra,0x2f94
    118c:	00048513          	mv	a0,s1
    1190:	ec9fe0ef          	jal	ra,0x58
    1194:	00018797          	auipc	a5,0x18
    1198:	07c78793          	addi	a5,a5,124 # 0x19210
    119c:	0007b703          	0x7b703
    11a0:	00740413          	addi	s0,s0,7
    11a4:	ff847413          	andi	s0,s0,-8
    11a8:	00078493          	mv	s1,a5
    11ac:	f8876ce3          	bltu	a4,s0,0x1144
    11b0:	01800793          	li	a5,24
    11b4:	00f47463          	bgeu	s0,a5,0x11bc
    11b8:	01800413          	li	s0,24
    11bc:	fff00593          	li	a1,-1
    11c0:	00018517          	auipc	a0,0x18
    11c4:	3f850513          	addi	a0,a0,1016 # 0x195b8
    11c8:	0c5030ef          	jal	ra,0x4a8c
    11cc:	00018a97          	auipc	s5,0x18
    11d0:	02ca8a93          	addi	s5,s5,44 # 0x191f8
    11d4:	00018997          	auipc	s3,0x18
    11d8:	02c98993          	addi	s3,s3,44 # 0x19200
    11dc:	000abb83          	0xabb83
    11e0:	0009b783          	0x9b783
    11e4:	0004bc03          	0x4bc03
    11e8:	417787b3          	sub	a5,a5,s7
    11ec:	408c0633          	sub	a2,s8,s0
    11f0:	00c7ea63          	bltu	a5,a2,0x1204
    11f4:	00018517          	auipc	a0,0x18
    11f8:	3c450513          	addi	a0,a0,964 # 0x195b8
    11fc:	251030ef          	jal	ra,0x4c4c
    1200:	f45ff06f          	j	0x1144
    1204:	00fb84b3          	add	s1,s7,a5
    1208:	0024d703          	lhu	a4,2(s1)
    120c:	0084b683          	0x84b683
    1210:	20071063          	bnez	a4,0x1410
    1214:	40f68733          	sub	a4,a3,a5
    1218:	fe070893          	addi	a7,a4,-32 # 0x19098
    121c:	1e88ea63          	bltu	a7,s0,0x1410
    1220:	00018617          	auipc	a2,0x18
    1224:	fe860613          	addi	a2,a2,-24 # 0x19208
    1228:	00018597          	auipc	a1,0x18
    122c:	00058593          	mv	a1,a1
    1230:	03840513          	addi	a0,s0,56
    1234:	0005b903          	0x5b903
    1238:	00063d03          	0x63d03
    123c:	02040a13          	addi	s4,s0,32
    1240:	00060d93          	mv	s11,a2
    1244:	18a8e863          	bltu	a7,a0,0x13d4
    1248:	01478cb3          	add	s9,a5,s4
    124c:	00002737          	lui	a4,0x2
    1250:	019b8b33          	add	s6,s7,s9
    1254:	ea07071b          	0xea07071b
    1258:	00fb3823          	0xfb3823
    125c:	00eb2023          	sw	a4,0(s6) # 0x100000
    1260:	00db3423          	0xdb3423
    1264:	0000c597          	auipc	a1,0xc
    1268:	11458593          	addi	a1,a1,276 # 0xd378
    126c:	000b0513          	mv	a0,s6
    1270:	8d9ff0ef          	jal	ra,0xb48
    1274:	00100793          	li	a5,1
    1278:	0194b423          	0x194b423
    127c:	00f49123          	sh	a5,2(s1)
    1280:	008b3783          	0x8b3783
    1284:	020c0c13          	addi	s8,s8,32
    1288:	00018817          	auipc	a6,0x18
    128c:	fa080813          	addi	a6,a6,-96 # 0x19228
    1290:	01878663          	beq	a5,s8,0x129c
    1294:	00fb8bb3          	add	s7,s7,a5
    1298:	019bb823          	0x19bb823
    129c:	02090793          	addi	a5,s2,32
    12a0:	008787b3          	add	a5,a5,s0
    12a4:	00f83023          	0xf83023
    12a8:	00fd7463          	bgeu	s10,a5,0x12b0
    12ac:	00fdb023          	0xfdb023
    12b0:	000027b7          	lui	a5,0x2
    12b4:	ea07879b          	0xea07879b
    12b8:	00f49023          	sh	a5,0(s1)
    12bc:	0ac020ef          	jal	ra,0x3368
    12c0:	0000c597          	auipc	a1,0xc
    12c4:	0c058593          	addi	a1,a1,192 # 0xd380
    12c8:	00050663          	beqz	a0,0x12d4
    12cc:	09c020ef          	jal	ra,0x3368
    12d0:	00050593          	mv	a1,a0
    12d4:	00048513          	mv	a0,s1
    12d8:	871ff0ef          	jal	ra,0xb48
    12dc:	0009b783          	0x9b783
    12e0:	00018917          	auipc	s2,0x18
    12e4:	f1090913          	addi	s2,s2,-240 # 0x191f0
    12e8:	02979063          	bne	a5,s1,0x1308
    12ec:	00093683          	0x93683
    12f0:	000ab603          	0xab603
    12f4:	00000713          	li	a4,0
    12f8:	0027d583          	lhu	a1,2(a5) # 0x2002
    12fc:	10059263          	bnez	a1,0x1400
    1300:	00070463          	beqz	a4,0x1308
    1304:	00f9b023          	0xf9b023
    1308:	00018517          	auipc	a0,0x18
    130c:	2b050513          	addi	a0,a0,688 # 0x195b8
    1310:	13d030ef          	jal	ra,0x4c4c
    1314:	00093783          	0x93783
    1318:	01448a33          	add	s4,s1,s4
    131c:	0147fe63          	bgeu	a5,s4,0x1338
    1320:	18600613          	li	a2,390
    1324:	0000c597          	auipc	a1,0xc
    1328:	26458593          	addi	a1,a1,612 # 0xd588
    132c:	0000c517          	auipc	a0,0xc
    1330:	05c50513          	addi	a0,a0,92 # 0xd388
    1334:	461010ef          	jal	ra,0x2f94
    1338:	0074f793          	andi	a5,s1,7
    133c:	02048913          	addi	s2,s1,32
    1340:	00078e63          	beqz	a5,0x135c
    1344:	18700613          	li	a2,391
    1348:	0000c597          	auipc	a1,0xc
    134c:	24058593          	addi	a1,a1,576 # 0xd588
    1350:	0000c517          	auipc	a0,0xc
    1354:	08050513          	addi	a0,a0,128 # 0xd3d0
    1358:	43d010ef          	jal	ra,0x2f94
    135c:	0074f493          	andi	s1,s1,7
    1360:	00048e63          	beqz	s1,0x137c
    1364:	18800613          	li	a2,392
    1368:	0000c597          	auipc	a1,0xc
    136c:	22058593          	addi	a1,a1,544 # 0xd588
    1370:	0000c517          	auipc	a0,0xc
    1374:	0b050513          	addi	a0,a0,176 # 0xd420
    1378:	41d010ef          	jal	ra,0x2f94
    137c:	00018797          	auipc	a5,0x18
    1380:	ea47b783          	0xea47b783
    1384:	00078863          	beqz	a5,0x1394
    1388:	00040593          	mv	a1,s0
    138c:	00090513          	mv	a0,s2
    1390:	000780e7          	jalr	a5 # 0x1937c
    1394:	06813083          	0x6813083
    1398:	06013403          	0x6013403
    139c:	05813483          	0x5813483
    13a0:	04813983          	0x4813983
    13a4:	04013a03          	0x4013a03
    13a8:	03813a83          	0x3813a83
    13ac:	03013b03          	0x3013b03
    13b0:	02813b83          	0x2813b83
    13b4:	02013c03          	0x2013c03
    13b8:	01813c83          	0x1813c83
    13bc:	01013d03          	0x1013d03
    13c0:	00813d83          	0x813d83
    13c4:	00090513          	mv	a0,s2
    13c8:	05013903          	0x5013903
    13cc:	07010113          	addi	sp,sp,112
    13d0:	00008067          	ret
    13d4:	00100793          	li	a5,1
    13d8:	00f49123          	sh	a5,2(s1)
    13dc:	012707b3          	add	a5,a4,s2
    13e0:	00f5b023          	0xf5b023
    13e4:	ecfd76e3          	bgeu	s10,a5,0x12b0
    13e8:	00f63023          	0xf63023
    13ec:	ec5ff06f          	j	0x12b0
    13f0:	0087b783          	0x87b783
    13f4:	00100713          	li	a4,1
    13f8:	00f607b3          	add	a5,a2,a5
    13fc:	efdff06f          	j	0x12f8
    1400:	fef698e3          	bne	a3,a5,0x13f0
    1404:	f00702e3          	beqz	a4,0x1308
    1408:	00d9b023          	0xd9b023
    140c:	efdff06f          	j	0x1308
    1410:	00068793          	mv	a5,a3
    1414:	dddff06f          	j	0x11f0
    1418:	fe010113          	addi	sp,sp,-32
    141c:	00113c23          	0x113c23
    1420:	00813823          	0x813823
    1424:	e81fe0ef          	jal	ra,0x2a4
    1428:	00a13423          	0xa13423
    142c:	cddff0ef          	jal	ra,0x1108
    1430:	00050413          	mv	s0,a0
    1434:	00050863          	beqz	a0,0x1444
    1438:	00813603          	0x813603
    143c:	00000593          	li	a1,0
    1440:	7f9000ef          	jal	ra,0x2438
    1444:	01813083          	0x1813083
    1448:	00040513          	mv	a0,s0
    144c:	01013403          	0x1013403
    1450:	02010113          	addi	sp,sp,32
    1454:	00008067          	ret
    1458:	20050663          	beqz	a0,0x1664
    145c:	fe010113          	addi	sp,sp,-32
    1460:	00813823          	0x813823
    1464:	00913423          	0x913423
    1468:	00113c23          	0x113c23
    146c:	01213023          	0x1213023
    1470:	00050413          	mv	s0,a0
    1474:	bddfe0ef          	jal	ra,0x50
    1478:	00050493          	mv	s1,a0
    147c:	45c030ef          	jal	ra,0x48d8
    1480:	02050863          	beqz	a0,0x14b0
    1484:	00010597          	auipc	a1,0x10
    1488:	adc58593          	addi	a1,a1,-1316 # 0x10f60
    148c:	0000c517          	auipc	a0,0xc
    1490:	e6c50513          	addi	a0,a0,-404 # 0xd2f8
    1494:	175010ef          	jal	ra,0x2e08
    1498:	22f00613          	li	a2,559
    149c:	00010597          	auipc	a1,0x10
    14a0:	ac458593          	addi	a1,a1,-1340 # 0x10f60
    14a4:	0000c517          	auipc	a0,0xc
    14a8:	e7c50513          	addi	a0,a0,-388 # 0xd320
    14ac:	2e9010ef          	jal	ra,0x2f94
    14b0:	00048513          	mv	a0,s1
    14b4:	ba5fe0ef          	jal	ra,0x58
    14b8:	00747793          	andi	a5,s0,7
    14bc:	00078e63          	beqz	a5,0x14d8
    14c0:	23100613          	li	a2,561
    14c4:	00010597          	auipc	a1,0x10
    14c8:	a9c58593          	addi	a1,a1,-1380 # 0x10f60
    14cc:	0000c517          	auipc	a0,0xc
    14d0:	f8450513          	addi	a0,a0,-124 # 0xd450
    14d4:	2c1010ef          	jal	ra,0x2f94
    14d8:	00018917          	auipc	s2,0x18
    14dc:	d2090913          	addi	s2,s2,-736 # 0x191f8
    14e0:	00093783          	0x93783
    14e4:	00f46863          	bltu	s0,a5,0x14f4
    14e8:	00018797          	auipc	a5,0x18
    14ec:	d087b783          	0xd087b783
    14f0:	00f46e63          	bltu	s0,a5,0x150c
    14f4:	23200613          	li	a2,562
    14f8:	00010597          	auipc	a1,0x10
    14fc:	a6858593          	addi	a1,a1,-1432 # 0x10f60
    1500:	0000c517          	auipc	a0,0xc
    1504:	f8050513          	addi	a0,a0,-128 # 0xd480
    1508:	28d010ef          	jal	ra,0x2f94
    150c:	00018797          	auipc	a5,0x18
    1510:	d0c7b783          	0xd0c7b783
    1514:	00078663          	beqz	a5,0x1520
    1518:	00040513          	mv	a0,s0
    151c:	000780e7          	jalr	a5 # 0x1950c
    1520:	00093783          	0x93783
    1524:	12f46463          	bltu	s0,a5,0x164c
    1528:	00018797          	auipc	a5,0x18
    152c:	cc87b783          	0xcc87b783
    1530:	10f47e63          	bgeu	s0,a5,0x164c
    1534:	fff00593          	li	a1,-1
    1538:	00018517          	auipc	a0,0x18
    153c:	08050513          	addi	a0,a0,128 # 0x195b8
    1540:	54c030ef          	jal	ra,0x4a8c
    1544:	fe245783          	lhu	a5,-30(s0)
    1548:	fe040493          	addi	s1,s0,-32
    154c:	00078a63          	beqz	a5,0x1560
    1550:	fe045703          	lhu	a4,-32(s0)
    1554:	000027b7          	lui	a5,0x2
    1558:	ea078793          	addi	a5,a5,-352 # 0x1ea0
    155c:	06f70863          	beq	a4,a5,0x15cc
    1560:	0000c517          	auipc	a0,0xc
    1564:	f8050513          	addi	a0,a0,-128 # 0xd4e0
    1568:	0a1010ef          	jal	ra,0x2e08
    156c:	fe045683          	lhu	a3,-32(s0)
    1570:	fe245603          	lhu	a2,-30(s0)
    1574:	00048593          	mv	a1,s1
    1578:	0000c517          	auipc	a0,0xc
    157c:	f8850513          	addi	a0,a0,-120 # 0xd500
    1580:	089010ef          	jal	ra,0x2e08
    1584:	fe245783          	lhu	a5,-30(s0)
    1588:	00079e63          	bnez	a5,0x15a4
    158c:	25100613          	li	a2,593
    1590:	00010597          	auipc	a1,0x10
    1594:	9d058593          	addi	a1,a1,-1584 # 0x10f60
    1598:	0000c517          	auipc	a0,0xc
    159c:	f9850513          	addi	a0,a0,-104 # 0xd530
    15a0:	1f5010ef          	jal	ra,0x2f94
    15a4:	fe045703          	lhu	a4,-32(s0)
    15a8:	000027b7          	lui	a5,0x2
    15ac:	ea078793          	addi	a5,a5,-352 # 0x1ea0
    15b0:	00f70e63          	beq	a4,a5,0x15cc
    15b4:	25200613          	li	a2,594
    15b8:	00010597          	auipc	a1,0x10
    15bc:	9a858593          	addi	a1,a1,-1624 # 0x10f60
    15c0:	0000c517          	auipc	a0,0xc
    15c4:	f8050513          	addi	a0,a0,-128 # 0xd540
    15c8:	1cd010ef          	jal	ra,0x2f94
    15cc:	000027b7          	lui	a5,0x2
    15d0:	ea07879b          	0xea07879b
    15d4:	fef41023          	sh	a5,-32(s0)
    15d8:	fe041123          	sh	zero,-30(s0)
    15dc:	0000c597          	auipc	a1,0xc
    15e0:	d9c58593          	addi	a1,a1,-612 # 0xd378
    15e4:	00048513          	mv	a0,s1
    15e8:	d60ff0ef          	jal	ra,0xb48
    15ec:	00018797          	auipc	a5,0x18
    15f0:	c1478793          	addi	a5,a5,-1004 # 0x19200
    15f4:	0007b703          	0x7b703
    15f8:	00e4f463          	bgeu	s1,a4,0x1600
    15fc:	0097b023          	0x97b023
    1600:	00018697          	auipc	a3,0x18
    1604:	c2868693          	addi	a3,a3,-984 # 0x19228
    1608:	fe843703          	0xfe843703
    160c:	0006b783          	0x6b783
    1610:	00048513          	mv	a0,s1
    1614:	40e787b3          	sub	a5,a5,a4
    1618:	00093703          	0x93703
    161c:	40e48733          	sub	a4,s1,a4
    1620:	00e787b3          	add	a5,a5,a4
    1624:	00f6b023          	0xf6b023
    1628:	f54ff0ef          	jal	ra,0xd7c
    162c:	01013403          	0x1013403
    1630:	01813083          	0x1813083
    1634:	00813483          	0x813483
    1638:	00013903          	0x13903
    163c:	00018517          	auipc	a0,0x18
    1640:	f7c50513          	addi	a0,a0,-132 # 0x195b8
    1644:	02010113          	addi	sp,sp,32
    1648:	6040306f          	j	0x4c4c
    164c:	01813083          	0x1813083
    1650:	01013403          	0x1013403
    1654:	00813483          	0x813483
    1658:	00013903          	0x13903
    165c:	02010113          	addi	sp,sp,32
    1660:	00008067          	ret
    1664:	00008067          	ret
    1668:	fc010113          	addi	sp,sp,-64
    166c:	02813823          	0x2813823
    1670:	02913423          	0x2913423
    1674:	03213023          	0x3213023
    1678:	02113c23          	0x2113c23
    167c:	01313c23          	0x1313c23
    1680:	01413823          	0x1413823
    1684:	00050493          	mv	s1,a0
    1688:	00058413          	mv	s0,a1
    168c:	9c5fe0ef          	jal	ra,0x50
    1690:	00050913          	mv	s2,a0
    1694:	244030ef          	jal	ra,0x48d8
    1698:	02050863          	beqz	a0,0x16c8
    169c:	0000c597          	auipc	a1,0xc
    16a0:	efc58593          	addi	a1,a1,-260 # 0xd598
    16a4:	0000c517          	auipc	a0,0xc
    16a8:	c5450513          	addi	a0,a0,-940 # 0xd2f8
    16ac:	75c010ef          	jal	ra,0x2e08
    16b0:	1ac00613          	li	a2,428
    16b4:	0000c597          	auipc	a1,0xc
    16b8:	ee458593          	addi	a1,a1,-284 # 0xd598
    16bc:	0000c517          	auipc	a0,0xc
    16c0:	c6450513          	addi	a0,a0,-924 # 0xd320
    16c4:	0d1010ef          	jal	ra,0x2f94
    16c8:	00090513          	mv	a0,s2
    16cc:	98dfe0ef          	jal	ra,0x58
    16d0:	00018a17          	auipc	s4,0x18
    16d4:	b40a0a13          	addi	s4,s4,-1216 # 0x19210
    16d8:	000a3783          	0xa3783
    16dc:	00740413          	addi	s0,s0,7
    16e0:	ff847413          	andi	s0,s0,-8
    16e4:	0087e863          	bltu	a5,s0,0x16f4
    16e8:	00041a63          	bnez	s0,0x16fc
    16ec:	00048513          	mv	a0,s1
    16f0:	d69ff0ef          	jal	ra,0x1458
    16f4:	00000913          	li	s2,0
    16f8:	0640006f          	j	0x175c
    16fc:	02049463          	bnez	s1,0x1724
    1700:	00040513          	mv	a0,s0
    1704:	03013403          	0x3013403
    1708:	03813083          	0x3813083
    170c:	02813483          	0x2813483
    1710:	02013903          	0x2013903
    1714:	01813983          	0x1813983
    1718:	01013a03          	0x1013a03
    171c:	04010113          	addi	sp,sp,64
    1720:	9e9ff06f          	j	0x1108
    1724:	fff00593          	li	a1,-1
    1728:	00018517          	auipc	a0,0x18
    172c:	e9050513          	addi	a0,a0,-368 # 0x195b8
    1730:	35c030ef          	jal	ra,0x4a8c
    1734:	00018917          	auipc	s2,0x18
    1738:	ac493903          	0xac493903
    173c:	0124e863          	bltu	s1,s2,0x174c
    1740:	00018797          	auipc	a5,0x18
    1744:	ab07b783          	0xab07b783
    1748:	02f4ec63          	bltu	s1,a5,0x1780
    174c:	00018517          	auipc	a0,0x18
    1750:	e6c50513          	addi	a0,a0,-404 # 0x195b8
    1754:	4f8030ef          	jal	ra,0x4c4c
    1758:	00048913          	mv	s2,s1
    175c:	03813083          	0x3813083
    1760:	03013403          	0x3013403
    1764:	02813483          	0x2813483
    1768:	01813983          	0x1813983
    176c:	01013a03          	0x1013a03
    1770:	00090513          	mv	a0,s2
    1774:	02013903          	0x2013903
    1778:	04010113          	addi	sp,sp,64
    177c:	00008067          	ret
    1780:	fe84b683          	0xfe84b683
    1784:	fe048793          	addi	a5,s1,-32
    1788:	412787b3          	sub	a5,a5,s2
    178c:	fe068593          	addi	a1,a3,-32
    1790:	40f589b3          	sub	s3,a1,a5
    1794:	fb340ce3          	beq	s0,s3,0x174c
    1798:	03840713          	addi	a4,s0,56
    179c:	09377463          	bgeu	a4,s3,0x1824
    17a0:	00018617          	auipc	a2,0x18
    17a4:	a8860613          	addi	a2,a2,-1400 # 0x19228
    17a8:	00063703          	0x63703
    17ac:	00f40433          	add	s0,s0,a5
    17b0:	00e40733          	add	a4,s0,a4
    17b4:	40b70733          	sub	a4,a4,a1
    17b8:	00e63023          	0xe63023
    17bc:	02040413          	addi	s0,s0,32
    17c0:	00002737          	lui	a4,0x2
    17c4:	00890533          	add	a0,s2,s0
    17c8:	ea07071b          	0xea07071b
    17cc:	00e52023          	sw	a4,0(a0)
    17d0:	00f53823          	0xf53823
    17d4:	00d53423          	0xd53423
    17d8:	0000c597          	auipc	a1,0xc
    17dc:	ba058593          	addi	a1,a1,-1120 # 0xd378
    17e0:	00a13423          	0xa13423
    17e4:	b64ff0ef          	jal	ra,0xb48
    17e8:	00813503          	0x813503
    17ec:	000a3783          	0xa3783
    17f0:	fe84b423          	0xfe84b423
    17f4:	00853703          	0x853703
    17f8:	02078793          	addi	a5,a5,32 # 0x19760
    17fc:	00f70663          	beq	a4,a5,0x1808
    1800:	00e90933          	add	s2,s2,a4
    1804:	00893823          	0x893823
    1808:	00018797          	auipc	a5,0x18
    180c:	9f878793          	addi	a5,a5,-1544 # 0x19200
    1810:	0007b703          	0x7b703
    1814:	00e57463          	bgeu	a0,a4,0x181c
    1818:	00a7b023          	0xa7b023
    181c:	d60ff0ef          	jal	ra,0xd7c
    1820:	f2dff06f          	j	0x174c
    1824:	00018517          	auipc	a0,0x18
    1828:	d9450513          	addi	a0,a0,-620 # 0x195b8
    182c:	420030ef          	jal	ra,0x4c4c
    1830:	00040513          	mv	a0,s0
    1834:	8d5ff0ef          	jal	ra,0x1108
    1838:	00050913          	mv	s2,a0
    183c:	f20500e3          	beqz	a0,0x175c
    1840:	00040613          	mv	a2,s0
    1844:	0089f463          	bgeu	s3,s0,0x184c
    1848:	00098613          	mv	a2,s3
    184c:	00048593          	mv	a1,s1
    1850:	00090513          	mv	a0,s2
    1854:	491000ef          	jal	ra,0x24e4
    1858:	00048513          	mv	a0,s1
    185c:	bfdff0ef          	jal	ra,0x1458
    1860:	efdff06f          	j	0x175c
    1864:	02853683          	0x2853683
    1868:	03053703          	0x3053703
    186c:	02850793          	addi	a5,a0,40
    1870:	00e6b423          	0xe6b423
    1874:	00d73023          	0xd73023
    1878:	02f53823          	0x2f53823
    187c:	02f53423          	0x2f53423
    1880:	00008067          	ret
    1884:	fc010113          	addi	sp,sp,-64
    1888:	02813823          	0x2813823
    188c:	02913423          	0x2913423
    1890:	03213023          	0x3213023
    1894:	01313c23          	0x1313c23
    1898:	01413823          	0x1413823
    189c:	01513423          	0x1513423
    18a0:	02113c23          	0x2113c23
    18a4:	00050413          	mv	s0,a0
    18a8:	00058a93          	mv	s5,a1
    18ac:	00060a13          	mv	s4,a2
    18b0:	00068993          	mv	s3,a3
    18b4:	00070913          	mv	s2,a4
    18b8:	00078493          	mv	s1,a5
    18bc:	00051e63          	bnez	a0,0x18d8
    18c0:	0c900613          	li	a2,201
    18c4:	0000c597          	auipc	a1,0xc
    18c8:	e3458593          	addi	a1,a1,-460 # 0xd6f8
    18cc:	0000c517          	auipc	a0,0xc
    18d0:	d6450513          	addi	a0,a0,-668 # 0xd630
    18d4:	6c0010ef          	jal	ra,0x2f94
    18d8:	000a8613          	mv	a2,s5
    18dc:	00040513          	mv	a0,s0
    18e0:	00a00593          	li	a1,10
    18e4:	400020ef          	jal	ra,0x3ce4
    18e8:	02840793          	addi	a5,s0,40
    18ec:	ffe4f493          	andi	s1,s1,-2
    18f0:	00940aa3          	sb	s1,21(s0)
    18f4:	03443c23          	0x3443c23
    18f8:	05343023          	0x5343023
    18fc:	05242423          	sw	s2,72(s0)
    1900:	03813083          	0x3813083
    1904:	04042623          	sw	zero,76(s0)
    1908:	02f43823          	0x2f43823
    190c:	02f43423          	0x2f43423
    1910:	03013403          	0x3013403
    1914:	02813483          	0x2813483
    1918:	02013903          	0x2013903
    191c:	01813983          	0x1813983
    1920:	01013a03          	0x1013a03
    1924:	00813a83          	0x813a83
    1928:	04010113          	addi	sp,sp,64
    192c:	00008067          	ret
    1930:	fe010113          	addi	sp,sp,-32
    1934:	00813823          	0x813823
    1938:	00113c23          	0x113c23
    193c:	00913423          	0x913423
    1940:	00050413          	mv	s0,a0
    1944:	00051e63          	bnez	a0,0x1960
    1948:	0de00613          	li	a2,222
    194c:	0000c597          	auipc	a1,0xc
    1950:	dbc58593          	addi	a1,a1,-580 # 0xd708
    1954:	0000c517          	auipc	a0,0xc
    1958:	cdc50513          	addi	a0,a0,-804 # 0xd630
    195c:	638010ef          	jal	ra,0x2f94
    1960:	00040513          	mv	a0,s0
    1964:	700020ef          	jal	ra,0x4064
    1968:	00a00793          	li	a5,10
    196c:	00f50e63          	beq	a0,a5,0x1988
    1970:	0df00613          	li	a2,223
    1974:	0000c597          	auipc	a1,0xc
    1978:	d9458593          	addi	a1,a1,-620 # 0xd708
    197c:	0000c517          	auipc	a0,0xc
    1980:	ccc50513          	addi	a0,a0,-820 # 0xd648
    1984:	610010ef          	jal	ra,0x2f94
    1988:	00040513          	mv	a0,s0
    198c:	694020ef          	jal	ra,0x4020
    1990:	00051e63          	bnez	a0,0x19ac
    1994:	0e000613          	li	a2,224
    1998:	0000c597          	auipc	a1,0xc
    199c:	d7058593          	addi	a1,a1,-656 # 0xd708
    19a0:	0000c517          	auipc	a0,0xc
    19a4:	ce850513          	addi	a0,a0,-792 # 0xd688
    19a8:	5ec010ef          	jal	ra,0x2f94
    19ac:	ea4fe0ef          	jal	ra,0x50
    19b0:	00050493          	mv	s1,a0
    19b4:	00040513          	mv	a0,s0
    19b8:	eadff0ef          	jal	ra,0x1864
    19bc:	01544783          	lbu	a5,21(s0)
    19c0:	00048513          	mv	a0,s1
    19c4:	ffe7f793          	andi	a5,a5,-2
    19c8:	00f40aa3          	sb	a5,21(s0)
    19cc:	e8cfe0ef          	jal	ra,0x58
    19d0:	00040513          	mv	a0,s0
    19d4:	424020ef          	jal	ra,0x3df8
    19d8:	01813083          	0x1813083
    19dc:	01013403          	0x1013403
    19e0:	00813483          	0x813483
    19e4:	00000513          	li	a0,0
    19e8:	02010113          	addi	sp,sp,32
    19ec:	00008067          	ret
    19f0:	fe010113          	addi	sp,sp,-32
    19f4:	00813823          	0x813823
    19f8:	00113c23          	0x113c23
    19fc:	00913423          	0x913423
    1a00:	00050413          	mv	s0,a0
    1a04:	00051e63          	bnez	a0,0x1a20
    1a08:	14500613          	li	a2,325
    1a0c:	0000c597          	auipc	a1,0xc
    1a10:	d0c58593          	addi	a1,a1,-756 # 0xd718
    1a14:	0000c517          	auipc	a0,0xc
    1a18:	c1c50513          	addi	a0,a0,-996 # 0xd630
    1a1c:	578010ef          	jal	ra,0x2f94
    1a20:	00040513          	mv	a0,s0
    1a24:	640020ef          	jal	ra,0x4064
    1a28:	00a00793          	li	a5,10
    1a2c:	00f50e63          	beq	a0,a5,0x1a48
    1a30:	14600613          	li	a2,326
    1a34:	0000c597          	auipc	a1,0xc
    1a38:	ce458593          	addi	a1,a1,-796 # 0xd718
    1a3c:	0000c517          	auipc	a0,0xc
    1a40:	c0c50513          	addi	a0,a0,-1012 # 0xd648
    1a44:	550010ef          	jal	ra,0x2f94
    1a48:	e08fe0ef          	jal	ra,0x50
    1a4c:	00050493          	mv	s1,a0
    1a50:	00040513          	mv	a0,s0
    1a54:	e11ff0ef          	jal	ra,0x1864
    1a58:	01544783          	lbu	a5,21(s0)
    1a5c:	ffe7f793          	andi	a5,a5,-2
    1a60:	00f40aa3          	sb	a5,21(s0)
    1a64:	00018797          	auipc	a5,0x18
    1a68:	82c7b783          	0x82c7b783
    1a6c:	00078663          	beqz	a5,0x1a78
    1a70:	00040513          	mv	a0,s0
    1a74:	000780e7          	jalr	a5 # 0x19a64
    1a78:	04842703          	lw	a4,72(s0)
    1a7c:	800007b7          	lui	a5,0x80000
    1a80:	ffe7c793          	xori	a5,a5,-2
    1a84:	00e7fe63          	bgeu	a5,a4,0x1aa0
    1a88:	15500613          	li	a2,341
    1a8c:	0000c597          	auipc	a1,0xc
    1a90:	c8c58593          	addi	a1,a1,-884 # 0xd718
    1a94:	0000c517          	auipc	a0,0xc
    1a98:	c2450513          	addi	a0,a0,-988 # 0xd6b8
    1a9c:	4f8010ef          	jal	ra,0x2f94
    1aa0:	fa5fe0ef          	jal	ra,0xa44
    1aa4:	04842783          	lw	a5,72(s0)
    1aa8:	01544703          	lbu	a4,21(s0)
    1aac:	00a785bb          	0xa785bb
    1ab0:	04b42623          	sw	a1,76(s0)
    1ab4:	00477713          	andi	a4,a4,4
    1ab8:	00018797          	auipc	a5,0x18
    1abc:	b4078793          	addi	a5,a5,-1216 # 0x195f8
    1ac0:	00071663          	bnez	a4,0x1acc
    1ac4:	00018797          	auipc	a5,0x18
    1ac8:	b4478793          	addi	a5,a5,-1212 # 0x19608
    1acc:	0087b503          	0x87b503
    1ad0:	80000637          	lui	a2,0x80000
    1ad4:	ffe64613          	xori	a2,a2,-2
    1ad8:	0007b703          	0x7b703
    1adc:	08f51a63          	bne	a0,a5,0x1b70
    1ae0:	00017617          	auipc	a2,0x17
    1ae4:	75060613          	addi	a2,a2,1872 # 0x19230
    1ae8:	00062683          	lw	a3,0(a2)
    1aec:	00048513          	mv	a0,s1
    1af0:	0016869b          	0x16869b
    1af4:	00d62023          	sw	a3,0(a2)
    1af8:	02840693          	addi	a3,s0,40
    1afc:	00d73423          	0xd73423
    1b00:	02e43423          	0x2e43423
    1b04:	00d7b023          	0xd7b023
    1b08:	02f43823          	0x2f43823
    1b0c:	01544783          	lbu	a5,21(s0)
    1b10:	0017e793          	ori	a5,a5,1
    1b14:	00f40aa3          	sb	a5,21(s0)
    1b18:	d40fe0ef          	jal	ra,0x58
    1b1c:	01544783          	lbu	a5,21(s0)
    1b20:	0047f793          	andi	a5,a5,4
    1b24:	02078a63          	beqz	a5,0x1b58
    1b28:	0000f717          	auipc	a4,0xf
    1b2c:	67874703          	lbu	a4,1656(a4) # 0x111a0
    1b30:	00100793          	li	a5,1
    1b34:	02f71263          	bne	a4,a5,0x1b58
    1b38:	00018517          	auipc	a0,0x18
    1b3c:	ae050513          	addi	a0,a0,-1312 # 0x19618
    1b40:	06854783          	lbu	a5,104(a0)
    1b44:	00200713          	li	a4,2
    1b48:	0077f793          	andi	a5,a5,7
    1b4c:	00e79663          	bne	a5,a4,0x1b58
    1b50:	49d010ef          	jal	ra,0x37ec
    1b54:	cddfe0ef          	jal	ra,0x830
    1b58:	01813083          	0x1813083
    1b5c:	01013403          	0x1013403
    1b60:	00813483          	0x813483
    1b64:	00000513          	li	a0,0
    1b68:	02010113          	addi	sp,sp,32
    1b6c:	00008067          	ret
    1b70:	02472683          	lw	a3,36(a4)
    1b74:	00d58663          	beq	a1,a3,0x1b80
    1b78:	40b686bb          	0x40b686bb
    1b7c:	f6d672e3          	bgeu	a2,a3,0x1ae0
    1b80:	00070793          	mv	a5,a4
    1b84:	f55ff06f          	j	0x1ad8
    1b88:	fe010113          	addi	sp,sp,-32
    1b8c:	00813823          	0x813823
    1b90:	00113c23          	0x113c23
    1b94:	00913423          	0x913423
    1b98:	00050413          	mv	s0,a0
    1b9c:	00051e63          	bnez	a0,0x1bb8
    1ba0:	1bb00613          	li	a2,443
    1ba4:	0000c597          	auipc	a1,0xc
    1ba8:	b8458593          	addi	a1,a1,-1148 # 0xd728
    1bac:	0000c517          	auipc	a0,0xc
    1bb0:	a8450513          	addi	a0,a0,-1404 # 0xd630
    1bb4:	3e0010ef          	jal	ra,0x2f94
    1bb8:	00040513          	mv	a0,s0
    1bbc:	4a8020ef          	jal	ra,0x4064
    1bc0:	00a00793          	li	a5,10
    1bc4:	00f50e63          	beq	a0,a5,0x1be0
    1bc8:	1bc00613          	li	a2,444
    1bcc:	0000c597          	auipc	a1,0xc
    1bd0:	b5c58593          	addi	a1,a1,-1188 # 0xd728
    1bd4:	0000c517          	auipc	a0,0xc
    1bd8:	a7450513          	addi	a0,a0,-1420 # 0xd648
    1bdc:	3b8010ef          	jal	ra,0x2f94
    1be0:	01544783          	lbu	a5,21(s0)
    1be4:	fff00513          	li	a0,-1
    1be8:	0017f793          	andi	a5,a5,1
    1bec:	04078063          	beqz	a5,0x1c2c
    1bf0:	00017797          	auipc	a5,0x17
    1bf4:	6987b783          	0x6987b783
    1bf8:	00078663          	beqz	a5,0x1c04
    1bfc:	00040513          	mv	a0,s0
    1c00:	000780e7          	jalr	a5 # 0x18bf0
    1c04:	c4cfe0ef          	jal	ra,0x50
    1c08:	00050493          	mv	s1,a0
    1c0c:	00040513          	mv	a0,s0
    1c10:	c55ff0ef          	jal	ra,0x1864
    1c14:	01544783          	lbu	a5,21(s0)
    1c18:	00048513          	mv	a0,s1
    1c1c:	ffe7f793          	andi	a5,a5,-2
    1c20:	00f40aa3          	sb	a5,21(s0)
    1c24:	c34fe0ef          	jal	ra,0x58
    1c28:	00000513          	li	a0,0
    1c2c:	01813083          	0x1813083
    1c30:	01013403          	0x1013403
    1c34:	00813483          	0x813483
    1c38:	02010113          	addi	sp,sp,32
    1c3c:	00008067          	ret
    1c40:	fe010113          	addi	sp,sp,-32
    1c44:	00813823          	0x813823
    1c48:	00913423          	0x913423
    1c4c:	01213023          	0x1213023
    1c50:	00113c23          	0x113c23
    1c54:	00050413          	mv	s0,a0
    1c58:	00058493          	mv	s1,a1
    1c5c:	00060913          	mv	s2,a2
    1c60:	00051e63          	bnez	a0,0x1c7c
    1c64:	1df00613          	li	a2,479
    1c68:	0000c597          	auipc	a1,0xc
    1c6c:	ad058593          	addi	a1,a1,-1328 # 0xd738
    1c70:	0000c517          	auipc	a0,0xc
    1c74:	9c050513          	addi	a0,a0,-1600 # 0xd630
    1c78:	31c010ef          	jal	ra,0x2f94
    1c7c:	00040513          	mv	a0,s0
    1c80:	3e4020ef          	jal	ra,0x4064
    1c84:	00a00793          	li	a5,10
    1c88:	00f50e63          	beq	a0,a5,0x1ca4
    1c8c:	1e000613          	li	a2,480
    1c90:	0000c597          	auipc	a1,0xc
    1c94:	aa858593          	addi	a1,a1,-1368 # 0xd738
    1c98:	0000c517          	auipc	a0,0xc
    1c9c:	9b050513          	addi	a0,a0,-1616 # 0xd648
    1ca0:	2f4010ef          	jal	ra,0x2f94
    1ca4:	bacfe0ef          	jal	ra,0x50
    1ca8:	00400793          	li	a5,4
    1cac:	0297ea63          	bltu	a5,s1,0x1ce0
    1cb0:	0000c717          	auipc	a4,0xc
    1cb4:	a2c70713          	addi	a4,a4,-1492 # 0xd6dc
    1cb8:	00249493          	slli	s1,s1,0x2
    1cbc:	00e484b3          	add	s1,s1,a4
    1cc0:	0004a783          	lw	a5,0(s1)
    1cc4:	00e787b3          	add	a5,a5,a4
    1cc8:	00078067          	jr	a5
    1ccc:	04842783          	lw	a5,72(s0)
    1cd0:	00f92023          	sw	a5,0(s2) # 0x19734
    1cd4:	00c0006f          	j	0x1ce0
    1cd8:	00092783          	lw	a5,0(s2)
    1cdc:	04f42423          	sw	a5,72(s0)
    1ce0:	b78fe0ef          	jal	ra,0x58
    1ce4:	01813083          	0x1813083
    1ce8:	01013403          	0x1013403
    1cec:	00813483          	0x813483
    1cf0:	00013903          	0x13903
    1cf4:	00000513          	li	a0,0
    1cf8:	02010113          	addi	sp,sp,32
    1cfc:	00008067          	ret
    1d00:	01544783          	lbu	a5,21(s0)
    1d04:	ffd7f793          	andi	a5,a5,-3
    1d08:	00f40aa3          	sb	a5,21(s0)
    1d0c:	fd5ff06f          	j	0x1ce0
    1d10:	01544783          	lbu	a5,21(s0)
    1d14:	0027e793          	ori	a5,a5,2
    1d18:	ff1ff06f          	j	0x1d08
    1d1c:	01544783          	lbu	a5,21(s0)
    1d20:	0017f793          	andi	a5,a5,1
    1d24:	00078663          	beqz	a5,0x1d30
    1d28:	00100793          	li	a5,1
    1d2c:	fa5ff06f          	j	0x1cd0
    1d30:	00092023          	sw	zero,0(s2)
    1d34:	fadff06f          	j	0x1ce0
    1d38:	f9010113          	addi	sp,sp,-112
    1d3c:	05213823          	0x5213823
    1d40:	00010913          	mv	s2,sp
    1d44:	06113423          	0x6113423
    1d48:	04913c23          	0x4913c23
    1d4c:	05413023          	0x5413023
    1d50:	03513c23          	0x3513c23
    1d54:	03613823          	0x3613823
    1d58:	03713423          	0x3713423
    1d5c:	03813023          	0x3813023
    1d60:	01913c23          	0x1913c23
    1d64:	06813023          	0x6813023
    1d68:	05313423          	0x5313423
    1d6c:	01213423          	0x1213423
    1d70:	01213023          	0x1213023
    1d74:	cd1fe0ef          	jal	ra,0xa44
    1d78:	0005049b          	0x5049b
    1d7c:	80000ab7          	lui	s5,0x80000
    1d80:	ad0fe0ef          	jal	ra,0x50
    1d84:	00050a13          	mv	s4,a0
    1d88:	00018b17          	auipc	s6,0x18
    1d8c:	880b0b13          	addi	s6,s6,-1920 # 0x19608
    1d90:	ffeaca93          	xori	s5,s5,-2
    1d94:	00017b97          	auipc	s7,0x17
    1d98:	4a4b8b93          	addi	s7,s7,1188 # 0x19238
    1d9c:	00017c17          	auipc	s8,0x17
    1da0:	4a4c0c13          	addi	s8,s8,1188 # 0x19240
    1da4:	00300c93          	li	s9,3
    1da8:	000b3403          	0xb3403
    1dac:	05641063          	bne	s0,s6,0x1dec
    1db0:	000a0513          	mv	a0,s4
    1db4:	aa4fe0ef          	jal	ra,0x58
    1db8:	06813083          	0x6813083
    1dbc:	06013403          	0x6013403
    1dc0:	05813483          	0x5813483
    1dc4:	05013903          	0x5013903
    1dc8:	04813983          	0x4813983
    1dcc:	04013a03          	0x4013a03
    1dd0:	03813a83          	0x3813a83
    1dd4:	03013b03          	0x3013b03
    1dd8:	02813b83          	0x2813b83
    1ddc:	02013c03          	0x2013c03
    1de0:	01813c83          	0x1813c83
    1de4:	07010113          	addi	sp,sp,112
    1de8:	00008067          	ret
    1dec:	02442503          	lw	a0,36(s0)
    1df0:	fd840993          	addi	s3,s0,-40
    1df4:	40a484bb          	0x40a484bb
    1df8:	fa9aece3          	bltu	s5,s1,0x1db0
    1dfc:	000bb783          	0xbb783
    1e00:	00078663          	beqz	a5,0x1e0c
    1e04:	00098513          	mv	a0,s3
    1e08:	000780e7          	jalr	a5
    1e0c:	00098513          	mv	a0,s3
    1e10:	a55ff0ef          	jal	ra,0x1864
    1e14:	fed44783          	lbu	a5,-19(s0)
    1e18:	0027f713          	andi	a4,a5,2
    1e1c:	00071663          	bnez	a4,0x1e28
    1e20:	ffe7f793          	andi	a5,a5,-2
    1e24:	fef406a3          	sb	a5,-19(s0)
    1e28:	00013783          	0x13783
    1e2c:	01843503          	0x1843503
    1e30:	0087b423          	0x87b423
    1e34:	00f43023          	0xf43023
    1e38:	01043783          	0x1043783
    1e3c:	00813023          	0x813023
    1e40:	01243423          	0x1243423
    1e44:	000780e7          	jalr	a5
    1e48:	bfdfe0ef          	jal	ra,0xa44
    1e4c:	000c3783          	0xc3783
    1e50:	0005049b          	0x5049b
    1e54:	00078663          	beqz	a5,0x1e60
    1e58:	00098513          	mv	a0,s3
    1e5c:	000780e7          	jalr	a5
    1e60:	00013783          	0x13783
    1e64:	f52782e3          	beq	a5,s2,0x1da8
    1e68:	00043703          	0x43703
    1e6c:	00843783          	0x843783
    1e70:	00f73423          	0xf73423
    1e74:	00e7b023          	0xe7b023
    1e78:	fed44783          	lbu	a5,-19(s0)
    1e7c:	00843423          	0x843423
    1e80:	00843023          	0x843023
    1e84:	0037f713          	andi	a4,a5,3
    1e88:	f39710e3          	bne	a4,s9,0x1da8
    1e8c:	ffe7f793          	andi	a5,a5,-2
    1e90:	fef406a3          	sb	a5,-19(s0)
    1e94:	00098513          	mv	a0,s3
    1e98:	b59ff0ef          	jal	ra,0x19f0
    1e9c:	f0dff06f          	j	0x1da8
    1ea0:	f9010113          	addi	sp,sp,-112
    1ea4:	05213823          	0x5213823
    1ea8:	00010913          	mv	s2,sp
    1eac:	04913c23          	0x4913c23
    1eb0:	05413023          	0x5413023
    1eb4:	03513c23          	0x3513c23
    1eb8:	03613823          	0x3613823
    1ebc:	03713423          	0x3713423
    1ec0:	03813023          	0x3813023
    1ec4:	01913c23          	0x1913c23
    1ec8:	01a13823          	0x1a13823
    1ecc:	06113423          	0x6113423
    1ed0:	06813023          	0x6813023
    1ed4:	05313423          	0x5313423
    1ed8:	01213423          	0x1213423
    1edc:	01213023          	0x1213023
    1ee0:	80000a37          	lui	s4,0x80000
    1ee4:	96cfe0ef          	jal	ra,0x50
    1ee8:	00050493          	mv	s1,a0
    1eec:	00017a97          	auipc	s5,0x17
    1ef0:	70ca8a93          	addi	s5,s5,1804 # 0x195f8
    1ef4:	ffea4a13          	xori	s4,s4,-2
    1ef8:	00017b17          	auipc	s6,0x17
    1efc:	340b0b13          	addi	s6,s6,832 # 0x19238
    1f00:	00017b97          	auipc	s7,0x17
    1f04:	340b8b93          	addi	s7,s7,832 # 0x19240
    1f08:	0000fc17          	auipc	s8,0xf
    1f0c:	298c0c13          	addi	s8,s8,664 # 0x111a0
    1f10:	00100c93          	li	s9,1
    1f14:	00300d13          	li	s10,3
    1f18:	000ab403          	0xab403
    1f1c:	01540c63          	beq	s0,s5,0x1f34
    1f20:	b25fe0ef          	jal	ra,0xa44
    1f24:	02442783          	lw	a5,36(s0)
    1f28:	fd840993          	addi	s3,s0,-40
    1f2c:	40f5053b          	0x40f5053b
    1f30:	04aa7263          	bgeu	s4,a0,0x1f74
    1f34:	00048513          	mv	a0,s1
    1f38:	920fe0ef          	jal	ra,0x58
    1f3c:	06813083          	0x6813083
    1f40:	06013403          	0x6013403
    1f44:	05813483          	0x5813483
    1f48:	05013903          	0x5013903
    1f4c:	04813983          	0x4813983
    1f50:	04013a03          	0x4013a03
    1f54:	03813a83          	0x3813a83
    1f58:	03013b03          	0x3013b03
    1f5c:	02813b83          	0x2813b83
    1f60:	02013c03          	0x2013c03
    1f64:	01813c83          	0x1813c83
    1f68:	01013d03          	0x1013d03
    1f6c:	07010113          	addi	sp,sp,112
    1f70:	00008067          	ret
    1f74:	000b3783          	0xb3783
    1f78:	00078663          	beqz	a5,0x1f84
    1f7c:	00098513          	mv	a0,s3
    1f80:	000780e7          	jalr	a5
    1f84:	00098513          	mv	a0,s3
    1f88:	8ddff0ef          	jal	ra,0x1864
    1f8c:	fed44783          	lbu	a5,-19(s0)
    1f90:	0027f713          	andi	a4,a5,2
    1f94:	00071663          	bnez	a4,0x1fa0
    1f98:	ffe7f793          	andi	a5,a5,-2
    1f9c:	fef406a3          	sb	a5,-19(s0)
    1fa0:	00013783          	0x13783
    1fa4:	00048513          	mv	a0,s1
    1fa8:	0087b423          	0x87b423
    1fac:	00f43023          	0xf43023
    1fb0:	01243423          	0x1243423
    1fb4:	0000f797          	auipc	a5,0xf
    1fb8:	1e078623          	sb	zero,492(a5) # 0x111a0
    1fbc:	00813023          	0x813023
    1fc0:	898fe0ef          	jal	ra,0x58
    1fc4:	01043783          	0x1043783
    1fc8:	01843503          	0x1843503
    1fcc:	000780e7          	jalr	a5
    1fd0:	000bb783          	0xbb783
    1fd4:	00078663          	beqz	a5,0x1fe0
    1fd8:	00098513          	mv	a0,s3
    1fdc:	000780e7          	jalr	a5
    1fe0:	870fe0ef          	jal	ra,0x50
    1fe4:	00013783          	0x13783
    1fe8:	019c0023          	sb	s9,0(s8)
    1fec:	00050493          	mv	s1,a0
    1ff0:	f32784e3          	beq	a5,s2,0x1f18
    1ff4:	00043703          	0x43703
    1ff8:	00843783          	0x843783
    1ffc:	00f73423          	0xf73423
    2000:	00e7b023          	0xe7b023
    2004:	fed44783          	lbu	a5,-19(s0)
    2008:	00843423          	0x843423
    200c:	00843023          	0x843023
    2010:	0037f713          	andi	a4,a5,3
    2014:	f1a712e3          	bne	a4,s10,0x1f18
    2018:	ffe7f793          	andi	a5,a5,-2
    201c:	fef406a3          	sb	a5,-19(s0)
    2020:	00098513          	mv	a0,s3
    2024:	9cdff0ef          	jal	ra,0x19f0
    2028:	ef1ff06f          	j	0x1f18
    202c:	fd010113          	addi	sp,sp,-48
    2030:	00913c23          	0x913c23
    2034:	800004b7          	lui	s1,0x80000
    2038:	01213823          	0x1213823
    203c:	01313423          	0x1313423
    2040:	02113423          	0x2113423
    2044:	02813023          	0x2813023
    2048:	00017917          	auipc	s2,0x17
    204c:	5b090913          	addi	s2,s2,1456 # 0x195f8
    2050:	fff00993          	li	s3,-1
    2054:	ffe4c493          	xori	s1,s1,-2
    2058:	ff9fd0ef          	jal	ra,0x50
    205c:	00093783          	0x93783
    2060:	fff00413          	li	s0,-1
    2064:	01278463          	beq	a5,s2,0x206c
    2068:	0247a403          	lw	s0,36(a5)
    206c:	fedfd0ef          	jal	ra,0x58
    2070:	01341c63          	bne	s0,s3,0x2088
    2074:	2f4010ef          	jal	ra,0x3368
    2078:	588010ef          	jal	ra,0x3600
    207c:	fb4fe0ef          	jal	ra,0x830
    2080:	e21ff0ef          	jal	ra,0x1ea0
    2084:	fd5ff06f          	j	0x2058
    2088:	9bdfe0ef          	jal	ra,0xa44
    208c:	40a4053b          	0x40a4053b
    2090:	fea4e8e3          	bltu	s1,a0,0x2080
    2094:	738010ef          	jal	ra,0x37cc
    2098:	fe9ff06f          	j	0x2080
    209c:	00017797          	auipc	a5,0x17
    20a0:	56c78793          	addi	a5,a5,1388 # 0x19608
    20a4:	00f7b423          	0xf7b423
    20a8:	00f7b023          	0xf7b023
    20ac:	00008067          	ret
    20b0:	ff010113          	addi	sp,sp,-16
    20b4:	00813023          	0x813023
    20b8:	00113423          	0x113423
    20bc:	00017797          	auipc	a5,0x17
    20c0:	53c78793          	addi	a5,a5,1340 # 0x195f8
    20c4:	00017417          	auipc	s0,0x17
    20c8:	55440413          	addi	s0,s0,1364 # 0x19618
    20cc:	00f7b423          	0xf7b423
    20d0:	00f7b023          	0xf7b023
    20d4:	00040513          	mv	a0,s0
    20d8:	00a00893          	li	a7,10
    20dc:	00400813          	li	a6,4
    20e0:	000047b7          	lui	a5,0x4
    20e4:	00017717          	auipc	a4,0x17
    20e8:	61c70713          	addi	a4,a4,1564 # 0x19700
    20ec:	00000693          	li	a3,0
    20f0:	00000617          	auipc	a2,0x0
    20f4:	f3c60613          	addi	a2,a2,-196 # 0x202c
    20f8:	0000b597          	auipc	a1,0xb
    20fc:	5f858593          	addi	a1,a1,1528 # 0xd6f0
    2100:	190010ef          	jal	ra,0x3290
    2104:	00040513          	mv	a0,s0
    2108:	00013403          	0x13403
    210c:	00813083          	0x813083
    2110:	01010113          	addi	sp,sp,16
    2114:	7b00106f          	j	0x38c4
    2118:	f7010113          	addi	sp,sp,-144
    211c:	08813023          	0x8813023
    2120:	06913c23          	0x6913c23
    2124:	07313423          	0x7313423
    2128:	05513c23          	0x5513c23
    212c:	05713423          	0x5713423
    2130:	05813023          	0x5813023
    2134:	03b13423          	0x3b13423
    2138:	00078c13          	mv	s8,a5
    213c:	08113423          	0x8113423
    2140:	07213823          	0x7213823
    2144:	07413023          	0x7413023
    2148:	05613823          	0x5613823
    214c:	03913c23          	0x3913c23
    2150:	03a13823          	0x3a13823
    2154:	04087793          	andi	a5,a6,64
    2158:	00070b93          	mv	s7,a4
    215c:	00050413          	mv	s0,a0
    2160:	00058a93          	mv	s5,a1
    2164:	00060493          	mv	s1,a2
    2168:	00068d93          	mv	s11,a3
    216c:	00080993          	mv	s3,a6
    2170:	0000c717          	auipc	a4,0xc
    2174:	82870713          	addi	a4,a4,-2008 # 0xd998
    2178:	00078663          	beqz	a5,0x2184
    217c:	0000c717          	auipc	a4,0xc
    2180:	80470713          	addi	a4,a4,-2044 # 0xd980
    2184:	0109f793          	andi	a5,s3,16
    2188:	0007881b          	0x7881b
    218c:	08078063          	beqz	a5,0x220c
    2190:	ffe9f993          	andi	s3,s3,-2
    2194:	02000c93          	li	s9,32
    2198:	0029f793          	andi	a5,s3,2
    219c:	12078863          	beqz	a5,0x22cc
    21a0:	0804d063          	bgez	s1,0x2220
    21a4:	409004b3          	neg	s1,s1
    21a8:	02d00a13          	li	s4,45
    21ac:	01010d13          	addi	s10,sp,16
    21b0:	00000913          	li	s2,0
    21b4:	00a00693          	li	a3,10
    21b8:	10dd9e63          	bne	s11,a3,0x22d4
    21bc:	00a00593          	li	a1,10
    21c0:	00048513          	mv	a0,s1
    21c4:	00e13423          	0xe13423
    21c8:	01013023          	0x1013023
    21cc:	868fe0ef          	jal	ra,0x234
    21d0:	00050b1b          	0x50b1b
    21d4:	00a00593          	li	a1,10
    21d8:	00048513          	mv	a0,s1
    21dc:	810fe0ef          	jal	ra,0x1ec
    21e0:	00013803          	0x13803
    21e4:	00813703          	0x813703
    21e8:	00050493          	mv	s1,a0
    21ec:	00a00693          	li	a3,10
    21f0:	01670b33          	add	s6,a4,s6
    21f4:	000b4783          	lbu	a5,0(s6)
    21f8:	0019091b          	0x19091b
    21fc:	001d0d13          	addi	s10,s10,1
    2200:	fefd0fa3          	sb	a5,-1(s10)
    2204:	fa049ae3          	bnez	s1,0x21b8
    2208:	0400006f          	j	0x2248
    220c:	0019f793          	andi	a5,s3,1
    2210:	02000c93          	li	s9,32
    2214:	f80782e3          	beqz	a5,0x2198
    2218:	03000c93          	li	s9,48
    221c:	f7dff06f          	j	0x2198
    2220:	0049f793          	andi	a5,s3,4
    2224:	02b00a13          	li	s4,43
    2228:	00079863          	bnez	a5,0x2238
    222c:	0089fa13          	andi	s4,s3,8
    2230:	01403a33          	snez	s4,s4
    2234:	005a1a13          	slli	s4,s4,0x5
    2238:	f6049ae3          	bnez	s1,0x21ac
    223c:	03000793          	li	a5,48
    2240:	00f10823          	sb	a5,16(sp)
    2244:	00100913          	li	s2,1
    2248:	00090713          	mv	a4,s2
    224c:	01895463          	bge	s2,s8,0x2254
    2250:	000c0713          	mv	a4,s8
    2254:	0119f993          	andi	s3,s3,17
    2258:	0007079b          	0x7079b
    225c:	40eb86bb          	0x40eb86bb
    2260:	04099063          	bnez	s3,0x22a0
    2264:	000a0663          	beqz	s4,0x2270
    2268:	00d05463          	blez	a3,0x2270
    226c:	fff6869b          	0xfff6869b
    2270:	00040713          	mv	a4,s0
    2274:	008685bb          	0x8685bb
    2278:	02000513          	li	a0,32
    227c:	40e5863b          	0x40e5863b
    2280:	06c04063          	bgtz	a2,0x22e0
    2284:	00068713          	mv	a4,a3
    2288:	0006d463          	bgez	a3,0x2290
    228c:	00000713          	li	a4,0
    2290:	0007061b          	0x7061b
    2294:	fff6869b          	0xfff6869b
    2298:	00c40433          	add	s0,s0,a2
    229c:	40e686bb          	0x40e686bb
    22a0:	000a0a63          	beqz	s4,0x22b4
    22a4:	01547463          	bgeu	s0,s5,0x22ac
    22a8:	01440023          	sb	s4,0(s0)
    22ac:	fff6869b          	0xfff6869b
    22b0:	00140413          	addi	s0,s0,1
    22b4:	06080863          	beqz	a6,0x2324
    22b8:	00040713          	mv	a4,s0
    22bc:	0007851b          	0x7851b
    22c0:	00f405bb          	0xf405bb
    22c4:	03000813          	li	a6,48
    22c8:	0740006f          	j	0x233c
    22cc:	00000a13          	li	s4,0
    22d0:	f69ff06f          	j	0x2238
    22d4:	00f4fb13          	andi	s6,s1,15
    22d8:	0044d493          	srli	s1,s1,0x4
    22dc:	f15ff06f          	j	0x21f0
    22e0:	01577463          	bgeu	a4,s5,0x22e8
    22e4:	00a70023          	sb	a0,0(a4)
    22e8:	00170713          	addi	a4,a4,1
    22ec:	f91ff06f          	j	0x227c
    22f0:	01577463          	bgeu	a4,s5,0x22f8
    22f4:	01970023          	sb	s9,0(a4)
    22f8:	00170713          	addi	a4,a4,1
    22fc:	40e5863b          	0x40e5863b
    2300:	fec048e3          	bgtz	a2,0x22f0
    2304:	00068713          	mv	a4,a3
    2308:	0006d463          	bgez	a3,0x2310
    230c:	00000713          	li	a4,0
    2310:	0007061b          	0x7061b
    2314:	fff6869b          	0xfff6869b
    2318:	00c40433          	add	s0,s0,a2
    231c:	40e686bb          	0x40e686bb
    2320:	f99ff06f          	j	0x22b8
    2324:	00040713          	mv	a4,s0
    2328:	00d405bb          	0xd405bb
    232c:	fd1ff06f          	j	0x22fc
    2330:	01577463          	bgeu	a4,s5,0x2338
    2334:	01070023          	sb	a6,0(a4)
    2338:	00170713          	addi	a4,a4,1
    233c:	40e5863b          	0x40e5863b
    2340:	fec948e3          	blt	s2,a2,0x2330
    2344:	00000713          	li	a4,0
    2348:	0127c863          	blt	a5,s2,0x2358
    234c:	4125053b          	0x4125053b
    2350:	02051713          	slli	a4,a0,0x20
    2354:	02075713          	srli	a4,a4,0x20
    2358:	00e40433          	add	s0,s0,a4
    235c:	0009079b          	0x9079b
    2360:	00f05463          	blez	a5,0x2368
    2364:	000c1a63          	bnez	s8,0x2378
    2368:	00040793          	mv	a5,s0
    236c:	0086863b          	0x86863b
    2370:	02000593          	li	a1,32
    2374:	0300006f          	j	0x23a4
    2378:	01547a63          	bgeu	s0,s5,0x238c
    237c:	01010793          	addi	a5,sp,16
    2380:	012787b3          	add	a5,a5,s2
    2384:	fff7c783          	lbu	a5,-1(a5) # 0x3fff
    2388:	00f40023          	sb	a5,0(s0)
    238c:	00140413          	addi	s0,s0,1
    2390:	fff90913          	addi	s2,s2,-1
    2394:	fc9ff06f          	j	0x235c
    2398:	0157f463          	bgeu	a5,s5,0x23a0
    239c:	00b78023          	sb	a1,0(a5)
    23a0:	00178793          	addi	a5,a5,1
    23a4:	40f6073b          	0x40f6073b
    23a8:	fee048e3          	bgtz	a4,0x2398
    23ac:	0006851b          	0x6851b
    23b0:	0006d463          	bgez	a3,0x23b8
    23b4:	00000513          	li	a0,0
    23b8:	08813083          	0x8813083
    23bc:	00a40533          	add	a0,s0,a0
    23c0:	08013403          	0x8013403
    23c4:	07813483          	0x7813483
    23c8:	07013903          	0x7013903
    23cc:	06813983          	0x6813983
    23d0:	06013a03          	0x6013a03
    23d4:	05813a83          	0x5813a83
    23d8:	05013b03          	0x5013b03
    23dc:	04813b83          	0x4813b83
    23e0:	04013c03          	0x4013c03
    23e4:	03813c83          	0x3813c83
    23e8:	03013d03          	0x3013d03
    23ec:	02813d83          	0x2813d83
    23f0:	09010113          	addi	sp,sp,144
    23f4:	00008067          	ret
    23f8:	ff010113          	addi	sp,sp,-16
    23fc:	00813023          	0x813023
    2400:	00113423          	0x113423
    2404:	00050413          	mv	s0,a0
    2408:	4d0020ef          	jal	ra,0x48d8
    240c:	00050e63          	beqz	a0,0x2428
    2410:	00017797          	auipc	a5,0x17
    2414:	e287ac23          	sw	s0,-456(a5) # 0x19248
    2418:	00813083          	0x813083
    241c:	00013403          	0x13403
    2420:	01010113          	addi	sp,sp,16
    2424:	00008067          	ret
    2428:	741000ef          	jal	ra,0x3368
    242c:	fe0502e3          	beqz	a0,0x2410
    2430:	06853023          	0x6853023
    2434:	fe5ff06f          	j	0x2418
    2438:	00700713          	li	a4,7
    243c:	00050793          	mv	a5,a0
    2440:	00c77663          	bgeu	a4,a2,0x244c
    2444:	00757713          	andi	a4,a0,7
    2448:	00070863          	beqz	a4,0x2458
    244c:	00c78633          	add	a2,a5,a2
    2450:	08c79463          	bne	a5,a2,0x24d8
    2454:	00008067          	ret
    2458:	00800793          	li	a5,8
    245c:	0ff5f693          	andi	a3,a1,255
    2460:	00871713          	slli	a4,a4,0x8
    2464:	fff7879b          	0xfff7879b
    2468:	00e6e733          	or	a4,a3,a4
    246c:	fe079ae3          	bnez	a5,0x2460
    2470:	00050793          	mv	a5,a0
    2474:	00c508b3          	add	a7,a0,a2
    2478:	01f00693          	li	a3,31
    247c:	40f88833          	sub	a6,a7,a5
    2480:	0306ea63          	bltu	a3,a6,0x24b4
    2484:	01f67693          	andi	a3,a2,31
    2488:	fe067613          	andi	a2,a2,-32
    248c:	00c507b3          	add	a5,a0,a2
    2490:	00078613          	mv	a2,a5
    2494:	00d78333          	add	t1,a5,a3
    2498:	00700813          	li	a6,7
    249c:	40c308b3          	sub	a7,t1,a2
    24a0:	03186663          	bltu	a6,a7,0x24cc
    24a4:	0076f613          	andi	a2,a3,7
    24a8:	0186f693          	andi	a3,a3,24
    24ac:	00d787b3          	add	a5,a5,a3
    24b0:	f9dff06f          	j	0x244c
    24b4:	00e7b023          	0xe7b023
    24b8:	00e7b423          	0xe7b423
    24bc:	00e7b823          	0xe7b823
    24c0:	00e7bc23          	0xe7bc23
    24c4:	02078793          	addi	a5,a5,32
    24c8:	fb5ff06f          	j	0x247c
    24cc:	00860613          	addi	a2,a2,8
    24d0:	fee63c23          	0xfee63c23
    24d4:	fc9ff06f          	j	0x249c
    24d8:	00178793          	addi	a5,a5,1
    24dc:	feb78fa3          	sb	a1,-1(a5)
    24e0:	f71ff06f          	j	0x2450
    24e4:	0006079b          	0x6079b
    24e8:	01f00693          	li	a3,31
    24ec:	00050713          	mv	a4,a0
    24f0:	00f6fa63          	bgeu	a3,a5,0x2504
    24f4:	00a5e733          	or	a4,a1,a0
    24f8:	00777713          	andi	a4,a4,7
    24fc:	08070463          	beqz	a4,0x2584
    2500:	00050713          	mv	a4,a0
    2504:	00000693          	li	a3,0
    2508:	0006861b          	0x6861b
    250c:	0af61263          	bne	a2,a5,0x25b0
    2510:	00008067          	ret
    2514:	0006b303          	0x6b303
    2518:	02068693          	addi	a3,a3,32
    251c:	02080813          	addi	a6,a6,32
    2520:	fe683023          	0xfe683023
    2524:	fe86b303          	0xfe86b303
    2528:	fe683423          	0xfe683423
    252c:	ff06b303          	0xff06b303
    2530:	fe683823          	0xfe683823
    2534:	ff86b303          	0xff86b303
    2538:	fe683c23          	0xfe683c23
    253c:	40de033b          	0x40de033b
    2540:	fc68eae3          	bltu	a7,t1,0x2514
    2544:	0057d69b          	0x57d69b
    2548:	fe07f793          	andi	a5,a5,-32
    254c:	00569693          	slli	a3,a3,0x5
    2550:	40f607bb          	0x40f607bb
    2554:	00d50833          	add	a6,a0,a3
    2558:	00d585b3          	add	a1,a1,a3
    255c:	0007889b          	0x7889b
    2560:	00700693          	li	a3,7
    2564:	40e8863b          	0x40e8863b
    2568:	02c6c863          	blt	a3,a2,0x2598
    256c:	0037d69b          	0x37d69b
    2570:	00369693          	slli	a3,a3,0x3
    2574:	00d80733          	add	a4,a6,a3
    2578:	00d585b3          	add	a1,a1,a3
    257c:	0077f793          	andi	a5,a5,7
    2580:	f85ff06f          	j	0x2504
    2584:	00058693          	mv	a3,a1
    2588:	00050813          	mv	a6,a0
    258c:	00f58e3b          	0xf58e3b
    2590:	01f00893          	li	a7,31
    2594:	fa9ff06f          	j	0x253c
    2598:	00e58633          	add	a2,a1,a4
    259c:	00063303          	0x63303
    25a0:	00e80633          	add	a2,a6,a4
    25a4:	00870713          	addi	a4,a4,8
    25a8:	00663023          	0x663023
    25ac:	fb9ff06f          	j	0x2564
    25b0:	00d58633          	add	a2,a1,a3
    25b4:	00064803          	lbu	a6,0(a2)
    25b8:	00d70633          	add	a2,a4,a3
    25bc:	00168693          	addi	a3,a3,1
    25c0:	01060023          	sb	a6,0(a2)
    25c4:	f45ff06f          	j	0x2508
    25c8:	04a5fa63          	bgeu	a1,a0,0x261c
    25cc:	00c586b3          	add	a3,a1,a2
    25d0:	04d57663          	bgeu	a0,a3,0x261c
    25d4:	fff64593          	not	a1,a2
    25d8:	00000793          	li	a5,0
    25dc:	fff78793          	addi	a5,a5,-1
    25e0:	00f59463          	bne	a1,a5,0x25e8
    25e4:	00008067          	ret
    25e8:	00f68733          	add	a4,a3,a5
    25ec:	00074803          	lbu	a6,0(a4)
    25f0:	00f60733          	add	a4,a2,a5
    25f4:	00e50733          	add	a4,a0,a4
    25f8:	01070023          	sb	a6,0(a4)
    25fc:	fe1ff06f          	j	0x25dc
    2600:	00f58733          	add	a4,a1,a5
    2604:	00074683          	lbu	a3,0(a4)
    2608:	00f50733          	add	a4,a0,a5
    260c:	00178793          	addi	a5,a5,1
    2610:	00d70023          	sb	a3,0(a4)
    2614:	fef616e3          	bne	a2,a5,0x2600
    2618:	00008067          	ret
    261c:	00000793          	li	a5,0
    2620:	ff5ff06f          	j	0x2614
    2624:	00050693          	mv	a3,a0
    2628:	00000713          	li	a4,0
    262c:	00e61663          	bne	a2,a4,0x2638
    2630:	00000513          	li	a0,0
    2634:	0200006f          	j	0x2654
    2638:	00e687b3          	add	a5,a3,a4
    263c:	00e58533          	add	a0,a1,a4
    2640:	0007c783          	lbu	a5,0(a5)
    2644:	00054503          	lbu	a0,0(a0)
    2648:	00170713          	addi	a4,a4,1
    264c:	40a7853b          	0x40a7853b
    2650:	fc050ee3          	beqz	a0,0x262c
    2654:	00008067          	ret
    2658:	04060063          	beqz	a2,0x2698
    265c:	00050793          	mv	a5,a0
    2660:	0005c683          	lbu	a3,0(a1)
    2664:	00158593          	addi	a1,a1,1
    2668:	00178793          	addi	a5,a5,1
    266c:	fed78fa3          	sb	a3,-1(a5)
    2670:	00060713          	mv	a4,a2
    2674:	fff60613          	addi	a2,a2,-1
    2678:	00069e63          	bnez	a3,0x2694
    267c:	00e78733          	add	a4,a5,a4
    2680:	00178793          	addi	a5,a5,1
    2684:	00e79463          	bne	a5,a4,0x268c
    2688:	00008067          	ret
    268c:	fe078fa3          	sb	zero,-1(a5)
    2690:	ff1ff06f          	j	0x2680
    2694:	fc0616e3          	bnez	a2,0x2660
    2698:	00008067          	ret
    269c:	00050693          	mv	a3,a0
    26a0:	00000713          	li	a4,0
    26a4:	00e61663          	bne	a2,a4,0x26b0
    26a8:	00000513          	li	a0,0
    26ac:	02c0006f          	j	0x26d8
    26b0:	00e687b3          	add	a5,a3,a4
    26b4:	0007c803          	lbu	a6,0(a5)
    26b8:	00e587b3          	add	a5,a1,a4
    26bc:	0007c783          	lbu	a5,0(a5)
    26c0:	40f807bb          	0x40f807bb
    26c4:	0187951b          	0x187951b
    26c8:	4185551b          	0x4185551b
    26cc:	00051663          	bnez	a0,0x26d8
    26d0:	00170713          	addi	a4,a4,1
    26d4:	fc0818e3          	bnez	a6,0x26a4
    26d8:	00008067          	ret
    26dc:	00054783          	lbu	a5,0(a0)
    26e0:	0005c703          	lbu	a4,0(a1)
    26e4:	00078463          	beqz	a5,0x26ec
    26e8:	00e78663          	beq	a5,a4,0x26f4
    26ec:	40e7853b          	0x40e7853b
    26f0:	00008067          	ret
    26f4:	00150513          	addi	a0,a0,1
    26f8:	00158593          	addi	a1,a1,1
    26fc:	fe1ff06f          	j	0x26dc
    2700:	00050793          	mv	a5,a0
    2704:	0007c703          	lbu	a4,0(a5)
    2708:	00071663          	bnez	a4,0x2714
    270c:	40a78533          	sub	a0,a5,a0
    2710:	00008067          	ret
    2714:	00178793          	addi	a5,a5,1
    2718:	fedff06f          	j	0x2704
    271c:	fd010113          	addi	sp,sp,-48
    2720:	02813023          	0x2813023
    2724:	00050413          	mv	s0,a0
    2728:	00058513          	mv	a0,a1
    272c:	00913c23          	0x913c23
    2730:	01213823          	0x1213823
    2734:	02113423          	0x2113423
    2738:	01313423          	0x1313423
    273c:	00058913          	mv	s2,a1
    2740:	fc1ff0ef          	jal	ra,0x2700
    2744:	0005049b          	0x5049b
    2748:	00048e63          	beqz	s1,0x2764
    274c:	00040513          	mv	a0,s0
    2750:	fb1ff0ef          	jal	ra,0x2700
    2754:	008509bb          	0x8509bb
    2758:	408987bb          	0x408987bb
    275c:	0297d463          	bge	a5,s1,0x2784
    2760:	00000413          	li	s0,0
    2764:	02813083          	0x2813083
    2768:	00040513          	mv	a0,s0
    276c:	02013403          	0x2013403
    2770:	01813483          	0x1813483
    2774:	01013903          	0x1013903
    2778:	00813983          	0x813983
    277c:	03010113          	addi	sp,sp,48
    2780:	00008067          	ret
    2784:	00048613          	mv	a2,s1
    2788:	00090593          	mv	a1,s2
    278c:	00040513          	mv	a0,s0
    2790:	e95ff0ef          	jal	ra,0x2624
    2794:	fc0508e3          	beqz	a0,0x2764
    2798:	00140413          	addi	s0,s0,1
    279c:	fbdff06f          	j	0x2758
    27a0:	fe010113          	addi	sp,sp,-32
    27a4:	00113c23          	0x113c23
    27a8:	00813823          	0x813823
    27ac:	00a13423          	0xa13423
    27b0:	f51ff0ef          	jal	ra,0x2700
    27b4:	00150613          	addi	a2,a0,1
    27b8:	00060513          	mv	a0,a2
    27bc:	00c13023          	0xc13023
    27c0:	949fe0ef          	jal	ra,0x1108
    27c4:	00050413          	mv	s0,a0
    27c8:	00050863          	beqz	a0,0x27d8
    27cc:	00013603          	0x13603
    27d0:	00813583          	0x813583
    27d4:	d11ff0ef          	jal	ra,0x24e4
    27d8:	01813083          	0x1813083
    27dc:	00040513          	mv	a0,s0
    27e0:	01013403          	0x1013403
    27e4:	02010113          	addi	sp,sp,32
    27e8:	00008067          	ret
    27ec:	fa010113          	addi	sp,sp,-96
    27f0:	04813823          	0x4813823
    27f4:	03613023          	0x3613023
    27f8:	01713c23          	0x1713c23
    27fc:	01813823          	0x1813823
    2800:	04113c23          	0x4113c23
    2804:	04913423          	0x4913423
    2808:	05213023          	0x5213023
    280c:	03313c23          	0x3313c23
    2810:	03413823          	0x3413823
    2814:	03513423          	0x3513423
    2818:	01913423          	0x1913423
    281c:	00b50b33          	add	s6,a0,a1
    2820:	00050b93          	mv	s7,a0
    2824:	00068413          	mv	s0,a3
    2828:	00058c13          	mv	s8,a1
    282c:	00ab7663          	bgeu	s6,a0,0x2838
    2830:	fff54c13          	not	s8,a0
    2834:	fff00b13          	li	s6,-1
    2838:	000104b7          	lui	s1,0x10
    283c:	000b8513          	mv	a0,s7
    2840:	02b00913          	li	s2,43
    2844:	02000993          	li	s3,32
    2848:	02300a13          	li	s4,35
    284c:	fff48493          	addi	s1,s1,-1 # 0xffff
    2850:	0240006f          	j	0x2874
    2854:	02500713          	li	a4,37
    2858:	06e78463          	beq	a5,a4,0x28c0
    285c:	01657463          	bgeu	a0,s6,0x2864
    2860:	00f50023          	sb	a5,0(a0)
    2864:	00150713          	addi	a4,a0,1
    2868:	00060a93          	mv	s5,a2
    286c:	001a8613          	addi	a2,s5,1
    2870:	00070513          	mv	a0,a4
    2874:	00064783          	lbu	a5,0(a2)
    2878:	fc079ee3          	bnez	a5,0x2854
    287c:	000c0663          	beqz	s8,0x2888
    2880:	49657263          	bgeu	a0,s6,0x2d04
    2884:	00050023          	sb	zero,0(a0)
    2888:	05813083          	0x5813083
    288c:	05013403          	0x5013403
    2890:	04813483          	0x4813483
    2894:	04013903          	0x4013903
    2898:	03813983          	0x3813983
    289c:	03013a03          	0x3013a03
    28a0:	02813a83          	0x2813a83
    28a4:	02013b03          	0x2013b03
    28a8:	01013c03          	0x1013c03
    28ac:	00813c83          	0x813c83
    28b0:	4175053b          	0x4175053b
    28b4:	01813b83          	0x1813b83
    28b8:	06010113          	addi	sp,sp,96
    28bc:	00008067          	ret
    28c0:	00000813          	li	a6,0
    28c4:	02d00713          	li	a4,45
    28c8:	03000693          	li	a3,48
    28cc:	0100006f          	j	0x28dc
    28d0:	03279063          	bne	a5,s2,0x28f0
    28d4:	00486813          	ori	a6,a6,4
    28d8:	000a8613          	mv	a2,s5
    28dc:	00164783          	lbu	a5,1(a2)
    28e0:	00160a93          	addi	s5,a2,1
    28e4:	fee796e3          	bne	a5,a4,0x28d0
    28e8:	01086813          	ori	a6,a6,16
    28ec:	fedff06f          	j	0x28d8
    28f0:	01379663          	bne	a5,s3,0x28fc
    28f4:	00886813          	ori	a6,a6,8
    28f8:	fe1ff06f          	j	0x28d8
    28fc:	01479663          	bne	a5,s4,0x2908
    2900:	02086813          	ori	a6,a6,32
    2904:	fd5ff06f          	j	0x28d8
    2908:	00d79663          	bne	a5,a3,0x2914
    290c:	00186813          	ori	a6,a6,1
    2910:	fc9ff06f          	j	0x28d8
    2914:	fd07871b          	0xfd07871b
    2918:	00900693          	li	a3,9
    291c:	06e6e263          	bltu	a3,a4,0x2980
    2920:	00000713          	li	a4,0
    2924:	00900613          	li	a2,9
    2928:	01c0006f          	j	0x2944
    292c:	0027179b          	0x27179b
    2930:	00e7873b          	0xe7873b
    2934:	0017171b          	0x17171b
    2938:	00d7073b          	0xd7073b
    293c:	001a8a93          	addi	s5,s5,1
    2940:	fd07071b          	0xfd07071b
    2944:	000ac683          	lbu	a3,0(s5)
    2948:	fd06879b          	0xfd06879b
    294c:	fef670e3          	bgeu	a2,a5,0x292c
    2950:	000ac603          	lbu	a2,0(s5)
    2954:	02e00693          	li	a3,46
    2958:	fff00793          	li	a5,-1
    295c:	08d61063          	bne	a2,a3,0x29dc
    2960:	001ac783          	lbu	a5,1(s5)
    2964:	00900613          	li	a2,9
    2968:	001a8693          	addi	a3,s5,1
    296c:	fd07859b          	0xfd07859b
    2970:	0cb66863          	bltu	a2,a1,0x2a40
    2974:	00000613          	li	a2,0
    2978:	00900893          	li	a7,9
    297c:	0440006f          	j	0x29c0
    2980:	02a00693          	li	a3,42
    2984:	fff00713          	li	a4,-1
    2988:	fcd794e3          	bne	a5,a3,0x2950
    298c:	00042703          	lw	a4,0(s0)
    2990:	00260a93          	addi	s5,a2,2
    2994:	00840413          	addi	s0,s0,8
    2998:	fa075ce3          	bgez	a4,0x2950
    299c:	40e0073b          	0x40e0073b
    29a0:	01086813          	ori	a6,a6,16
    29a4:	fadff06f          	j	0x2950
    29a8:	0026179b          	0x26179b
    29ac:	00c787bb          	0xc787bb
    29b0:	0017979b          	0x17979b
    29b4:	00b787bb          	0xb787bb
    29b8:	00168693          	addi	a3,a3,1
    29bc:	fd07861b          	0xfd07861b
    29c0:	0006c583          	lbu	a1,0(a3)
    29c4:	fd05879b          	0xfd05879b
    29c8:	fef8f0e3          	bgeu	a7,a5,0x29a8
    29cc:	0006079b          	0x6079b
    29d0:	00065463          	bgez	a2,0x29d8
    29d4:	00000793          	li	a5,0
    29d8:	00068a93          	mv	s5,a3
    29dc:	000ac583          	lbu	a1,0(s5)
    29e0:	06800693          	li	a3,104
    29e4:	0fb5f613          	andi	a2,a1,251
    29e8:	06d61e63          	bne	a2,a3,0x2a64
    29ec:	001a8a93          	addi	s5,s5,1
    29f0:	000ac683          	lbu	a3,0(s5)
    29f4:	07800613          	li	a2,120
    29f8:	02d66063          	bltu	a2,a3,0x2a18
    29fc:	06200613          	li	a2,98
    2a00:	06d66663          	bltu	a2,a3,0x2a6c
    2a04:	02500613          	li	a2,37
    2a08:	28c68463          	beq	a3,a2,0x2c90
    2a0c:	05800613          	li	a2,88
    2a10:	04086813          	ori	a6,a6,64
    2a14:	28c68663          	beq	a3,a2,0x2ca0
    2a18:	01657663          	bgeu	a0,s6,0x2a24
    2a1c:	02500793          	li	a5,37
    2a20:	00f50023          	sb	a5,0(a0)
    2a24:	000ac783          	lbu	a5,0(s5)
    2a28:	00150713          	addi	a4,a0,1
    2a2c:	2a078e63          	beqz	a5,0x2ce8
    2a30:	01677463          	bgeu	a4,s6,0x2a38
    2a34:	00f500a3          	sb	a5,1(a0)
    2a38:	00250713          	addi	a4,a0,2
    2a3c:	e31ff06f          	j	0x286c
    2a40:	02a00613          	li	a2,42
    2a44:	00c79a63          	bne	a5,a2,0x2a58
    2a48:	00042603          	lw	a2,0(s0)
    2a4c:	002a8693          	addi	a3,s5,2
    2a50:	00840413          	addi	s0,s0,8
    2a54:	f79ff06f          	j	0x29cc
    2a58:	00068a93          	mv	s5,a3
    2a5c:	00000793          	li	a5,0
    2a60:	f7dff06f          	j	0x29dc
    2a64:	00000593          	li	a1,0
    2a68:	f89ff06f          	j	0x29f0
    2a6c:	f9d6869b          	0xf9d6869b
    2a70:	0ff6f693          	andi	a3,a3,255
    2a74:	01500613          	li	a2,21
    2a78:	fad660e3          	bltu	a2,a3,0x2a18
    2a7c:	0000b617          	auipc	a2,0xb
    2a80:	cdc60613          	addi	a2,a2,-804 # 0xd758
    2a84:	00269693          	slli	a3,a3,0x2
    2a88:	00c686b3          	add	a3,a3,a2
    2a8c:	0006a683          	lw	a3,0(a3)
    2a90:	00c686b3          	add	a3,a3,a2
    2a94:	00068067          	jr	a3
    2a98:	01087813          	andi	a6,a6,16
    2a9c:	04081a63          	bnez	a6,0x2af0
    2aa0:	00070693          	mv	a3,a4
    2aa4:	00050793          	mv	a5,a0
    2aa8:	02000613          	li	a2,32
    2aac:	0100006f          	j	0x2abc
    2ab0:	0167f463          	bgeu	a5,s6,0x2ab8
    2ab4:	00c78023          	sb	a2,0(a5)
    2ab8:	00178793          	addi	a5,a5,1
    2abc:	fff6869b          	0xfff6869b
    2ac0:	fed048e3          	bgtz	a3,0x2ab0
    2ac4:	fff7079b          	0xfff7079b
    2ac8:	00000693          	li	a3,0
    2acc:	00e05663          	blez	a4,0x2ad8
    2ad0:	02079693          	slli	a3,a5,0x20
    2ad4:	0206d693          	srli	a3,a3,0x20
    2ad8:	00d50533          	add	a0,a0,a3
    2adc:	00070693          	mv	a3,a4
    2ae0:	00e04463          	bgtz	a4,0x2ae8
    2ae4:	00100693          	li	a3,1
    2ae8:	40d7873b          	0x40d7873b
    2aec:	0017071b          	0x17071b
    2af0:	00840613          	addi	a2,s0,8
    2af4:	01657663          	bgeu	a0,s6,0x2b00
    2af8:	00042783          	lw	a5,0(s0)
    2afc:	00f50023          	sb	a5,0(a0)
    2b00:	00150513          	addi	a0,a0,1
    2b04:	00070693          	mv	a3,a4
    2b08:	00050793          	mv	a5,a0
    2b0c:	02000593          	li	a1,32
    2b10:	fff6869b          	0xfff6869b
    2b14:	02d04263          	bgtz	a3,0x2b38
    2b18:	00000793          	li	a5,0
    2b1c:	00e05863          	blez	a4,0x2b2c
    2b20:	fff7071b          	0xfff7071b
    2b24:	02071793          	slli	a5,a4,0x20
    2b28:	0207d793          	srli	a5,a5,0x20
    2b2c:	00f50733          	add	a4,a0,a5
    2b30:	00060413          	mv	s0,a2
    2b34:	d39ff06f          	j	0x286c
    2b38:	0167f463          	bgeu	a5,s6,0x2b40
    2b3c:	00b78023          	sb	a1,0(a5)
    2b40:	00178793          	addi	a5,a5,1
    2b44:	fcdff06f          	j	0x2b10
    2b48:	00043603          	0x43603
    2b4c:	00840893          	addi	a7,s0,8
    2b50:	00061663          	bnez	a2,0x2b5c
    2b54:	0000b617          	auipc	a2,0xb
    2b58:	bfc60613          	addi	a2,a2,-1028 # 0xd750
    2b5c:	00000593          	li	a1,0
    2b60:	0005869b          	0x5869b
    2b64:	00e68a63          	beq	a3,a4,0x2b78
    2b68:	00158593          	addi	a1,a1,1
    2b6c:	00b60333          	add	t1,a2,a1
    2b70:	fff34303          	lbu	t1,-1(t1)
    2b74:	fe0316e3          	bnez	t1,0x2b60
    2b78:	00f05a63          	blez	a5,0x2b8c
    2b7c:	00068593          	mv	a1,a3
    2b80:	00d7d463          	bge	a5,a3,0x2b88
    2b84:	00078593          	mv	a1,a5
    2b88:	0005869b          	0x5869b
    2b8c:	01087813          	andi	a6,a6,16
    2b90:	04081c63          	bnez	a6,0x2be8
    2b94:	00050793          	mv	a5,a0
    2b98:	0007059b          	0x7059b
    2b9c:	00e5033b          	0xe5033b
    2ba0:	02000e13          	li	t3,32
    2ba4:	0100006f          	j	0x2bb4
    2ba8:	0167f463          	bgeu	a5,s6,0x2bb0
    2bac:	01c78023          	sb	t3,0(a5)
    2bb0:	00178793          	addi	a5,a5,1
    2bb4:	40f3083b          	0x40f3083b
    2bb8:	ff06c8e3          	blt	a3,a6,0x2ba8
    2bbc:	40d587bb          	0x40d587bb
    2bc0:	00000593          	li	a1,0
    2bc4:	00d74663          	blt	a4,a3,0x2bd0
    2bc8:	02079593          	slli	a1,a5,0x20
    2bcc:	0205d593          	srli	a1,a1,0x20
    2bd0:	00b50533          	add	a0,a0,a1
    2bd4:	fff7081b          	0xfff7081b
    2bd8:	00000593          	li	a1,0
    2bdc:	00d74463          	blt	a4,a3,0x2be4
    2be0:	40f005bb          	0x40f005bb
    2be4:	0105873b          	0x105873b
    2be8:	00000793          	li	a5,0
    2bec:	0007859b          	0x7859b
    2bf0:	04d5c263          	blt	a1,a3,0x2c34
    2bf4:	00d50533          	add	a0,a0,a3
    2bf8:	0006859b          	0x6859b
    2bfc:	00050793          	mv	a5,a0
    2c00:	0007061b          	0x7061b
    2c04:	00e5033b          	0xe5033b
    2c08:	02000e13          	li	t3,32
    2c0c:	40f3083b          	0x40f3083b
    2c10:	0506c063          	blt	a3,a6,0x2c50
    2c14:	00000793          	li	a5,0
    2c18:	00d74863          	blt	a4,a3,0x2c28
    2c1c:	40b6063b          	0x40b6063b
    2c20:	02061793          	slli	a5,a2,0x20
    2c24:	0207d793          	srli	a5,a5,0x20
    2c28:	00f50733          	add	a4,a0,a5
    2c2c:	00088413          	mv	s0,a7
    2c30:	c3dff06f          	j	0x286c
    2c34:	00f505b3          	add	a1,a0,a5
    2c38:	0165f863          	bgeu	a1,s6,0x2c48
    2c3c:	00f60833          	add	a6,a2,a5
    2c40:	00084803          	lbu	a6,0(a6)
    2c44:	01058023          	sb	a6,0(a1)
    2c48:	00178793          	addi	a5,a5,1
    2c4c:	fa1ff06f          	j	0x2bec
    2c50:	0167f463          	bgeu	a5,s6,0x2c58
    2c54:	01c78023          	sb	t3,0(a5)
    2c58:	00178793          	addi	a5,a5,1
    2c5c:	fb1ff06f          	j	0x2c0c
    2c60:	fff00693          	li	a3,-1
    2c64:	00d71663          	bne	a4,a3,0x2c70
    2c68:	00186813          	ori	a6,a6,1
    2c6c:	01000713          	li	a4,16
    2c70:	00043603          	0x43603
    2c74:	01000693          	li	a3,16
    2c78:	000b0593          	mv	a1,s6
    2c7c:	00840c93          	addi	s9,s0,8
    2c80:	c98ff0ef          	jal	ra,0x2118
    2c84:	00050713          	mv	a4,a0
    2c88:	000c8413          	mv	s0,s9
    2c8c:	be1ff06f          	j	0x286c
    2c90:	01657463          	bgeu	a0,s6,0x2c98
    2c94:	00d50023          	sb	a3,0(a0)
    2c98:	00150713          	addi	a4,a0,1
    2c9c:	bd1ff06f          	j	0x286c
    2ca0:	01000693          	li	a3,16
    2ca4:	06800893          	li	a7,104
    2ca8:	00042603          	lw	a2,0(s0)
    2cac:	00840413          	addi	s0,s0,8
    2cb0:	01159a63          	bne	a1,a7,0x2cc4
    2cb4:	00287893          	andi	a7,a6,2
    2cb8:	0006059b          	0x6059b
    2cbc:	02089e63          	bnez	a7,0x2cf8
    2cc0:	0095f633          	and	a2,a1,s1
    2cc4:	02061613          	slli	a2,a2,0x20
    2cc8:	02065613          	srli	a2,a2,0x20
    2ccc:	000b0593          	mv	a1,s6
    2cd0:	c48ff0ef          	jal	ra,0x2118
    2cd4:	00050713          	mv	a4,a0
    2cd8:	b95ff06f          	j	0x286c
    2cdc:	00286813          	ori	a6,a6,2
    2ce0:	00a00693          	li	a3,10
    2ce4:	fc1ff06f          	j	0x2ca4
    2ce8:	fffa8a93          	addi	s5,s5,-1
    2cec:	b81ff06f          	j	0x286c
    2cf0:	00800693          	li	a3,8
    2cf4:	fb1ff06f          	j	0x2ca4
    2cf8:	0106161b          	0x106161b
    2cfc:	4106561b          	0x4106561b
    2d00:	fc5ff06f          	j	0x2cc4
    2d04:	fe0b0fa3          	sb	zero,-1(s6)
    2d08:	b81ff06f          	j	0x2888
    2d0c:	fb010113          	addi	sp,sp,-80
    2d10:	02d13423          	0x2d13423
    2d14:	02810693          	addi	a3,sp,40
    2d18:	00113c23          	0x113c23
    2d1c:	02e13823          	0x2e13823
    2d20:	02f13c23          	0x2f13c23
    2d24:	05013023          	0x5013023
    2d28:	05113423          	0x5113423
    2d2c:	00d13423          	0xd13423
    2d30:	abdff0ef          	jal	ra,0x27ec
    2d34:	01813083          	0x1813083
    2d38:	05010113          	addi	sp,sp,80
    2d3c:	00008067          	ret
    2d40:	00060693          	mv	a3,a2
    2d44:	00058613          	mv	a2,a1
    2d48:	fff00593          	li	a1,-1
    2d4c:	aa1ff06f          	j	0x27ec
    2d50:	fb010113          	addi	sp,sp,-80
    2d54:	02c13023          	0x2c13023
    2d58:	02010613          	addi	a2,sp,32
    2d5c:	00113c23          	0x113c23
    2d60:	02d13423          	0x2d13423
    2d64:	02e13823          	0x2e13823
    2d68:	02f13c23          	0x2f13c23
    2d6c:	05013023          	0x5013023
    2d70:	05113423          	0x5113423
    2d74:	00c13423          	0xc13423
    2d78:	fc9ff0ef          	jal	ra,0x2d40
    2d7c:	01813083          	0x1813083
    2d80:	05010113          	addi	sp,sp,80
    2d84:	00008067          	ret
    2d88:	00016517          	auipc	a0,0x16
    2d8c:	4c853503          	0x4c853503
    2d90:	00008067          	ret
    2d94:	fe010113          	addi	sp,sp,-32
    2d98:	00913423          	0x913423
    2d9c:	00016497          	auipc	s1,0x16
    2da0:	4b448493          	addi	s1,s1,1204 # 0x19250
    2da4:	01213023          	0x1213023
    2da8:	0004b903          	0x4b903
    2dac:	00113c23          	0x113c23
    2db0:	00813823          	0x813823
    2db4:	3c8010ef          	jal	ra,0x417c
    2db8:	04a90263          	beq	s2,a0,0x2dfc
    2dbc:	00050413          	mv	s0,a0
    2dc0:	02050063          	beqz	a0,0x2de0
    2dc4:	0004b503          	0x4b503
    2dc8:	00050463          	beqz	a0,0x2dd0
    2dcc:	588010ef          	jal	ra,0x4354
    2dd0:	04300593          	li	a1,67
    2dd4:	00040513          	mv	a0,s0
    2dd8:	424010ef          	jal	ra,0x41fc
    2ddc:	0084b023          	0x84b023
    2de0:	01813083          	0x1813083
    2de4:	01013403          	0x1013403
    2de8:	00813483          	0x813483
    2dec:	00090513          	mv	a0,s2
    2df0:	00013903          	0x13903
    2df4:	02010113          	addi	sp,sp,32
    2df8:	00008067          	ret
    2dfc:	00000913          	li	s2,0
    2e00:	fe1ff06f          	j	0x2de0
    2e04:	00008067          	ret
    2e08:	f9010113          	addi	sp,sp,-112
    2e0c:	02b13c23          	0x2b13c23
    2e10:	04c13023          	0x4c13023
    2e14:	04d13423          	0x4d13423
    2e18:	00050613          	mv	a2,a0
    2e1c:	03810693          	addi	a3,sp,56
    2e20:	0ff00593          	li	a1,255
    2e24:	0001b517          	auipc	a0,0x1b
    2e28:	8dc50513          	addi	a0,a0,-1828 # 0x1d700
    2e2c:	04f13c23          	0x4f13c23
    2e30:	00d13423          	0xd13423
    2e34:	02113423          	0x2113423
    2e38:	02813023          	0x2813023
    2e3c:	00913c23          	0x913c23
    2e40:	04e13823          	0x4e13823
    2e44:	07013023          	0x7013023
    2e48:	07113423          	0x7113423
    2e4c:	9a1ff0ef          	jal	ra,0x27ec
    2e50:	00016797          	auipc	a5,0x16
    2e54:	40078793          	addi	a5,a5,1024 # 0x19250
    2e58:	00050693          	mv	a3,a0
    2e5c:	0007b503          	0x7b503
    2e60:	02051263          	bnez	a0,0x2e84
    2e64:	0001b517          	auipc	a0,0x1b
    2e68:	89c50513          	addi	a0,a0,-1892 # 0x1d700
    2e6c:	f99ff0ef          	jal	ra,0x2e04
    2e70:	02813083          	0x2813083
    2e74:	02013403          	0x2013403
    2e78:	01813483          	0x1813483
    2e7c:	07010113          	addi	sp,sp,112
    2e80:	00008067          	ret
    2e84:	02e55483          	lhu	s1,46(a0)
    2e88:	00078413          	mv	s0,a5
    2e8c:	0404e793          	ori	a5,s1,64
    2e90:	02f51723          	sh	a5,46(a0)
    2e94:	0ff00793          	li	a5,255
    2e98:	00d7f463          	bgeu	a5,a3,0x2ea0
    2e9c:	0ff00693          	li	a3,255
    2ea0:	0001b617          	auipc	a2,0x1b
    2ea4:	86060613          	addi	a2,a2,-1952 # 0x1d700
    2ea8:	00000593          	li	a1,0
    2eac:	628010ef          	jal	ra,0x44d4
    2eb0:	00043783          	0x43783
    2eb4:	02979723          	sh	s1,46(a5)
    2eb8:	fb9ff06f          	j	0x2e70
    2ebc:	ff010113          	addi	sp,sp,-16
    2ec0:	0000b517          	auipc	a0,0xb
    2ec4:	8f050513          	addi	a0,a0,-1808 # 0xd7b0
    2ec8:	00113423          	0x113423
    2ecc:	f3dff0ef          	jal	ra,0x2e08
    2ed0:	0000b517          	auipc	a0,0xb
    2ed4:	8f050513          	addi	a0,a0,-1808 # 0xd7c0
    2ed8:	f31ff0ef          	jal	ra,0x2e08
    2edc:	0000b517          	auipc	a0,0xb
    2ee0:	91c50513          	addi	a0,a0,-1764 # 0xd7f8
    2ee4:	0000b717          	auipc	a4,0xb
    2ee8:	90470713          	addi	a4,a4,-1788 # 0xd7e8
    2eec:	00400693          	li	a3,4
    2ef0:	00000613          	li	a2,0
    2ef4:	00400593          	li	a1,4
    2ef8:	f11ff0ef          	jal	ra,0x2e08
    2efc:	00813083          	0x813083
    2f00:	0000b517          	auipc	a0,0xb
    2f04:	91850513          	addi	a0,a0,-1768 # 0xd818
    2f08:	01010113          	addi	sp,sp,16
    2f0c:	efdff06f          	j	0x2e08
    2f10:	08050063          	beqz	a0,0x2f90
    2f14:	0ff57713          	andi	a4,a0,255
    2f18:	0000b697          	auipc	a3,0xb
    2f1c:	96868693          	addi	a3,a3,-1688 # 0xd880
    2f20:	00070a63          	beqz	a4,0x2f34
    2f24:	00e686b3          	add	a3,a3,a4
    2f28:	0006c503          	lbu	a0,0(a3)
    2f2c:	0015051b          	0x15051b
    2f30:	00008067          	ret
    2f34:	000107b7          	lui	a5,0x10
    2f38:	f0078793          	addi	a5,a5,-256 # 0xff00
    2f3c:	00f577b3          	and	a5,a0,a5
    2f40:	00078e63          	beqz	a5,0x2f5c
    2f44:	4085551b          	0x4085551b
    2f48:	0ff57713          	andi	a4,a0,255
    2f4c:	00e68733          	add	a4,a3,a4
    2f50:	00074503          	lbu	a0,0(a4)
    2f54:	0095051b          	0x95051b
    2f58:	00008067          	ret
    2f5c:	00ff07b7          	lui	a5,0xff0
    2f60:	00f577b3          	and	a5,a0,a5
    2f64:	00078e63          	beqz	a5,0x2f80
    2f68:	4105551b          	0x4105551b
    2f6c:	0ff57793          	andi	a5,a0,255
    2f70:	00f687b3          	add	a5,a3,a5
    2f74:	0007c503          	lbu	a0,0(a5) # 0xff0000
    2f78:	0115051b          	0x115051b
    2f7c:	00008067          	ret
    2f80:	0185551b          	0x185551b
    2f84:	00a68533          	add	a0,a3,a0
    2f88:	00054503          	lbu	a0,0(a0)
    2f8c:	0195051b          	0x195051b
    2f90:	00008067          	ret
    2f94:	fe010113          	addi	sp,sp,-32
    2f98:	00113c23          	0x113c23
    2f9c:	000107a3          	sb	zero,15(sp)
    2fa0:	00016317          	auipc	t1,0x16
    2fa4:	2b833303          	0x2b833303
    2fa8:	02031a63          	bnez	t1,0x2fdc
    2fac:	00060693          	mv	a3,a2
    2fb0:	00058613          	mv	a2,a1
    2fb4:	00050593          	mv	a1,a0
    2fb8:	0000b517          	auipc	a0,0xb
    2fbc:	89050513          	addi	a0,a0,-1904 # 0xd848
    2fc0:	e49ff0ef          	jal	ra,0x2e08
    2fc4:	00f14783          	lbu	a5,15(sp)
    2fc8:	0ff7f793          	andi	a5,a5,255
    2fcc:	fe078ce3          	beqz	a5,0x2fc4
    2fd0:	01813083          	0x1813083
    2fd4:	02010113          	addi	sp,sp,32
    2fd8:	00008067          	ret
    2fdc:	01813083          	0x1813083
    2fe0:	02010113          	addi	sp,sp,32
    2fe4:	00030067          	jr	t1 # 0x18fa0
    2fe8:	fe010113          	addi	sp,sp,-32
    2fec:	00813823          	0x813823
    2ff0:	00913423          	0x913423
    2ff4:	00050413          	mv	s0,a0
    2ff8:	00113c23          	0x113c23
    2ffc:	854fd0ef          	jal	ra,0x50
    3000:	0d843783          	0xd843783
    3004:	00050493          	mv	s1,a0
    3008:	00078663          	beqz	a5,0x3014
    300c:	00040513          	mv	a0,s0
    3010:	000780e7          	jalr	a5
    3014:	01013403          	0x1013403
    3018:	01813083          	0x1813083
    301c:	00048513          	mv	a0,s1
    3020:	00813483          	0x813483
    3024:	02010113          	addi	sp,sp,32
    3028:	830fd06f          	j	0x58
    302c:	fe010113          	addi	sp,sp,-32
    3030:	00113c23          	0x113c23
    3034:	00813823          	0x813823
    3038:	00913423          	0x913423
    303c:	00016417          	auipc	s0,0x16
    3040:	18c43403          	0x18c43403
    3044:	80cfd0ef          	jal	ra,0x50
    3048:	00050493          	mv	s1,a0
    304c:	00040513          	mv	a0,s0
    3050:	f99ff0ef          	jal	ra,0x2fe8
    3054:	00040513          	mv	a0,s0
    3058:	ee8fd0ef          	jal	ra,0x740
    305c:	00400793          	li	a5,4
    3060:	06f40423          	sb	a5,104(s0) # 0x190a4
    3064:	08840513          	addi	a0,s0,136
    3068:	8c9fe0ef          	jal	ra,0x1930
    306c:	00040513          	mv	a0,s0
    3070:	7b1000ef          	jal	ra,0x4020
    3074:	00100793          	li	a5,1
    3078:	02f51463          	bne	a0,a5,0x30a0
    307c:	00040513          	mv	a0,s0
    3080:	579000ef          	jal	ra,0x3df8
    3084:	facfd0ef          	jal	ra,0x830
    3088:	01013403          	0x1013403
    308c:	01813083          	0x1813083
    3090:	00048513          	mv	a0,s1
    3094:	00813483          	0x813483
    3098:	02010113          	addi	sp,sp,32
    309c:	fbdfc06f          	j	0x58
    30a0:	00040513          	mv	a0,s0
    30a4:	229000ef          	jal	ra,0x3acc
    30a8:	fddff06f          	j	0x3084
    30ac:	fe010113          	addi	sp,sp,-32
    30b0:	00813823          	0x813823
    30b4:	00050413          	mv	s0,a0
    30b8:	00913423          	0x913423
    30bc:	04c43423          	0x4c43423
    30c0:	00078493          	mv	s1,a5
    30c4:	02071613          	slli	a2,a4,0x20
    30c8:	02840793          	addi	a5,s0,40
    30cc:	00068513          	mv	a0,a3
    30d0:	02f43823          	0x2f43823
    30d4:	02f43423          	0x2f43423
    30d8:	04b43023          	0x4b43023
    30dc:	04d43823          	0x4d43823
    30e0:	04e42c23          	sw	a4,88(s0)
    30e4:	02065613          	srli	a2,a2,0x20
    30e8:	02300593          	li	a1,35
    30ec:	00113c23          	0x113c23
    30f0:	01213023          	0x1213023
    30f4:	00080913          	mv	s2,a6
    30f8:	b40ff0ef          	jal	ra,0x2438
    30fc:	05846783          	0x5846783
    3100:	05043603          	0x5043603
    3104:	04843583          	0x4843583
    3108:	04043503          	0x4043503
    310c:	ff878793          	addi	a5,a5,-8
    3110:	00f60633          	add	a2,a2,a5
    3114:	00000697          	auipc	a3,0x0
    3118:	f1868693          	addi	a3,a3,-232 # 0x302c
    311c:	0c4020ef          	jal	ra,0x51e0
    3120:	02a43c23          	0x2a43c23
    3124:	01f00793          	li	a5,31
    3128:	0097fe63          	bgeu	a5,s1,0x3144
    312c:	0ae00613          	li	a2,174
    3130:	0000b597          	auipc	a1,0xb
    3134:	a1058593          	addi	a1,a1,-1520 # 0xdb40
    3138:	0000b517          	auipc	a0,0xb
    313c:	87850513          	addi	a0,a0,-1928 # 0xd9b0
    3140:	e55ff0ef          	jal	ra,0x2f94
    3144:	02091813          	slli	a6,s2,0x20
    3148:	02085813          	srli	a6,a6,0x20
    314c:	00000793          	li	a5,0
    3150:	06940523          	sb	s1,106(s0)
    3154:	069404a3          	sb	s1,105(s0)
    3158:	06042623          	sw	zero,108(s0)
    315c:	07043c23          	0x7043c23
    3160:	09043023          	0x9043023
    3164:	06043023          	0x6043023
    3168:	06040423          	sb	zero,104(s0)
    316c:	0c043c23          	0xc043c23
    3170:	0e043023          	0xe043023
    3174:	00000713          	li	a4,0
    3178:	00040693          	mv	a3,s0
    317c:	00000617          	auipc	a2,0x0
    3180:	04460613          	addi	a2,a2,68 # 0x31c0
    3184:	00040593          	mv	a1,s0
    3188:	08840513          	addi	a0,s0,136
    318c:	ef8fe0ef          	jal	ra,0x1884
    3190:	00016797          	auipc	a5,0x16
    3194:	0d07b783          	0xd07b783
    3198:	00078663          	beqz	a5,0x31a4
    319c:	00040513          	mv	a0,s0
    31a0:	000780e7          	jalr	a5 # 0x19190
    31a4:	01813083          	0x1813083
    31a8:	01013403          	0x1013403
    31ac:	00813483          	0x813483
    31b0:	00013903          	0x13903
    31b4:	00000513          	li	a0,0
    31b8:	02010113          	addi	sp,sp,32
    31bc:	00008067          	ret
    31c0:	fe010113          	addi	sp,sp,-32
    31c4:	00813823          	0x813823
    31c8:	00113c23          	0x113c23
    31cc:	00913423          	0x913423
    31d0:	00050413          	mv	s0,a0
    31d4:	00051e63          	bnez	a0,0x31f0
    31d8:	37200613          	li	a2,882
    31dc:	0000b597          	auipc	a1,0xb
    31e0:	a2458593          	addi	a1,a1,-1500 # 0xdc00
    31e4:	0000a517          	auipc	a0,0xa
    31e8:	ee450513          	addi	a0,a0,-284 # 0xd0c8
    31ec:	da9ff0ef          	jal	ra,0x2f94
    31f0:	06844783          	lbu	a5,104(s0)
    31f4:	00200713          	li	a4,2
    31f8:	0077f793          	andi	a5,a5,7
    31fc:	00e78e63          	beq	a5,a4,0x3218
    3200:	37300613          	li	a2,883
    3204:	0000b597          	auipc	a1,0xb
    3208:	9fc58593          	addi	a1,a1,-1540 # 0xdc00
    320c:	0000a517          	auipc	a0,0xa
    3210:	7cc50513          	addi	a0,a0,1996 # 0xd9d8
    3214:	d81ff0ef          	jal	ra,0x2f94
    3218:	00040513          	mv	a0,s0
    321c:	649000ef          	jal	ra,0x4064
    3220:	00100793          	li	a5,1
    3224:	00f50e63          	beq	a0,a5,0x3240
    3228:	37400613          	li	a2,884
    322c:	0000b597          	auipc	a1,0xb
    3230:	9d458593          	addi	a1,a1,-1580 # 0xdc00
    3234:	0000a517          	auipc	a0,0xa
    3238:	7e450513          	addi	a0,a0,2020 # 0xda18
    323c:	d59ff0ef          	jal	ra,0x2f94
    3240:	e11fc0ef          	jal	ra,0x50
    3244:	02843683          	0x2843683
    3248:	03043703          	0x3043703
    324c:	ffe00793          	li	a5,-2
    3250:	06f43023          	0x6f43023
    3254:	00e6b423          	0xe6b423
    3258:	02840793          	addi	a5,s0,40
    325c:	00d73023          	0xd73023
    3260:	00050493          	mv	s1,a0
    3264:	02f43823          	0x2f43823
    3268:	02f43423          	0x2f43423
    326c:	00040513          	mv	a0,s0
    3270:	c24fd0ef          	jal	ra,0x694
    3274:	00048513          	mv	a0,s1
    3278:	de1fc0ef          	jal	ra,0x58
    327c:	01013403          	0x1013403
    3280:	01813083          	0x1813083
    3284:	00813483          	0x813483
    3288:	02010113          	addi	sp,sp,32
    328c:	da4fd06f          	j	0x830
    3290:	fb010113          	addi	sp,sp,-80
    3294:	04813023          	0x4813023
    3298:	02913c23          	0x2913c23
    329c:	03213823          	0x3213823
    32a0:	03313423          	0x3313423
    32a4:	03413023          	0x3413023
    32a8:	01513c23          	0x1513c23
    32ac:	01613823          	0x1613823
    32b0:	01713423          	0x1713423
    32b4:	04113423          	0x4113423
    32b8:	00050413          	mv	s0,a0
    32bc:	00058b93          	mv	s7,a1
    32c0:	00060913          	mv	s2,a2
    32c4:	00068993          	mv	s3,a3
    32c8:	00070493          	mv	s1,a4
    32cc:	00078a13          	mv	s4,a5
    32d0:	00080a93          	mv	s5,a6
    32d4:	00088b13          	mv	s6,a7
    32d8:	00051e63          	bnez	a0,0x32f4
    32dc:	10f00613          	li	a2,271
    32e0:	0000b597          	auipc	a1,0xb
    32e4:	87058593          	addi	a1,a1,-1936 # 0xdb50
    32e8:	0000a517          	auipc	a0,0xa
    32ec:	de050513          	addi	a0,a0,-544 # 0xd0c8
    32f0:	ca5ff0ef          	jal	ra,0x2f94
    32f4:	00049e63          	bnez	s1,0x3310
    32f8:	11000613          	li	a2,272
    32fc:	0000b597          	auipc	a1,0xb
    3300:	85458593          	addi	a1,a1,-1964 # 0xdb50
    3304:	0000a517          	auipc	a0,0xa
    3308:	75c50513          	addi	a0,a0,1884 # 0xda60
    330c:	c89ff0ef          	jal	ra,0x2f94
    3310:	000b8613          	mv	a2,s7
    3314:	00040513          	mv	a0,s0
    3318:	00100593          	li	a1,1
    331c:	1c9000ef          	jal	ra,0x3ce4
    3320:	00040513          	mv	a0,s0
    3324:	04013403          	0x4013403
    3328:	04813083          	0x4813083
    332c:	00813b83          	0x813b83
    3330:	000b0813          	mv	a6,s6
    3334:	000a8793          	mv	a5,s5
    3338:	01013b03          	0x1013b03
    333c:	01813a83          	0x1813a83
    3340:	000a0713          	mv	a4,s4
    3344:	00048693          	mv	a3,s1
    3348:	02013a03          	0x2013a03
    334c:	03813483          	0x3813483
    3350:	00098613          	mv	a2,s3
    3354:	00090593          	mv	a1,s2
    3358:	02813983          	0x2813983
    335c:	03013903          	0x3013903
    3360:	05010113          	addi	sp,sp,80
    3364:	d49ff06f          	j	0x30ac
    3368:	00016517          	auipc	a0,0x16
    336c:	e6053503          	0xe6053503
    3370:	00008067          	ret
    3374:	fe010113          	addi	sp,sp,-32
    3378:	00813823          	0x813823
    337c:	00113c23          	0x113c23
    3380:	00913423          	0x913423
    3384:	00050413          	mv	s0,a0
    3388:	00051e63          	bnez	a0,0x33a4
    338c:	16e00613          	li	a2,366
    3390:	0000a597          	auipc	a1,0xa
    3394:	7e858593          	addi	a1,a1,2024 # 0xdb78
    3398:	0000a517          	auipc	a0,0xa
    339c:	d3050513          	addi	a0,a0,-720 # 0xd0c8
    33a0:	bf5ff0ef          	jal	ra,0x2f94
    33a4:	00040513          	mv	a0,s0
    33a8:	4bd000ef          	jal	ra,0x4064
    33ac:	00100793          	li	a5,1
    33b0:	00f50e63          	beq	a0,a5,0x33cc
    33b4:	16f00613          	li	a2,367
    33b8:	0000a597          	auipc	a1,0xa
    33bc:	7c058593          	addi	a1,a1,1984 # 0xdb78
    33c0:	0000a517          	auipc	a0,0xa
    33c4:	65850513          	addi	a0,a0,1624 # 0xda18
    33c8:	bcdff0ef          	jal	ra,0x2f94
    33cc:	00040513          	mv	a0,s0
    33d0:	451000ef          	jal	ra,0x4020
    33d4:	00051e63          	bnez	a0,0x33f0
    33d8:	17000613          	li	a2,368
    33dc:	0000a597          	auipc	a1,0xa
    33e0:	79c58593          	addi	a1,a1,1948 # 0xdb78
    33e4:	0000a517          	auipc	a0,0xa
    33e8:	69450513          	addi	a0,a0,1684 # 0xda78
    33ec:	ba9ff0ef          	jal	ra,0x2f94
    33f0:	06844783          	lbu	a5,104(s0)
    33f4:	00400713          	li	a4,4
    33f8:	0077f793          	andi	a5,a5,7
    33fc:	04e78063          	beq	a5,a4,0x343c
    3400:	00078663          	beqz	a5,0x340c
    3404:	00040513          	mv	a0,s0
    3408:	b38fd0ef          	jal	ra,0x740
    340c:	00040513          	mv	a0,s0
    3410:	bd9ff0ef          	jal	ra,0x2fe8
    3414:	08840513          	addi	a0,s0,136
    3418:	d18fe0ef          	jal	ra,0x1930
    341c:	00400793          	li	a5,4
    3420:	06f40423          	sb	a5,104(s0)
    3424:	00040513          	mv	a0,s0
    3428:	3f9000ef          	jal	ra,0x4020
    342c:	00100793          	li	a5,1
    3430:	02f51263          	bne	a0,a5,0x3454
    3434:	00040513          	mv	a0,s0
    3438:	1c1000ef          	jal	ra,0x3df8
    343c:	01813083          	0x1813083
    3440:	01013403          	0x1013403
    3444:	00813483          	0x813483
    3448:	00000513          	li	a0,0
    344c:	02010113          	addi	sp,sp,32
    3450:	00008067          	ret
    3454:	bfdfc0ef          	jal	ra,0x50
    3458:	00050493          	mv	s1,a0
    345c:	00040513          	mv	a0,s0
    3460:	66c000ef          	jal	ra,0x3acc
    3464:	00048513          	mv	a0,s1
    3468:	bf1fc0ef          	jal	ra,0x58
    346c:	fd1ff06f          	j	0x343c
    3470:	fc010113          	addi	sp,sp,-64
    3474:	03213023          	0x3213023
    3478:	00058913          	mv	s2,a1
    347c:	00050593          	mv	a1,a0
    3480:	00100513          	li	a0,1
    3484:	02813823          	0x2813823
    3488:	02913423          	0x2913423
    348c:	01313c23          	0x1313c23
    3490:	01413823          	0x1413823
    3494:	01513423          	0x1513423
    3498:	02113c23          	0x2113c23
    349c:	00060993          	mv	s3,a2
    34a0:	00068493          	mv	s1,a3
    34a4:	00070a13          	mv	s4,a4
    34a8:	00078a93          	mv	s5,a5
    34ac:	1c1000ef          	jal	ra,0x3e6c
    34b0:	00050413          	mv	s0,a0
    34b4:	02050263          	beqz	a0,0x34d8
    34b8:	02049513          	slli	a0,s1,0x20
    34bc:	02055513          	srli	a0,a0,0x20
    34c0:	c49fd0ef          	jal	ra,0x1108
    34c4:	00050693          	mv	a3,a0
    34c8:	02051c63          	bnez	a0,0x3500
    34cc:	00040513          	mv	a0,s0
    34d0:	2b5000ef          	jal	ra,0x3f84
    34d4:	00000413          	li	s0,0
    34d8:	03813083          	0x3813083
    34dc:	00040513          	mv	a0,s0
    34e0:	03013403          	0x3013403
    34e4:	02813483          	0x2813483
    34e8:	02013903          	0x2013903
    34ec:	01813983          	0x1813983
    34f0:	01013a03          	0x1013a03
    34f4:	00813a83          	0x813a83
    34f8:	04010113          	addi	sp,sp,64
    34fc:	00008067          	ret
    3500:	000a8813          	mv	a6,s5
    3504:	000a0793          	mv	a5,s4
    3508:	00048713          	mv	a4,s1
    350c:	00098613          	mv	a2,s3
    3510:	00090593          	mv	a1,s2
    3514:	00040513          	mv	a0,s0
    3518:	b95ff0ef          	jal	ra,0x30ac
    351c:	fbdff06f          	j	0x34d8
    3520:	fe010113          	addi	sp,sp,-32
    3524:	00813823          	0x813823
    3528:	00113c23          	0x113c23
    352c:	00913423          	0x913423
    3530:	00050413          	mv	s0,a0
    3534:	00051e63          	bnez	a0,0x3550
    3538:	1d500613          	li	a2,469
    353c:	0000a597          	auipc	a1,0xa
    3540:	65458593          	addi	a1,a1,1620 # 0xdb90
    3544:	0000a517          	auipc	a0,0xa
    3548:	b8450513          	addi	a0,a0,-1148 # 0xd0c8
    354c:	a49ff0ef          	jal	ra,0x2f94
    3550:	00040513          	mv	a0,s0
    3554:	311000ef          	jal	ra,0x4064
    3558:	00100793          	li	a5,1
    355c:	00f50e63          	beq	a0,a5,0x3578
    3560:	1d600613          	li	a2,470
    3564:	0000a597          	auipc	a1,0xa
    3568:	62c58593          	addi	a1,a1,1580 # 0xdb90
    356c:	0000a517          	auipc	a0,0xa
    3570:	4ac50513          	addi	a0,a0,1196 # 0xda18
    3574:	a21ff0ef          	jal	ra,0x2f94
    3578:	00040513          	mv	a0,s0
    357c:	2a5000ef          	jal	ra,0x4020
    3580:	00050e63          	beqz	a0,0x359c
    3584:	1d700613          	li	a2,471
    3588:	0000a597          	auipc	a1,0xa
    358c:	60858593          	addi	a1,a1,1544 # 0xdb90
    3590:	0000a517          	auipc	a0,0xa
    3594:	51850513          	addi	a0,a0,1304 # 0xdaa8
    3598:	9fdff0ef          	jal	ra,0x2f94
    359c:	06844783          	lbu	a5,104(s0)
    35a0:	00400713          	li	a4,4
    35a4:	0077f793          	andi	a5,a5,7
    35a8:	04e78063          	beq	a5,a4,0x35e8
    35ac:	00078663          	beqz	a5,0x35b8
    35b0:	00040513          	mv	a0,s0
    35b4:	98cfd0ef          	jal	ra,0x740
    35b8:	00040513          	mv	a0,s0
    35bc:	a2dff0ef          	jal	ra,0x2fe8
    35c0:	08840513          	addi	a0,s0,136
    35c4:	b6cfe0ef          	jal	ra,0x1930
    35c8:	a89fc0ef          	jal	ra,0x50
    35cc:	00400793          	li	a5,4
    35d0:	00050493          	mv	s1,a0
    35d4:	06f40423          	sb	a5,104(s0)
    35d8:	00040513          	mv	a0,s0
    35dc:	4f0000ef          	jal	ra,0x3acc
    35e0:	00048513          	mv	a0,s1
    35e4:	a75fc0ef          	jal	ra,0x58
    35e8:	01813083          	0x1813083
    35ec:	01013403          	0x1013403
    35f0:	00813483          	0x813483
    35f4:	00000513          	li	a0,0
    35f8:	02010113          	addi	sp,sp,32
    35fc:	00008067          	ret
    3600:	fe010113          	addi	sp,sp,-32
    3604:	00813823          	0x813823
    3608:	00113c23          	0x113c23
    360c:	00913423          	0x913423
    3610:	01213023          	0x1213023
    3614:	00050413          	mv	s0,a0
    3618:	00051e63          	bnez	a0,0x3634
    361c:	31400613          	li	a2,788
    3620:	0000a597          	auipc	a1,0xa
    3624:	5b058593          	addi	a1,a1,1456 # 0xdbd0
    3628:	0000a517          	auipc	a0,0xa
    362c:	aa050513          	addi	a0,a0,-1376 # 0xd0c8
    3630:	965ff0ef          	jal	ra,0x2f94
    3634:	00040513          	mv	a0,s0
    3638:	22d000ef          	jal	ra,0x4064
    363c:	00100793          	li	a5,1
    3640:	00f50e63          	beq	a0,a5,0x365c
    3644:	31500613          	li	a2,789
    3648:	0000a597          	auipc	a1,0xa
    364c:	58858593          	addi	a1,a1,1416 # 0xdbd0
    3650:	0000a517          	auipc	a0,0xa
    3654:	3c850513          	addi	a0,a0,968 # 0xda18
    3658:	93dff0ef          	jal	ra,0x2f94
    365c:	06844783          	lbu	a5,104(s0)
    3660:	00100713          	li	a4,1
    3664:	fff00513          	li	a0,-1
    3668:	0077f913          	andi	s2,a5,7
    366c:	0057f793          	andi	a5,a5,5
    3670:	06e79e63          	bne	a5,a4,0x36ec
    3674:	9ddfc0ef          	jal	ra,0x50
    3678:	00300793          	li	a5,3
    367c:	00050493          	mv	s1,a0
    3680:	02f91463          	bne	s2,a5,0x36a8
    3684:	00016797          	auipc	a5,0x16
    3688:	b447b783          	0xb447b783
    368c:	00f40e63          	beq	s0,a5,0x36a8
    3690:	32600613          	li	a2,806
    3694:	0000a597          	auipc	a1,0xa
    3698:	53c58593          	addi	a1,a1,1340 # 0xdbd0
    369c:	0000a517          	auipc	a0,0xa
    36a0:	44c50513          	addi	a0,a0,1100 # 0xdae8
    36a4:	8f1ff0ef          	jal	ra,0x2f94
    36a8:	00040513          	mv	a0,s0
    36ac:	894fd0ef          	jal	ra,0x740
    36b0:	06844783          	lbu	a5,104(s0)
    36b4:	08840513          	addi	a0,s0,136
    36b8:	ff87f793          	andi	a5,a5,-8
    36bc:	0027e793          	ori	a5,a5,2
    36c0:	06f40423          	sb	a5,104(s0)
    36c4:	cc4fe0ef          	jal	ra,0x1b88
    36c8:	00048513          	mv	a0,s1
    36cc:	98dfc0ef          	jal	ra,0x58
    36d0:	00016797          	auipc	a5,0x16
    36d4:	ba07b783          	0xba07b783
    36d8:	00000513          	li	a0,0
    36dc:	00078863          	beqz	a5,0x36ec
    36e0:	00040513          	mv	a0,s0
    36e4:	000780e7          	jalr	a5 # 0x196d0
    36e8:	00000513          	li	a0,0
    36ec:	01813083          	0x1813083
    36f0:	01013403          	0x1013403
    36f4:	00813483          	0x813483
    36f8:	00013903          	0x13903
    36fc:	02010113          	addi	sp,sp,32
    3700:	00008067          	ret
    3704:	fd010113          	addi	sp,sp,-48
    3708:	02813023          	0x2813023
    370c:	02113423          	0x2113423
    3710:	00913c23          	0x913c23
    3714:	01213823          	0x1213823
    3718:	00a12623          	sw	a0,12(sp)
    371c:	00016417          	auipc	s0,0x16
    3720:	aac43403          	0xaac43403
    3724:	00041e63          	bnez	s0,0x3740
    3728:	21d00613          	li	a2,541
    372c:	0000a597          	auipc	a1,0xa
    3730:	47c58593          	addi	a1,a1,1148 # 0xdba8
    3734:	0000a517          	auipc	a0,0xa
    3738:	99450513          	addi	a0,a0,-1644 # 0xd0c8
    373c:	859ff0ef          	jal	ra,0x2f94
    3740:	00040513          	mv	a0,s0
    3744:	121000ef          	jal	ra,0x4064
    3748:	00100793          	li	a5,1
    374c:	00f50e63          	beq	a0,a5,0x3768
    3750:	21e00613          	li	a2,542
    3754:	0000a597          	auipc	a1,0xa
    3758:	45458593          	addi	a1,a1,1108 # 0xdba8
    375c:	0000a517          	auipc	a0,0xa
    3760:	2bc50513          	addi	a0,a0,700 # 0xda18
    3764:	831ff0ef          	jal	ra,0x2f94
    3768:	8e9fc0ef          	jal	ra,0x50
    376c:	00050913          	mv	s2,a0
    3770:	00040513          	mv	a0,s0
    3774:	e8dff0ef          	jal	ra,0x3600
    3778:	08840493          	addi	s1,s0,136 # 0x197a4
    377c:	00c10613          	addi	a2,sp,12
    3780:	00000593          	li	a1,0
    3784:	00048513          	mv	a0,s1
    3788:	cb8fe0ef          	jal	ra,0x1c40
    378c:	00048513          	mv	a0,s1
    3790:	a60fe0ef          	jal	ra,0x19f0
    3794:	00090513          	mv	a0,s2
    3798:	8c1fc0ef          	jal	ra,0x58
    379c:	894fd0ef          	jal	ra,0x830
    37a0:	06043703          	0x6043703
    37a4:	ffe00793          	li	a5,-2
    37a8:	00f71463          	bne	a4,a5,0x37b0
    37ac:	06043023          	0x6043023
    37b0:	02813083          	0x2813083
    37b4:	02013403          	0x2013403
    37b8:	01813483          	0x1813483
    37bc:	01013903          	0x1013903
    37c0:	00000513          	li	a0,0
    37c4:	03010113          	addi	sp,sp,48
    37c8:	00008067          	ret
    37cc:	f39ff06f          	j	0x3704
    37d0:	ff010113          	addi	sp,sp,-16
    37d4:	00113423          	0x113423
    37d8:	af0fd0ef          	jal	ra,0xac8
    37dc:	00813083          	0x813083
    37e0:	0005051b          	0x5051b
    37e4:	01010113          	addi	sp,sp,16
    37e8:	f1dff06f          	j	0x3704
    37ec:	fe010113          	addi	sp,sp,-32
    37f0:	00813823          	0x813823
    37f4:	00113c23          	0x113c23
    37f8:	00913423          	0x913423
    37fc:	00050413          	mv	s0,a0
    3800:	00051e63          	bnez	a0,0x381c
    3804:	34400613          	li	a2,836
    3808:	0000a597          	auipc	a1,0xa
    380c:	3e058593          	addi	a1,a1,992 # 0xdbe8
    3810:	0000a517          	auipc	a0,0xa
    3814:	8b850513          	addi	a0,a0,-1864 # 0xd0c8
    3818:	f7cff0ef          	jal	ra,0x2f94
    381c:	00040513          	mv	a0,s0
    3820:	045000ef          	jal	ra,0x4064
    3824:	00100793          	li	a5,1
    3828:	00f50e63          	beq	a0,a5,0x3844
    382c:	34500613          	li	a2,837
    3830:	0000a597          	auipc	a1,0xa
    3834:	3b858593          	addi	a1,a1,952 # 0xdbe8
    3838:	0000a517          	auipc	a0,0xa
    383c:	1e050513          	addi	a0,a0,480 # 0xda18
    3840:	f54ff0ef          	jal	ra,0x2f94
    3844:	06844783          	lbu	a5,104(s0)
    3848:	00200713          	li	a4,2
    384c:	fff00513          	li	a0,-1
    3850:	0077f793          	andi	a5,a5,7
    3854:	04e79e63          	bne	a5,a4,0x38b0
    3858:	ff8fc0ef          	jal	ra,0x50
    385c:	02843683          	0x2843683
    3860:	03043703          	0x3043703
    3864:	02840793          	addi	a5,s0,40
    3868:	00050493          	mv	s1,a0
    386c:	00e6b423          	0xe6b423
    3870:	00d73023          	0xd73023
    3874:	02f43823          	0x2f43823
    3878:	02f43423          	0x2f43423
    387c:	08840513          	addi	a0,s0,136
    3880:	b08fe0ef          	jal	ra,0x1b88
    3884:	00040513          	mv	a0,s0
    3888:	e0dfc0ef          	jal	ra,0x694
    388c:	00048513          	mv	a0,s1
    3890:	fc8fc0ef          	jal	ra,0x58
    3894:	00016797          	auipc	a5,0x16
    3898:	9d47b783          	0x9d47b783
    389c:	00000513          	li	a0,0
    38a0:	00078863          	beqz	a5,0x38b0
    38a4:	00040513          	mv	a0,s0
    38a8:	000780e7          	jalr	a5 # 0x19894
    38ac:	00000513          	li	a0,0
    38b0:	01813083          	0x1813083
    38b4:	01013403          	0x1013403
    38b8:	00813483          	0x813483
    38bc:	02010113          	addi	sp,sp,32
    38c0:	00008067          	ret
    38c4:	ff010113          	addi	sp,sp,-16
    38c8:	00813023          	0x813023
    38cc:	00113423          	0x113423
    38d0:	00050413          	mv	s0,a0
    38d4:	00051e63          	bnez	a0,0x38f0
    38d8:	14100613          	li	a2,321
    38dc:	0000a597          	auipc	a1,0xa
    38e0:	28458593          	addi	a1,a1,644 # 0xdb60
    38e4:	00009517          	auipc	a0,0x9
    38e8:	7e450513          	addi	a0,a0,2020 # 0xd0c8
    38ec:	ea8ff0ef          	jal	ra,0x2f94
    38f0:	06844783          	lbu	a5,104(s0)
    38f4:	0077f793          	andi	a5,a5,7
    38f8:	00078e63          	beqz	a5,0x3914
    38fc:	14200613          	li	a2,322
    3900:	0000a597          	auipc	a1,0xa
    3904:	26058593          	addi	a1,a1,608 # 0xdb60
    3908:	0000a517          	auipc	a0,0xa
    390c:	20050513          	addi	a0,a0,512 # 0xdb08
    3910:	e84ff0ef          	jal	ra,0x2f94
    3914:	00040513          	mv	a0,s0
    3918:	74c000ef          	jal	ra,0x4064
    391c:	00100793          	li	a5,1
    3920:	00f50e63          	beq	a0,a5,0x393c
    3924:	14300613          	li	a2,323
    3928:	0000a597          	auipc	a1,0xa
    392c:	23858593          	addi	a1,a1,568 # 0xdb60
    3930:	0000a517          	auipc	a0,0xa
    3934:	0e850513          	addi	a0,a0,232 # 0xda18
    3938:	e5cff0ef          	jal	ra,0x2f94
    393c:	06a44703          	lbu	a4,106(s0)
    3940:	00100793          	li	a5,1
    3944:	00040513          	mv	a0,s0
    3948:	00e797b3          	sll	a5,a5,a4
    394c:	06f42623          	sw	a5,108(s0)
    3950:	00200793          	li	a5,2
    3954:	06f40423          	sb	a5,104(s0)
    3958:	06e404a3          	sb	a4,105(s0)
    395c:	e91ff0ef          	jal	ra,0x37ec
    3960:	00016797          	auipc	a5,0x16
    3964:	8687b783          	0x8687b783
    3968:	00078463          	beqz	a5,0x3970
    396c:	ec5fc0ef          	jal	ra,0x830
    3970:	00813083          	0x813083
    3974:	00013403          	0x13403
    3978:	00000513          	li	a0,0
    397c:	01010113          	addi	sp,sp,16
    3980:	00008067          	ret
    3984:	fc010113          	addi	sp,sp,-64
    3988:	02813823          	0x2813823
    398c:	02913423          	0x2913423
    3990:	03213023          	0x3213023
    3994:	02113c23          	0x2113c23
    3998:	01313c23          	0x1313c23
    399c:	00050413          	mv	s0,a0
    39a0:	00058493          	mv	s1,a1
    39a4:	00060913          	mv	s2,a2
    39a8:	00051e63          	bnez	a0,0x39c4
    39ac:	2a200613          	li	a2,674
    39b0:	0000a597          	auipc	a1,0xa
    39b4:	20858593          	addi	a1,a1,520 # 0xdbb8
    39b8:	00009517          	auipc	a0,0x9
    39bc:	71050513          	addi	a0,a0,1808 # 0xd0c8
    39c0:	dd4ff0ef          	jal	ra,0x2f94
    39c4:	00040513          	mv	a0,s0
    39c8:	69c000ef          	jal	ra,0x4064
    39cc:	00100793          	li	a5,1
    39d0:	00f50e63          	beq	a0,a5,0x39ec
    39d4:	2a300613          	li	a2,675
    39d8:	0000a597          	auipc	a1,0xa
    39dc:	1e058593          	addi	a1,a1,480 # 0xdbb8
    39e0:	0000a517          	auipc	a0,0xa
    39e4:	03850513          	addi	a0,a0,56 # 0xda18
    39e8:	dacff0ef          	jal	ra,0x2f94
    39ec:	00100993          	li	s3,1
    39f0:	0b348663          	beq	s1,s3,0x3a9c
    39f4:	00200793          	li	a5,2
    39f8:	02f48463          	beq	s1,a5,0x3a20
    39fc:	08048063          	beqz	s1,0x3a7c
    3a00:	00000513          	li	a0,0
    3a04:	03813083          	0x3813083
    3a08:	03013403          	0x3013403
    3a0c:	02813483          	0x2813483
    3a10:	02013903          	0x2013903
    3a14:	01813983          	0x1813983
    3a18:	04010113          	addi	sp,sp,64
    3a1c:	00008067          	ret
    3a20:	e30fc0ef          	jal	ra,0x50
    3a24:	06844783          	lbu	a5,104(s0)
    3a28:	00050493          	mv	s1,a0
    3a2c:	0077f793          	andi	a5,a5,7
    3a30:	03379a63          	bne	a5,s3,0x3a64
    3a34:	00040513          	mv	a0,s0
    3a38:	d09fc0ef          	jal	ra,0x740
    3a3c:	00094703          	lbu	a4,0(s2)
    3a40:	00100793          	li	a5,1
    3a44:	00040513          	mv	a0,s0
    3a48:	00e797bb          	0xe797bb
    3a4c:	06e404a3          	sb	a4,105(s0)
    3a50:	06f42623          	sw	a5,108(s0)
    3a54:	c41fc0ef          	jal	ra,0x694
    3a58:	00048513          	mv	a0,s1
    3a5c:	dfcfc0ef          	jal	ra,0x58
    3a60:	fa1ff06f          	j	0x3a00
    3a64:	00094703          	lbu	a4,0(s2)
    3a68:	00100793          	li	a5,1
    3a6c:	00e797bb          	0xe797bb
    3a70:	06e404a3          	sb	a4,105(s0)
    3a74:	06f42623          	sw	a5,108(s0)
    3a78:	fe1ff06f          	j	0x3a58
    3a7c:	00040513          	mv	a0,s0
    3a80:	03013403          	0x3013403
    3a84:	03813083          	0x3813083
    3a88:	02813483          	0x2813483
    3a8c:	02013903          	0x2013903
    3a90:	01813983          	0x1813983
    3a94:	04010113          	addi	sp,sp,64
    3a98:	e2dff06f          	j	0x38c4
    3a9c:	00040513          	mv	a0,s0
    3aa0:	580000ef          	jal	ra,0x4020
    3aa4:	00951e63          	bne	a0,s1,0x3ac0
    3aa8:	00040513          	mv	a0,s0
    3aac:	8c9ff0ef          	jal	ra,0x3374
    3ab0:	00a13423          	0xa13423
    3ab4:	d7dfc0ef          	jal	ra,0x830
    3ab8:	00813503          	0x813503
    3abc:	f49ff06f          	j	0x3a04
    3ac0:	00040513          	mv	a0,s0
    3ac4:	a5dff0ef          	jal	ra,0x3520
    3ac8:	fe9ff06f          	j	0x3ab0
    3acc:	0000d797          	auipc	a5,0xd
    3ad0:	4a478793          	addi	a5,a5,1188 # 0x10f70
    3ad4:	0007b683          	0x7b683
    3ad8:	02850713          	addi	a4,a0,40
    3adc:	00e7b023          	0xe7b023
    3ae0:	00e6b423          	0xe6b423
    3ae4:	02d53423          	0x2d53423
    3ae8:	02f53823          	0x2f53823
    3aec:	00008067          	ret
    3af0:	0000d717          	auipc	a4,0xd
    3af4:	48070713          	addi	a4,a4,1152 # 0x10f70
    3af8:	00073783          	0x73783
    3afc:	00000513          	li	a0,0
    3b00:	02e78063          	beq	a5,a4,0x3b20
    3b04:	0007b683          	0x7b683
    3b08:	0087b703          	0x87b703
    3b0c:	fd878513          	addi	a0,a5,-40
    3b10:	00e6b423          	0xe6b423
    3b14:	00d73023          	0xd73023
    3b18:	00f7b423          	0xf7b423
    3b1c:	00f7b023          	0xf7b023
    3b20:	00008067          	ret
    3b24:	fb010113          	addi	sp,sp,-80
    3b28:	03213823          	0x3213823
    3b2c:	03313423          	0x3313423
    3b30:	03413023          	0x3413023
    3b34:	01513c23          	0x1513c23
    3b38:	01613823          	0x1613823
    3b3c:	04113423          	0x4113423
    3b40:	04813023          	0x4813023
    3b44:	02913c23          	0x2913c23
    3b48:	01713423          	0x1713423
    3b4c:	0001a997          	auipc	s3,0x1a
    3b50:	dbc98993          	addi	s3,s3,-580 # 0x1d908
    3b54:	0000a917          	auipc	s2,0xa
    3b58:	0cc90913          	addi	s2,s2,204 # 0xdc20
    3b5c:	00009a17          	auipc	s4,0x9
    3b60:	79ca0a13          	addi	s4,s4,1948 # 0xd2f8
    3b64:	00009a97          	auipc	s5,0x9
    3b68:	7bca8a93          	addi	s5,s5,1980 # 0xd320
    3b6c:	00100b13          	li	s6,1
    3b70:	0001a417          	auipc	s0,0x1a
    3b74:	d7840413          	addi	s0,s0,-648 # 0x1d8e8
    3b78:	00043783          	0x43783
    3b7c:	00078463          	beqz	a5,0x3b84
    3b80:	000780e7          	jalr	a5
    3b84:	00840413          	addi	s0,s0,8
    3b88:	fe8998e3          	bne	s3,s0,0x3b78
    3b8c:	cc4fc0ef          	jal	ra,0x50
    3b90:	00050413          	mv	s0,a0
    3b94:	545000ef          	jal	ra,0x48d8
    3b98:	02050063          	beqz	a0,0x3bb8
    3b9c:	00090593          	mv	a1,s2
    3ba0:	000a0513          	mv	a0,s4
    3ba4:	a64ff0ef          	jal	ra,0x2e08
    3ba8:	0cb00613          	li	a2,203
    3bac:	00090593          	mv	a1,s2
    3bb0:	000a8513          	mv	a0,s5
    3bb4:	be0ff0ef          	jal	ra,0x2f94
    3bb8:	00040513          	mv	a0,s0
    3bbc:	c9cfc0ef          	jal	ra,0x58
    3bc0:	c90fc0ef          	jal	ra,0x50
    3bc4:	00050493          	mv	s1,a0
    3bc8:	f29ff0ef          	jal	ra,0x3af0
    3bcc:	00050413          	mv	s0,a0
    3bd0:	00051863          	bnez	a0,0x3be0
    3bd4:	00048513          	mv	a0,s1
    3bd8:	c80fc0ef          	jal	ra,0x58
    3bdc:	f95ff06f          	j	0x3b70
    3be0:	0d853b83          	0xd853b83
    3be4:	000b8e63          	beqz	s7,0x3c00
    3be8:	00048513          	mv	a0,s1
    3bec:	c6cfc0ef          	jal	ra,0x58
    3bf0:	00040513          	mv	a0,s0
    3bf4:	000b80e7          	jalr	s7
    3bf8:	c58fc0ef          	jal	ra,0x50
    3bfc:	00050493          	mv	s1,a0
    3c00:	00040513          	mv	a0,s0
    3c04:	41c000ef          	jal	ra,0x4020
    3c08:	01651c63          	bne	a0,s6,0x3c20
    3c0c:	00040513          	mv	a0,s0
    3c10:	1e8000ef          	jal	ra,0x3df8
    3c14:	00048513          	mv	a0,s1
    3c18:	c40fc0ef          	jal	ra,0x58
    3c1c:	f71ff06f          	j	0x3b8c
    3c20:	00048513          	mv	a0,s1
    3c24:	c34fc0ef          	jal	ra,0x58
    3c28:	05043503          	0x5043503
    3c2c:	82dfd0ef          	jal	ra,0x1458
    3c30:	00040513          	mv	a0,s0
    3c34:	350000ef          	jal	ra,0x3f84
    3c38:	f55ff06f          	j	0x3b8c
    3c3c:	fd010113          	addi	sp,sp,-48
    3c40:	00000613          	li	a2,0
    3c44:	0000a597          	auipc	a1,0xa
    3c48:	fd458593          	addi	a1,a1,-44 # 0xdc18
    3c4c:	00810513          	addi	a0,sp,8
    3c50:	02113423          	0x2113423
    3c54:	02813023          	0x2813023
    3c58:	8f8ff0ef          	jal	ra,0x2d50
    3c5c:	0001a417          	auipc	s0,0x1a
    3c60:	ba440413          	addi	s0,s0,-1116 # 0x1d800
    3c64:	00810593          	addi	a1,sp,8
    3c68:	02000893          	li	a7,32
    3c6c:	01f00813          	li	a6,31
    3c70:	000047b7          	lui	a5,0x4
    3c74:	0001a717          	auipc	a4,0x1a
    3c78:	c9470713          	addi	a4,a4,-876 # 0x1d908
    3c7c:	00000693          	li	a3,0
    3c80:	00000617          	auipc	a2,0x0
    3c84:	ea460613          	addi	a2,a2,-348 # 0x3b24
    3c88:	00040513          	mv	a0,s0
    3c8c:	e04ff0ef          	jal	ra,0x3290
    3c90:	00040513          	mv	a0,s0
    3c94:	c31ff0ef          	jal	ra,0x38c4
    3c98:	02813083          	0x2813083
    3c9c:	02013403          	0x2013403
    3ca0:	03010113          	addi	sp,sp,48
    3ca4:	00008067          	ret
    3ca8:	0000d697          	auipc	a3,0xd
    3cac:	2d868693          	addi	a3,a3,728 # 0x10f80
    3cb0:	00000793          	li	a5,0
    3cb4:	00068713          	mv	a4,a3
    3cb8:	00900613          	li	a2,9
    3cbc:	0006a583          	lw	a1,0(a3)
    3cc0:	00a59863          	bne	a1,a0,0x3cd0
    3cc4:	00579793          	slli	a5,a5,0x5
    3cc8:	00f70533          	add	a0,a4,a5
    3ccc:	00008067          	ret
    3cd0:	0017879b          	0x17879b
    3cd4:	02068693          	addi	a3,a3,32
    3cd8:	fec792e3          	bne	a5,a2,0x3cbc
    3cdc:	00000513          	li	a0,0
    3ce0:	00008067          	ret
    3ce4:	fb010113          	addi	sp,sp,-80
    3ce8:	04813023          	0x4813023
    3cec:	00050413          	mv	s0,a0
    3cf0:	00058513          	mv	a0,a1
    3cf4:	02913c23          	0x2913c23
    3cf8:	03213823          	0x3213823
    3cfc:	03413023          	0x3413023
    3d00:	04113423          	0x4113423
    3d04:	03313423          	0x3313423
    3d08:	01513c23          	0x1513c23
    3d0c:	01613823          	0x1613823
    3d10:	01713423          	0x1713423
    3d14:	00058913          	mv	s2,a1
    3d18:	00060a13          	mv	s4,a2
    3d1c:	f8dff0ef          	jal	ra,0x3ca8
    3d20:	00050493          	mv	s1,a0
    3d24:	00051e63          	bnez	a0,0x3d40
    3d28:	13800613          	li	a2,312
    3d2c:	0000a597          	auipc	a1,0xa
    3d30:	f7c58593          	addi	a1,a1,-132 # 0xdca8
    3d34:	0000a517          	auipc	a0,0xa
    3d38:	f0450513          	addi	a0,a0,-252 # 0xdc38
    3d3c:	a58ff0ef          	jal	ra,0x2f94
    3d40:	c71fc0ef          	jal	ra,0x9b0
    3d44:	0084b983          	0x84b983
    3d48:	00848a93          	addi	s5,s1,8
    3d4c:	0000ab17          	auipc	s6,0xa
    3d50:	f5cb0b13          	addi	s6,s6,-164 # 0xdca8
    3d54:	0000ab97          	auipc	s7,0xa
    3d58:	efcb8b93          	addi	s7,s7,-260 # 0xdc50
    3d5c:	07599e63          	bne	s3,s5,0x3dd8
    3d60:	c7dfc0ef          	jal	ra,0x9dc
    3d64:	f8096913          	ori	s2,s2,-128
    3d68:	01240a23          	sb	s2,20(s0)
    3d6c:	01400613          	li	a2,20
    3d70:	000a0593          	mv	a1,s4
    3d74:	00040513          	mv	a0,s0
    3d78:	8e1fe0ef          	jal	ra,0x2658
    3d7c:	00015797          	auipc	a5,0x15
    3d80:	4fc7b783          	0x4fc7b783
    3d84:	00078663          	beqz	a5,0x3d90
    3d88:	00040513          	mv	a0,s0
    3d8c:	000780e7          	jalr	a5 # 0x18d7c
    3d90:	ac0fc0ef          	jal	ra,0x50
    3d94:	0084b703          	0x84b703
    3d98:	01840793          	addi	a5,s0,24
    3d9c:	04813083          	0x4813083
    3da0:	00f73423          	0xf73423
    3da4:	00e43c23          	0xe43c23
    3da8:	00f4b423          	0xf4b423
    3dac:	03343023          	0x3343023
    3db0:	04013403          	0x4013403
    3db4:	03813483          	0x3813483
    3db8:	03013903          	0x3013903
    3dbc:	02813983          	0x2813983
    3dc0:	02013a03          	0x2013a03
    3dc4:	01813a83          	0x1813a83
    3dc8:	01013b03          	0x1013b03
    3dcc:	00813b83          	0x813b83
    3dd0:	05010113          	addi	sp,sp,80
    3dd4:	a84fc06f          	j	0x58
    3dd8:	fe898793          	addi	a5,s3,-24
    3ddc:	00f41a63          	bne	s0,a5,0x3df0
    3de0:	14800613          	li	a2,328
    3de4:	000b0593          	mv	a1,s6
    3de8:	000b8513          	mv	a0,s7
    3dec:	9a8ff0ef          	jal	ra,0x2f94
    3df0:	0009b983          	0x9b983
    3df4:	f69ff06f          	j	0x3d5c
    3df8:	ff010113          	addi	sp,sp,-16
    3dfc:	00813023          	0x813023
    3e00:	00113423          	0x113423
    3e04:	00050413          	mv	s0,a0
    3e08:	00051e63          	bnez	a0,0x3e24
    3e0c:	17500613          	li	a2,373
    3e10:	0000a597          	auipc	a1,0xa
    3e14:	ea858593          	addi	a1,a1,-344 # 0xdcb8
    3e18:	0000a517          	auipc	a0,0xa
    3e1c:	e4850513          	addi	a0,a0,-440 # 0xdc60
    3e20:	974ff0ef          	jal	ra,0x2f94
    3e24:	00015797          	auipc	a5,0x15
    3e28:	45c7b783          	0x45c7b783
    3e2c:	00078663          	beqz	a5,0x3e38
    3e30:	00040513          	mv	a0,s0
    3e34:	000780e7          	jalr	a5 # 0x18e24
    3e38:	00040a23          	sb	zero,20(s0)
    3e3c:	a14fc0ef          	jal	ra,0x50
    3e40:	01843683          	0x1843683
    3e44:	02043703          	0x2043703
    3e48:	01840793          	addi	a5,s0,24
    3e4c:	00813083          	0x813083
    3e50:	00e6b423          	0xe6b423
    3e54:	00d73023          	0xd73023
    3e58:	02f43023          	0x2f43023
    3e5c:	00f43c23          	0xf43c23
    3e60:	00013403          	0x13403
    3e64:	01010113          	addi	sp,sp,16
    3e68:	9f0fc06f          	j	0x58
    3e6c:	fd010113          	addi	sp,sp,-48
    3e70:	02813023          	0x2813023
    3e74:	01213823          	0x1213823
    3e78:	01313423          	0x1313423
    3e7c:	02113423          	0x2113423
    3e80:	00913c23          	0x913c23
    3e84:	00050913          	mv	s2,a0
    3e88:	00058993          	mv	s3,a1
    3e8c:	9c4fc0ef          	jal	ra,0x50
    3e90:	00050413          	mv	s0,a0
    3e94:	245000ef          	jal	ra,0x48d8
    3e98:	02050863          	beqz	a0,0x3ec8
    3e9c:	0000a597          	auipc	a1,0xa
    3ea0:	e3458593          	addi	a1,a1,-460 # 0xdcd0
    3ea4:	00009517          	auipc	a0,0x9
    3ea8:	45450513          	addi	a0,a0,1108 # 0xd2f8
    3eac:	f5dfe0ef          	jal	ra,0x2e08
    3eb0:	19800613          	li	a2,408
    3eb4:	0000a597          	auipc	a1,0xa
    3eb8:	e1c58593          	addi	a1,a1,-484 # 0xdcd0
    3ebc:	00009517          	auipc	a0,0x9
    3ec0:	46450513          	addi	a0,a0,1124 # 0xd320
    3ec4:	8d0ff0ef          	jal	ra,0x2f94
    3ec8:	00040513          	mv	a0,s0
    3ecc:	98cfc0ef          	jal	ra,0x58
    3ed0:	00090513          	mv	a0,s2
    3ed4:	dd5ff0ef          	jal	ra,0x3ca8
    3ed8:	00050493          	mv	s1,a0
    3edc:	00051e63          	bnez	a0,0x3ef8
    3ee0:	19c00613          	li	a2,412
    3ee4:	0000a597          	auipc	a1,0xa
    3ee8:	dec58593          	addi	a1,a1,-532 # 0xdcd0
    3eec:	0000a517          	auipc	a0,0xa
    3ef0:	d4c50513          	addi	a0,a0,-692 # 0xdc38
    3ef4:	8a0ff0ef          	jal	ra,0x2f94
    3ef8:	0184b503          	0x184b503
    3efc:	a0cfd0ef          	jal	ra,0x1108
    3f00:	00050413          	mv	s0,a0
    3f04:	06050063          	beqz	a0,0x3f64
    3f08:	0184b603          	0x184b603
    3f0c:	00000593          	li	a1,0
    3f10:	d28fe0ef          	jal	ra,0x2438
    3f14:	01400613          	li	a2,20
    3f18:	01240a23          	sb	s2,20(s0)
    3f1c:	00040aa3          	sb	zero,21(s0)
    3f20:	00098593          	mv	a1,s3
    3f24:	00040513          	mv	a0,s0
    3f28:	f30fe0ef          	jal	ra,0x2658
    3f2c:	00015797          	auipc	a5,0x15
    3f30:	34c7b783          	0x34c7b783
    3f34:	00078663          	beqz	a5,0x3f40
    3f38:	00040513          	mv	a0,s0
    3f3c:	000780e7          	jalr	a5 # 0x18f2c
    3f40:	910fc0ef          	jal	ra,0x50
    3f44:	0084b703          	0x84b703
    3f48:	01840793          	addi	a5,s0,24
    3f4c:	00848493          	addi	s1,s1,8
    3f50:	00f73423          	0xf73423
    3f54:	00e43c23          	0xe43c23
    3f58:	00f4b023          	0xf4b023
    3f5c:	02943023          	0x2943023
    3f60:	8f8fc0ef          	jal	ra,0x58
    3f64:	02813083          	0x2813083
    3f68:	00040513          	mv	a0,s0
    3f6c:	02013403          	0x2013403
    3f70:	01813483          	0x1813483
    3f74:	01013903          	0x1013903
    3f78:	00813983          	0x813983
    3f7c:	03010113          	addi	sp,sp,48
    3f80:	00008067          	ret
    3f84:	ff010113          	addi	sp,sp,-16
    3f88:	00813023          	0x813023
    3f8c:	00113423          	0x113423
    3f90:	00050413          	mv	s0,a0
    3f94:	00051e63          	bnez	a0,0x3fb0
    3f98:	1d600613          	li	a2,470
    3f9c:	0000a597          	auipc	a1,0xa
    3fa0:	d4c58593          	addi	a1,a1,-692 # 0xdce8
    3fa4:	0000a517          	auipc	a0,0xa
    3fa8:	cbc50513          	addi	a0,a0,-836 # 0xdc60
    3fac:	fe9fe0ef          	jal	ra,0x2f94
    3fb0:	01440783          	lb	a5,20(s0)
    3fb4:	0007de63          	bgez	a5,0x3fd0
    3fb8:	1d700613          	li	a2,471
    3fbc:	0000a597          	auipc	a1,0xa
    3fc0:	d2c58593          	addi	a1,a1,-724 # 0xdce8
    3fc4:	0000a517          	auipc	a0,0xa
    3fc8:	cb450513          	addi	a0,a0,-844 # 0xdc78
    3fcc:	fc9fe0ef          	jal	ra,0x2f94
    3fd0:	00015797          	auipc	a5,0x15
    3fd4:	2b07b783          	0x2b07b783
    3fd8:	00078663          	beqz	a5,0x3fe4
    3fdc:	00040513          	mv	a0,s0
    3fe0:	000780e7          	jalr	a5 # 0x18fd0
    3fe4:	00040a23          	sb	zero,20(s0)
    3fe8:	868fc0ef          	jal	ra,0x50
    3fec:	01843683          	0x1843683
    3ff0:	02043703          	0x2043703
    3ff4:	01840793          	addi	a5,s0,24
    3ff8:	00e6b423          	0xe6b423
    3ffc:	00d73023          	0xd73023
    4000:	02f43023          	0x2f43023
    4004:	00f43c23          	0xf43c23
    4008:	850fc0ef          	jal	ra,0x58
    400c:	00040513          	mv	a0,s0
    4010:	00013403          	0x13403
    4014:	00813083          	0x813083
    4018:	01010113          	addi	sp,sp,16
    401c:	c3cfd06f          	j	0x1458
    4020:	ff010113          	addi	sp,sp,-16
    4024:	00813023          	0x813023
    4028:	00113423          	0x113423
    402c:	00050413          	mv	s0,a0
    4030:	00051e63          	bnez	a0,0x404c
    4034:	1f800613          	li	a2,504
    4038:	0000a597          	auipc	a1,0xa
    403c:	cc858593          	addi	a1,a1,-824 # 0xdd00
    4040:	0000a517          	auipc	a0,0xa
    4044:	c2050513          	addi	a0,a0,-992 # 0xdc60
    4048:	f4dfe0ef          	jal	ra,0x2f94
    404c:	01440503          	lb	a0,20(s0)
    4050:	00813083          	0x813083
    4054:	00013403          	0x13403
    4058:	01f5551b          	0x1f5551b
    405c:	01010113          	addi	sp,sp,16
    4060:	00008067          	ret
    4064:	ff010113          	addi	sp,sp,-16
    4068:	00813023          	0x813023
    406c:	00113423          	0x113423
    4070:	00050413          	mv	s0,a0
    4074:	00051e63          	bnez	a0,0x4090
    4078:	20b00613          	li	a2,523
    407c:	0000a597          	auipc	a1,0xa
    4080:	ca458593          	addi	a1,a1,-860 # 0xdd20
    4084:	0000a517          	auipc	a0,0xa
    4088:	bdc50513          	addi	a0,a0,-1060 # 0xdc60
    408c:	f09fe0ef          	jal	ra,0x2f94
    4090:	01444503          	lbu	a0,20(s0)
    4094:	00813083          	0x813083
    4098:	00013403          	0x13403
    409c:	07f57513          	andi	a0,a0,127
    40a0:	01010113          	addi	sp,sp,16
    40a4:	00008067          	ret
    40a8:	fd010113          	addi	sp,sp,-48
    40ac:	01213823          	0x1213823
    40b0:	00050913          	mv	s2,a0
    40b4:	00058513          	mv	a0,a1
    40b8:	02113423          	0x2113423
    40bc:	02813023          	0x2813023
    40c0:	00913c23          	0x913c23
    40c4:	01313423          	0x1313423
    40c8:	be1ff0ef          	jal	ra,0x3ca8
    40cc:	06090263          	beqz	s2,0x4130
    40d0:	00050413          	mv	s0,a0
    40d4:	08050063          	beqz	a0,0x4154
    40d8:	f79fb0ef          	jal	ra,0x50
    40dc:	00050493          	mv	s1,a0
    40e0:	7f8000ef          	jal	ra,0x48d8
    40e4:	02050863          	beqz	a0,0x4114
    40e8:	0000a597          	auipc	a1,0xa
    40ec:	c5058593          	addi	a1,a1,-944 # 0xdd38
    40f0:	00009517          	auipc	a0,0x9
    40f4:	20850513          	addi	a0,a0,520 # 0xd2f8
    40f8:	d11fe0ef          	jal	ra,0x2e08
    40fc:	22800613          	li	a2,552
    4100:	0000a597          	auipc	a1,0xa
    4104:	c3858593          	addi	a1,a1,-968 # 0xdd38
    4108:	00009517          	auipc	a0,0x9
    410c:	21850513          	addi	a0,a0,536 # 0xd320
    4110:	e85fe0ef          	jal	ra,0x2f94
    4114:	00048513          	mv	a0,s1
    4118:	f41fb0ef          	jal	ra,0x58
    411c:	895fc0ef          	jal	ra,0x9b0
    4120:	00843483          	0x843483
    4124:	00840993          	addi	s3,s0,8
    4128:	01349863          	bne	s1,s3,0x4138
    412c:	8b1fc0ef          	jal	ra,0x9dc
    4130:	00000413          	li	s0,0
    4134:	0200006f          	j	0x4154
    4138:	fe848413          	addi	s0,s1,-24
    413c:	01400613          	li	a2,20
    4140:	00090593          	mv	a1,s2
    4144:	00040513          	mv	a0,s0
    4148:	d54fe0ef          	jal	ra,0x269c
    414c:	02051463          	bnez	a0,0x4174
    4150:	88dfc0ef          	jal	ra,0x9dc
    4154:	02813083          	0x2813083
    4158:	00040513          	mv	a0,s0
    415c:	02013403          	0x2013403
    4160:	01813483          	0x1813483
    4164:	01013903          	0x1013903
    4168:	00813983          	0x813983
    416c:	03010113          	addi	sp,sp,48
    4170:	00008067          	ret
    4174:	0004b483          	0x4b483
    4178:	fb1ff06f          	j	0x4128
    417c:	00900593          	li	a1,9
    4180:	f29ff06f          	j	0x40a8
    4184:	02051463          	bnez	a0,0x41ac
    4188:	fff00513          	li	a0,-1
    418c:	00008067          	ret
    4190:	fff00513          	li	a0,-1
    4194:	01813083          	0x1813083
    4198:	01013403          	0x1013403
    419c:	00813483          	0x813483
    41a0:	00013903          	0x13903
    41a4:	02010113          	addi	sp,sp,32
    41a8:	00008067          	ret
    41ac:	fe010113          	addi	sp,sp,-32
    41b0:	00813823          	0x813823
    41b4:	00050413          	mv	s0,a0
    41b8:	00058513          	mv	a0,a1
    41bc:	00913423          	0x913423
    41c0:	01213023          	0x1213023
    41c4:	00113c23          	0x113c23
    41c8:	00058493          	mv	s1,a1
    41cc:	00060913          	mv	s2,a2
    41d0:	fadff0ef          	jal	ra,0x417c
    41d4:	fa051ee3          	bnez	a0,0x4190
    41d8:	00040513          	mv	a0,s0
    41dc:	00048613          	mv	a2,s1
    41e0:	00900593          	li	a1,9
    41e4:	b01ff0ef          	jal	ra,0x3ce4
    41e8:	00000513          	li	a0,0
    41ec:	03241623          	sh	s2,44(s0)
    41f0:	02040823          	sb	zero,48(s0)
    41f4:	02041723          	sh	zero,46(s0)
    41f8:	f9dff06f          	j	0x4194
    41fc:	fe010113          	addi	sp,sp,-32
    4200:	00813823          	0x813823
    4204:	01213023          	0x1213023
    4208:	00113c23          	0x113c23
    420c:	00913423          	0x913423
    4210:	00050413          	mv	s0,a0
    4214:	00058913          	mv	s2,a1
    4218:	00051e63          	bnez	a0,0x4234
    421c:	0c900613          	li	a2,201
    4220:	0000a597          	auipc	a1,0xa
    4224:	bf058593          	addi	a1,a1,-1040 # 0xde10
    4228:	0000a517          	auipc	a0,0xa
    422c:	b2050513          	addi	a0,a0,-1248 # 0xdd48
    4230:	d65fe0ef          	jal	ra,0x2f94
    4234:	00040513          	mv	a0,s0
    4238:	e2dff0ef          	jal	ra,0x4064
    423c:	00900793          	li	a5,9
    4240:	00f50e63          	beq	a0,a5,0x425c
    4244:	0ca00613          	li	a2,202
    4248:	0000a597          	auipc	a1,0xa
    424c:	bc858593          	addi	a1,a1,-1080 # 0xde10
    4250:	0000a517          	auipc	a0,0xa
    4254:	b0850513          	addi	a0,a0,-1272 # 0xdd58
    4258:	d3dfe0ef          	jal	ra,0x2f94
    425c:	02c45783          	lhu	a5,44(s0)
    4260:	0107f793          	andi	a5,a5,16
    4264:	04079c63          	bnez	a5,0x42bc
    4268:	04843783          	0x4843783
    426c:	04078263          	beqz	a5,0x42b0
    4270:	00040513          	mv	a0,s0
    4274:	000780e7          	jalr	a5
    4278:	00050493          	mv	s1,a0
    427c:	02050a63          	beqz	a0,0x42b0
    4280:	00050613          	mv	a2,a0
    4284:	00040593          	mv	a1,s0
    4288:	0000a517          	auipc	a0,0xa
    428c:	b3850513          	addi	a0,a0,-1224 # 0xddc0
    4290:	b79fe0ef          	jal	ra,0x2e08
    4294:	01813083          	0x1813083
    4298:	01013403          	0x1013403
    429c:	00013903          	0x13903
    42a0:	00048513          	mv	a0,s1
    42a4:	00813483          	0x813483
    42a8:	02010113          	addi	sp,sp,32
    42ac:	00008067          	ret
    42b0:	02c45783          	lhu	a5,44(s0)
    42b4:	0107e793          	ori	a5,a5,16
    42b8:	02f41623          	sh	a5,44(s0)
    42bc:	02c45783          	lhu	a5,44(s0)
    42c0:	0087f793          	andi	a5,a5,8
    42c4:	00078a63          	beqz	a5,0x42d8
    42c8:	02e45783          	lhu	a5,46(s0)
    42cc:	ff900493          	li	s1,-7
    42d0:	0087f793          	andi	a5,a5,8
    42d4:	fc0790e3          	bnez	a5,0x4294
    42d8:	05043783          	0x5043783
    42dc:	04078a63          	beqz	a5,0x4330
    42e0:	00090593          	mv	a1,s2
    42e4:	00040513          	mv	a0,s0
    42e8:	000780e7          	jalr	a5
    42ec:	00050493          	mv	s1,a0
    42f0:	04051c63          	bnez	a0,0x4348
    42f4:	02e45783          	lhu	a5,46(s0)
    42f8:	0087e793          	ori	a5,a5,8
    42fc:	02f41723          	sh	a5,46(s0)
    4300:	03044783          	lbu	a5,48(s0)
    4304:	0017879b          	0x17879b
    4308:	0ff7f793          	andi	a5,a5,255
    430c:	02f40823          	sb	a5,48(s0)
    4310:	f80792e3          	bnez	a5,0x4294
    4314:	0f800613          	li	a2,248
    4318:	0000a597          	auipc	a1,0xa
    431c:	af858593          	addi	a1,a1,-1288 # 0xde10
    4320:	0000a517          	auipc	a0,0xa
    4324:	ad850513          	addi	a0,a0,-1320 # 0xddf8
    4328:	c6dfe0ef          	jal	ra,0x2f94
    432c:	f69ff06f          	j	0x4294
    4330:	000015b7          	lui	a1,0x1
    4334:	f0f58593          	addi	a1,a1,-241 # 0xf0f
    4338:	00b97933          	and	s2,s2,a1
    433c:	03241723          	sh	s2,46(s0)
    4340:	00000493          	li	s1,0
    4344:	fb1ff06f          	j	0x42f4
    4348:	ffa00793          	li	a5,-6
    434c:	f4f514e3          	bne	a0,a5,0x4294
    4350:	fa5ff06f          	j	0x42f4
    4354:	ff010113          	addi	sp,sp,-16
    4358:	00813023          	0x813023
    435c:	00113423          	0x113423
    4360:	00050413          	mv	s0,a0
    4364:	00051e63          	bnez	a0,0x4380
    4368:	10a00613          	li	a2,266
    436c:	0000a597          	auipc	a1,0xa
    4370:	ab458593          	addi	a1,a1,-1356 # 0xde20
    4374:	0000a517          	auipc	a0,0xa
    4378:	9d450513          	addi	a0,a0,-1580 # 0xdd48
    437c:	c19fe0ef          	jal	ra,0x2f94
    4380:	00040513          	mv	a0,s0
    4384:	ce1ff0ef          	jal	ra,0x4064
    4388:	00900793          	li	a5,9
    438c:	00f50e63          	beq	a0,a5,0x43a8
    4390:	10b00613          	li	a2,267
    4394:	0000a597          	auipc	a1,0xa
    4398:	a8c58593          	addi	a1,a1,-1396 # 0xde20
    439c:	0000a517          	auipc	a0,0xa
    43a0:	9bc50513          	addi	a0,a0,-1604 # 0xdd58
    43a4:	bf1fe0ef          	jal	ra,0x2f94
    43a8:	03044783          	lbu	a5,48(s0)
    43ac:	fff00513          	li	a0,-1
    43b0:	04078063          	beqz	a5,0x43f0
    43b4:	fff7879b          	0xfff7879b
    43b8:	0ff7f793          	andi	a5,a5,255
    43bc:	02f40823          	sb	a5,48(s0)
    43c0:	00000513          	li	a0,0
    43c4:	02079663          	bnez	a5,0x43f0
    43c8:	05843783          	0x5843783
    43cc:	00079863          	bnez	a5,0x43dc
    43d0:	00000513          	li	a0,0
    43d4:	02041723          	sh	zero,46(s0)
    43d8:	0180006f          	j	0x43f0
    43dc:	00040513          	mv	a0,s0
    43e0:	000780e7          	jalr	a5
    43e4:	fe0506e3          	beqz	a0,0x43d0
    43e8:	ffa00793          	li	a5,-6
    43ec:	fef504e3          	beq	a0,a5,0x43d4
    43f0:	00813083          	0x813083
    43f4:	00013403          	0x13403
    43f8:	01010113          	addi	sp,sp,16
    43fc:	00008067          	ret
    4400:	fd010113          	addi	sp,sp,-48
    4404:	02813023          	0x2813023
    4408:	00913c23          	0x913c23
    440c:	01213823          	0x1213823
    4410:	01313423          	0x1313423
    4414:	02113423          	0x2113423
    4418:	00050413          	mv	s0,a0
    441c:	00058493          	mv	s1,a1
    4420:	00060913          	mv	s2,a2
    4424:	00068993          	mv	s3,a3
    4428:	00051e63          	bnez	a0,0x4444
    442c:	13400613          	li	a2,308
    4430:	0000a597          	auipc	a1,0xa
    4434:	a0058593          	addi	a1,a1,-1536 # 0xde30
    4438:	0000a517          	auipc	a0,0xa
    443c:	91050513          	addi	a0,a0,-1776 # 0xdd48
    4440:	b55fe0ef          	jal	ra,0x2f94
    4444:	00040513          	mv	a0,s0
    4448:	c1dff0ef          	jal	ra,0x4064
    444c:	00900793          	li	a5,9
    4450:	00f50e63          	beq	a0,a5,0x446c
    4454:	13500613          	li	a2,309
    4458:	0000a597          	auipc	a1,0xa
    445c:	9d858593          	addi	a1,a1,-1576 # 0xde30
    4460:	0000a517          	auipc	a0,0xa
    4464:	8f850513          	addi	a0,a0,-1800 # 0xdd58
    4468:	b2dfe0ef          	jal	ra,0x2f94
    446c:	03044783          	lbu	a5,48(s0)
    4470:	fff00513          	li	a0,-1
    4474:	02078e63          	beqz	a5,0x44b0
    4478:	06043303          	0x6043303
    447c:	02030863          	beqz	t1,0x44ac
    4480:	00040513          	mv	a0,s0
    4484:	02013403          	0x2013403
    4488:	02813083          	0x2813083
    448c:	00098693          	mv	a3,s3
    4490:	00090613          	mv	a2,s2
    4494:	00813983          	0x813983
    4498:	01013903          	0x1013903
    449c:	00048593          	mv	a1,s1
    44a0:	01813483          	0x1813483
    44a4:	03010113          	addi	sp,sp,48
    44a8:	00030067          	jr	t1
    44ac:	ffa00513          	li	a0,-6
    44b0:	f49fd0ef          	jal	ra,0x23f8
    44b4:	02813083          	0x2813083
    44b8:	02013403          	0x2013403
    44bc:	01813483          	0x1813483
    44c0:	01013903          	0x1013903
    44c4:	00813983          	0x813983
    44c8:	00000513          	li	a0,0
    44cc:	03010113          	addi	sp,sp,48
    44d0:	00008067          	ret
    44d4:	fd010113          	addi	sp,sp,-48
    44d8:	02813023          	0x2813023
    44dc:	00913c23          	0x913c23
    44e0:	01213823          	0x1213823
    44e4:	01313423          	0x1313423
    44e8:	02113423          	0x2113423
    44ec:	00050413          	mv	s0,a0
    44f0:	00058493          	mv	s1,a1
    44f4:	00060913          	mv	s2,a2
    44f8:	00068993          	mv	s3,a3
    44fc:	00051e63          	bnez	a0,0x4518
    4500:	15b00613          	li	a2,347
    4504:	0000a597          	auipc	a1,0xa
    4508:	93c58593          	addi	a1,a1,-1732 # 0xde40
    450c:	0000a517          	auipc	a0,0xa
    4510:	83c50513          	addi	a0,a0,-1988 # 0xdd48
    4514:	a81fe0ef          	jal	ra,0x2f94
    4518:	00040513          	mv	a0,s0
    451c:	b49ff0ef          	jal	ra,0x4064
    4520:	00900793          	li	a5,9
    4524:	00f50e63          	beq	a0,a5,0x4540
    4528:	15c00613          	li	a2,348
    452c:	0000a597          	auipc	a1,0xa
    4530:	91458593          	addi	a1,a1,-1772 # 0xde40
    4534:	0000a517          	auipc	a0,0xa
    4538:	82450513          	addi	a0,a0,-2012 # 0xdd58
    453c:	a59fe0ef          	jal	ra,0x2f94
    4540:	03044783          	lbu	a5,48(s0)
    4544:	fff00513          	li	a0,-1
    4548:	02078e63          	beqz	a5,0x4584
    454c:	06843303          	0x6843303
    4550:	02030863          	beqz	t1,0x4580
    4554:	00040513          	mv	a0,s0
    4558:	02013403          	0x2013403
    455c:	02813083          	0x2813083
    4560:	00098693          	mv	a3,s3
    4564:	00090613          	mv	a2,s2
    4568:	00813983          	0x813983
    456c:	01013903          	0x1013903
    4570:	00048593          	mv	a1,s1
    4574:	01813483          	0x1813483
    4578:	03010113          	addi	sp,sp,48
    457c:	00030067          	jr	t1
    4580:	ffa00513          	li	a0,-6
    4584:	e75fd0ef          	jal	ra,0x23f8
    4588:	02813083          	0x2813083
    458c:	02013403          	0x2013403
    4590:	01813483          	0x1813483
    4594:	01013903          	0x1013903
    4598:	00813983          	0x813983
    459c:	00000513          	li	a0,0
    45a0:	03010113          	addi	sp,sp,48
    45a4:	00008067          	ret
    45a8:	fe010113          	addi	sp,sp,-32
    45ac:	00813823          	0x813823
    45b0:	00913423          	0x913423
    45b4:	01213023          	0x1213023
    45b8:	00113c23          	0x113c23
    45bc:	00050413          	mv	s0,a0
    45c0:	00058493          	mv	s1,a1
    45c4:	00060913          	mv	s2,a2
    45c8:	00051e63          	bnez	a0,0x45e4
    45cc:	17c00613          	li	a2,380
    45d0:	0000a597          	auipc	a1,0xa
    45d4:	88058593          	addi	a1,a1,-1920 # 0xde50
    45d8:	00009517          	auipc	a0,0x9
    45dc:	77050513          	addi	a0,a0,1904 # 0xdd48
    45e0:	9b5fe0ef          	jal	ra,0x2f94
    45e4:	00040513          	mv	a0,s0
    45e8:	a7dff0ef          	jal	ra,0x4064
    45ec:	00900793          	li	a5,9
    45f0:	00f50e63          	beq	a0,a5,0x460c
    45f4:	17d00613          	li	a2,381
    45f8:	0000a597          	auipc	a1,0xa
    45fc:	85858593          	addi	a1,a1,-1960 # 0xde50
    4600:	00009517          	auipc	a0,0x9
    4604:	75850513          	addi	a0,a0,1880 # 0xdd58
    4608:	98dfe0ef          	jal	ra,0x2f94
    460c:	07043303          	0x7043303
    4610:	02030463          	beqz	t1,0x4638
    4614:	00040513          	mv	a0,s0
    4618:	01013403          	0x1013403
    461c:	01813083          	0x1813083
    4620:	00090613          	mv	a2,s2
    4624:	00048593          	mv	a1,s1
    4628:	00013903          	0x13903
    462c:	00813483          	0x813483
    4630:	02010113          	addi	sp,sp,32
    4634:	00030067          	jr	t1
    4638:	01813083          	0x1813083
    463c:	01013403          	0x1013403
    4640:	00813483          	0x813483
    4644:	00013903          	0x13903
    4648:	ffa00513          	li	a0,-6
    464c:	02010113          	addi	sp,sp,32
    4650:	00008067          	ret
    4654:	fe010113          	addi	sp,sp,-32
    4658:	00813823          	0x813823
    465c:	00913423          	0x913423
    4660:	00113c23          	0x113c23
    4664:	00050413          	mv	s0,a0
    4668:	00058493          	mv	s1,a1
    466c:	00051e63          	bnez	a0,0x4688
    4670:	19600613          	li	a2,406
    4674:	00009597          	auipc	a1,0x9
    4678:	7f458593          	addi	a1,a1,2036 # 0xde68
    467c:	00009517          	auipc	a0,0x9
    4680:	6cc50513          	addi	a0,a0,1740 # 0xdd48
    4684:	911fe0ef          	jal	ra,0x2f94
    4688:	00040513          	mv	a0,s0
    468c:	9d9ff0ef          	jal	ra,0x4064
    4690:	00900793          	li	a5,9
    4694:	00f50e63          	beq	a0,a5,0x46b0
    4698:	19700613          	li	a2,407
    469c:	00009597          	auipc	a1,0x9
    46a0:	7cc58593          	addi	a1,a1,1996 # 0xde68
    46a4:	00009517          	auipc	a0,0x9
    46a8:	6b450513          	addi	a0,a0,1716 # 0xdd58
    46ac:	8e9fe0ef          	jal	ra,0x2f94
    46b0:	02943c23          	0x2943c23
    46b4:	01813083          	0x1813083
    46b8:	01013403          	0x1013403
    46bc:	00813483          	0x813483
    46c0:	00000513          	li	a0,0
    46c4:	02010113          	addi	sp,sp,32
    46c8:	00008067          	ret
    46cc:	00000513          	li	a0,0
    46d0:	00008067          	ret
    46d4:	00000513          	li	a0,0
    46d8:	00008067          	ret
    46dc:	00000513          	li	a0,0
    46e0:	00008067          	ret
    46e4:	00000513          	li	a0,0
    46e8:	00008067          	ret
    46ec:	fe010113          	addi	sp,sp,-32
    46f0:	00813823          	0x813823
    46f4:	00913423          	0x913423
    46f8:	00113c23          	0x113c23
    46fc:	0000d417          	auipc	s0,0xd
    4700:	82c40413          	addi	s0,s0,-2004 # 0x10f28
    4704:	0000d497          	auipc	s1,0xd
    4708:	82c48493          	addi	s1,s1,-2004 # 0x10f30
    470c:	00946c63          	bltu	s0,s1,0x4724
    4710:	01813083          	0x1813083
    4714:	01013403          	0x1013403
    4718:	00813483          	0x813483
    471c:	02010113          	addi	sp,sp,32
    4720:	00008067          	ret
    4724:	00043783          	0x43783
    4728:	00840413          	addi	s0,s0,8
    472c:	000780e7          	jalr	a5
    4730:	fddff06f          	j	0x470c
    4734:	fe010113          	addi	sp,sp,-32
    4738:	00813823          	0x813823
    473c:	00913423          	0x913423
    4740:	00113c23          	0x113c23
    4744:	0000c417          	auipc	s0,0xc
    4748:	7ec40413          	addi	s0,s0,2028 # 0x10f30
    474c:	0000d497          	auipc	s1,0xd
    4750:	80448493          	addi	s1,s1,-2044 # 0x10f50
    4754:	00946c63          	bltu	s0,s1,0x476c
    4758:	01813083          	0x1813083
    475c:	01013403          	0x1013403
    4760:	00813483          	0x813483
    4764:	02010113          	addi	sp,sp,32
    4768:	00008067          	ret
    476c:	00043783          	0x43783
    4770:	00840413          	addi	s0,s0,8
    4774:	000780e7          	jalr	a5
    4778:	fddff06f          	j	0x4754
    477c:	ff010113          	addi	sp,sp,-16
    4780:	00113423          	0x113423
    4784:	fb1ff0ef          	jal	ra,0x4734
    4788:	00813083          	0x813083
    478c:	01010113          	addi	sp,sp,16
    4790:	b39fb06f          	j	0x2c8
    4794:	ff010113          	addi	sp,sp,-16
    4798:	01400793          	li	a5,20
    479c:	00a00713          	li	a4,10
    47a0:	000046b7          	lui	a3,0x4
    47a4:	00000613          	li	a2,0
    47a8:	00000597          	auipc	a1,0x0
    47ac:	fd458593          	addi	a1,a1,-44 # 0x477c
    47b0:	00009517          	auipc	a0,0x9
    47b4:	6d850513          	addi	a0,a0,1752 # 0xde88
    47b8:	00813023          	0x813023
    47bc:	00113423          	0x113423
    47c0:	cb1fe0ef          	jal	ra,0x3470
    47c4:	00050413          	mv	s0,a0
    47c8:	00051e63          	bnez	a0,0x47e4
    47cc:	0cb00613          	li	a2,203
    47d0:	00009597          	auipc	a1,0x9
    47d4:	6d058593          	addi	a1,a1,1744 # 0xdea0
    47d8:	00009517          	auipc	a0,0x9
    47dc:	6b850513          	addi	a0,a0,1720 # 0xde90
    47e0:	fb4fe0ef          	jal	ra,0x2f94
    47e4:	00040513          	mv	a0,s0
    47e8:	00013403          	0x13403
    47ec:	00813083          	0x813083
    47f0:	01010113          	addi	sp,sp,16
    47f4:	8d0ff06f          	j	0x38c4
    47f8:	ff010113          	addi	sp,sp,-16
    47fc:	00113423          	0x113423
    4800:	851fb0ef          	jal	ra,0x50
    4804:	b71fb0ef          	jal	ra,0x374
    4808:	eb4fe0ef          	jal	ra,0x2ebc
    480c:	891fd0ef          	jal	ra,0x209c
    4810:	e51fb0ef          	jal	ra,0x660
    4814:	f81ff0ef          	jal	ra,0x4794
    4818:	899fd0ef          	jal	ra,0x20b0
    481c:	c20ff0ef          	jal	ra,0x3c3c
    4820:	fb5fb0ef          	jal	ra,0x7d4
    4824:	00813083          	0x813083
    4828:	00000513          	li	a0,0
    482c:	01010113          	addi	sp,sp,16
    4830:	00008067          	ret
    4834:	ff010113          	addi	sp,sp,-16
    4838:	00113423          	0x113423
    483c:	fbdff0ef          	jal	ra,0x47f8
    4840:	00813083          	0x813083
    4844:	00000513          	li	a0,0
    4848:	01010113          	addi	sp,sp,16
    484c:	00008067          	ret
    4850:	fe010113          	addi	sp,sp,-32
    4854:	00113c23          	0x113c23
    4858:	ff8fb0ef          	jal	ra,0x50
    485c:	00015797          	auipc	a5,0x15
    4860:	a547c783          	lbu	a5,-1452(a5) # 0x192b0
    4864:	0017879b          	0x17879b
    4868:	00015717          	auipc	a4,0x15
    486c:	a4f70423          	sb	a5,-1464(a4) # 0x192b0
    4870:	00015797          	auipc	a5,0x15
    4874:	a307b783          	0xa307b783
    4878:	00078863          	beqz	a5,0x4888
    487c:	00a13423          	0xa13423
    4880:	000780e7          	jalr	a5 # 0x19870
    4884:	00813503          	0x813503
    4888:	01813083          	0x1813083
    488c:	02010113          	addi	sp,sp,32
    4890:	fc8fb06f          	j	0x58
    4894:	fe010113          	addi	sp,sp,-32
    4898:	00113c23          	0x113c23
    489c:	fb4fb0ef          	jal	ra,0x50
    48a0:	00015797          	auipc	a5,0x15
    48a4:	a087b783          	0xa087b783
    48a8:	00078863          	beqz	a5,0x48b8
    48ac:	00a13423          	0xa13423
    48b0:	000780e7          	jalr	a5 # 0x198a0
    48b4:	00813503          	0x813503
    48b8:	00015797          	auipc	a5,0x15
    48bc:	9f87c783          	lbu	a5,-1544(a5) # 0x192b0
    48c0:	01813083          	0x1813083
    48c4:	fff7879b          	0xfff7879b
    48c8:	00015717          	auipc	a4,0x15
    48cc:	9ef70423          	sb	a5,-1560(a4) # 0x192b0
    48d0:	02010113          	addi	sp,sp,32
    48d4:	f84fb06f          	j	0x58
    48d8:	ff010113          	addi	sp,sp,-16
    48dc:	00113423          	0x113423
    48e0:	00813023          	0x813023
    48e4:	f6cfb0ef          	jal	ra,0x50
    48e8:	00015417          	auipc	s0,0x15
    48ec:	9c844403          	lbu	s0,-1592(s0) # 0x192b0
    48f0:	f68fb0ef          	jal	ra,0x58
    48f4:	00813083          	0x813083
    48f8:	00040513          	mv	a0,s0
    48fc:	00013403          	0x13403
    4900:	01010113          	addi	sp,sp,16
    4904:	00008067          	ret
    4908:	ff010113          	addi	sp,sp,-16
    490c:	fd850513          	addi	a0,a0,-40
    4910:	00113423          	0x113423
    4914:	ed9fe0ef          	jal	ra,0x37ec
    4918:	00813083          	0x813083
    491c:	00000513          	li	a0,0
    4920:	01010113          	addi	sp,sp,16
    4924:	00008067          	ret
    4928:	fe010113          	addi	sp,sp,-32
    492c:	00913423          	0x913423
    4930:	01213023          	0x1213023
    4934:	00050493          	mv	s1,a0
    4938:	00060913          	mv	s2,a2
    493c:	00058513          	mv	a0,a1
    4940:	00813823          	0x813823
    4944:	00113c23          	0x113c23
    4948:	00058413          	mv	s0,a1
    494c:	cb5fe0ef          	jal	ra,0x3600
    4950:	02090463          	beqz	s2,0x4978
    4954:	00100793          	li	a5,1
    4958:	04f90a63          	beq	s2,a5,0x49ac
    495c:	07f00613          	li	a2,127
    4960:	00009597          	auipc	a1,0x9
    4964:	6c858593          	addi	a1,a1,1736 # 0xe028
    4968:	00009517          	auipc	a0,0x9
    496c:	9b850513          	addi	a0,a0,-1608 # 0xd320
    4970:	e24fe0ef          	jal	ra,0x2f94
    4974:	01c0006f          	j	0x4990
    4978:	0084b703          	0x84b703
    497c:	02840793          	addi	a5,s0,40
    4980:	00f73023          	0xf73023
    4984:	02e43823          	0x2e43823
    4988:	00f4b423          	0xf4b423
    498c:	02943423          	0x2943423
    4990:	01813083          	0x1813083
    4994:	01013403          	0x1013403
    4998:	00813483          	0x813483
    499c:	00013903          	0x13903
    49a0:	00000513          	li	a0,0
    49a4:	02010113          	addi	sp,sp,32
    49a8:	00008067          	ret
    49ac:	0004b783          	0x4b783
    49b0:	00978863          	beq	a5,s1,0x49c0
    49b4:	06944683          	lbu	a3,105(s0)
    49b8:	0417c703          	lbu	a4,65(a5)
    49bc:	02e6f063          	bgeu	a3,a4,0x49dc
    49c0:	0087b683          	0x87b683
    49c4:	02840713          	addi	a4,s0,40
    49c8:	00e6b023          	0xe6b023
    49cc:	02d43823          	0x2d43823
    49d0:	00e7b423          	0xe7b423
    49d4:	02f43423          	0x2f43423
    49d8:	fb9ff06f          	j	0x4990
    49dc:	0007b783          	0x7b783
    49e0:	fd1ff06f          	j	0x49b0
    49e4:	fd010113          	addi	sp,sp,-48
    49e8:	02813023          	0x2813023
    49ec:	00913c23          	0x913c23
    49f0:	01213823          	0x1213823
    49f4:	01313423          	0x1313423
    49f8:	02113423          	0x2113423
    49fc:	00050413          	mv	s0,a0
    4a00:	00058993          	mv	s3,a1
    4a04:	00060493          	mv	s1,a2
    4a08:	00068913          	mv	s2,a3
    4a0c:	00051e63          	bnez	a0,0x4a28
    4a10:	0d500613          	li	a2,213
    4a14:	00009597          	auipc	a1,0x9
    4a18:	62c58593          	addi	a1,a1,1580 # 0xe040
    4a1c:	00009517          	auipc	a0,0x9
    4a20:	49c50513          	addi	a0,a0,1180 # 0xdeb8
    4a24:	d70fe0ef          	jal	ra,0x2f94
    4a28:	000107b7          	lui	a5,0x10
    4a2c:	00f4ee63          	bltu	s1,a5,0x4a48
    4a30:	0d600613          	li	a2,214
    4a34:	00009597          	auipc	a1,0x9
    4a38:	60c58593          	addi	a1,a1,1548 # 0xe040
    4a3c:	00009517          	auipc	a0,0x9
    4a40:	48c50513          	addi	a0,a0,1164 # 0xdec8
    4a44:	d50fe0ef          	jal	ra,0x2f94
    4a48:	00040513          	mv	a0,s0
    4a4c:	00098613          	mv	a2,s3
    4a50:	00200593          	li	a1,2
    4a54:	a90ff0ef          	jal	ra,0x3ce4
    4a58:	02840793          	addi	a5,s0,40
    4a5c:	02941c23          	sh	s1,56(s0)
    4a60:	01240aa3          	sb	s2,21(s0)
    4a64:	02813083          	0x2813083
    4a68:	02f43823          	0x2f43823
    4a6c:	02f43423          	0x2f43423
    4a70:	02013403          	0x2013403
    4a74:	01813483          	0x1813483
    4a78:	01013903          	0x1013903
    4a7c:	00813983          	0x813983
    4a80:	00000513          	li	a0,0
    4a84:	03010113          	addi	sp,sp,48
    4a88:	00008067          	ret
    4a8c:	fc010113          	addi	sp,sp,-64
    4a90:	02813823          	0x2813823
    4a94:	02113c23          	0x2113c23
    4a98:	02913423          	0x2913423
    4a9c:	03213023          	0x3213023
    4aa0:	01313c23          	0x1313c23
    4aa4:	00b12623          	sw	a1,12(sp)
    4aa8:	00050413          	mv	s0,a0
    4aac:	00051e63          	bnez	a0,0x4ac8
    4ab0:	15300613          	li	a2,339
    4ab4:	00009597          	auipc	a1,0x9
    4ab8:	59c58593          	addi	a1,a1,1436 # 0xe050
    4abc:	00009517          	auipc	a0,0x9
    4ac0:	3fc50513          	addi	a0,a0,1020 # 0xdeb8
    4ac4:	cd0fe0ef          	jal	ra,0x2f94
    4ac8:	00040513          	mv	a0,s0
    4acc:	d98ff0ef          	jal	ra,0x4064
    4ad0:	00200793          	li	a5,2
    4ad4:	00f50e63          	beq	a0,a5,0x4af0
    4ad8:	15400613          	li	a2,340
    4adc:	00009597          	auipc	a1,0x9
    4ae0:	57458593          	addi	a1,a1,1396 # 0xe050
    4ae4:	00009517          	auipc	a0,0x9
    4ae8:	3fc50513          	addi	a0,a0,1020 # 0xdee0
    4aec:	ca8fe0ef          	jal	ra,0x2f94
    4af0:	00014797          	auipc	a5,0x14
    4af4:	7a87b783          	0x7a87b783
    4af8:	00078663          	beqz	a5,0x4b04
    4afc:	00040513          	mv	a0,s0
    4b00:	000780e7          	jalr	a5 # 0x18af0
    4b04:	d4cfb0ef          	jal	ra,0x50
    4b08:	03845783          	lhu	a5,56(s0)
    4b0c:	00050993          	mv	s3,a0
    4b10:	02078863          	beqz	a5,0x4b40
    4b14:	fff7879b          	0xfff7879b
    4b18:	02f41c23          	sh	a5,56(s0)
    4b1c:	d3cfb0ef          	jal	ra,0x58
    4b20:	00014797          	auipc	a5,0x14
    4b24:	7707b783          	0x7707b783
    4b28:	00000513          	li	a0,0
    4b2c:	02078263          	beqz	a5,0x4b50
    4b30:	00040513          	mv	a0,s0
    4b34:	000780e7          	jalr	a5 # 0x18b20
    4b38:	00000513          	li	a0,0
    4b3c:	0140006f          	j	0x4b50
    4b40:	00c12783          	lw	a5,12(sp)
    4b44:	02079463          	bnez	a5,0x4b6c
    4b48:	d10fb0ef          	jal	ra,0x58
    4b4c:	ffe00513          	li	a0,-2
    4b50:	03813083          	0x3813083
    4b54:	03013403          	0x3013403
    4b58:	02813483          	0x2813483
    4b5c:	02013903          	0x2013903
    4b60:	01813983          	0x1813983
    4b64:	04010113          	addi	sp,sp,64
    4b68:	00008067          	ret
    4b6c:	ce4fb0ef          	jal	ra,0x50
    4b70:	00050493          	mv	s1,a0
    4b74:	ff4fe0ef          	jal	ra,0x3368
    4b78:	02051863          	bnez	a0,0x4ba8
    4b7c:	00009597          	auipc	a1,0x9
    4b80:	4d458593          	addi	a1,a1,1236 # 0xe050
    4b84:	00009517          	auipc	a0,0x9
    4b88:	3d450513          	addi	a0,a0,980 # 0xdf58
    4b8c:	a7cfe0ef          	jal	ra,0x2e08
    4b90:	17400613          	li	a2,372
    4b94:	00009597          	auipc	a1,0x9
    4b98:	4bc58593          	addi	a1,a1,1212 # 0xe050
    4b9c:	00008517          	auipc	a0,0x8
    4ba0:	78450513          	addi	a0,a0,1924 # 0xd320
    4ba4:	bf0fe0ef          	jal	ra,0x2f94
    4ba8:	ca8fb0ef          	jal	ra,0x50
    4bac:	00050913          	mv	s2,a0
    4bb0:	d29ff0ef          	jal	ra,0x48d8
    4bb4:	02050863          	beqz	a0,0x4be4
    4bb8:	00009597          	auipc	a1,0x9
    4bbc:	49858593          	addi	a1,a1,1176 # 0xe050
    4bc0:	00008517          	auipc	a0,0x8
    4bc4:	73850513          	addi	a0,a0,1848 # 0xd2f8
    4bc8:	a40fe0ef          	jal	ra,0x2e08
    4bcc:	17400613          	li	a2,372
    4bd0:	00009597          	auipc	a1,0x9
    4bd4:	48058593          	addi	a1,a1,1152 # 0xe050
    4bd8:	00008517          	auipc	a0,0x8
    4bdc:	74850513          	addi	a0,a0,1864 # 0xd320
    4be0:	bb4fe0ef          	jal	ra,0x2f94
    4be4:	00090513          	mv	a0,s2
    4be8:	c70fb0ef          	jal	ra,0x58
    4bec:	00048513          	mv	a0,s1
    4bf0:	c68fb0ef          	jal	ra,0x58
    4bf4:	f74fe0ef          	jal	ra,0x3368
    4bf8:	06053023          	0x6053023
    4bfc:	01544603          	lbu	a2,21(s0)
    4c00:	00050593          	mv	a1,a0
    4c04:	00050493          	mv	s1,a0
    4c08:	02840513          	addi	a0,s0,40
    4c0c:	d1dff0ef          	jal	ra,0x4928
    4c10:	00c12783          	lw	a5,12(sp)
    4c14:	02f05063          	blez	a5,0x4c34
    4c18:	08848913          	addi	s2,s1,136
    4c1c:	00c10613          	addi	a2,sp,12
    4c20:	00000593          	li	a1,0
    4c24:	00090513          	mv	a0,s2
    4c28:	818fd0ef          	jal	ra,0x1c40
    4c2c:	00090513          	mv	a0,s2
    4c30:	dc1fc0ef          	jal	ra,0x19f0
    4c34:	00098513          	mv	a0,s3
    4c38:	c20fb0ef          	jal	ra,0x58
    4c3c:	bf5fb0ef          	jal	ra,0x830
    4c40:	0604b503          	0x604b503
    4c44:	ec050ee3          	beqz	a0,0x4b20
    4c48:	f09ff06f          	j	0x4b50
    4c4c:	fd010113          	addi	sp,sp,-48
    4c50:	02813023          	0x2813023
    4c54:	02113423          	0x2113423
    4c58:	00913c23          	0x913c23
    4c5c:	00050413          	mv	s0,a0
    4c60:	00051e63          	bnez	a0,0x4c7c
    4c64:	1c000613          	li	a2,448
    4c68:	00009597          	auipc	a1,0x9
    4c6c:	3f858593          	addi	a1,a1,1016 # 0xe060
    4c70:	00009517          	auipc	a0,0x9
    4c74:	24850513          	addi	a0,a0,584 # 0xdeb8
    4c78:	b1cfe0ef          	jal	ra,0x2f94
    4c7c:	00040513          	mv	a0,s0
    4c80:	be4ff0ef          	jal	ra,0x4064
    4c84:	00200793          	li	a5,2
    4c88:	00f50e63          	beq	a0,a5,0x4ca4
    4c8c:	1c100613          	li	a2,449
    4c90:	00009597          	auipc	a1,0x9
    4c94:	3d058593          	addi	a1,a1,976 # 0xe060
    4c98:	00009517          	auipc	a0,0x9
    4c9c:	24850513          	addi	a0,a0,584 # 0xdee0
    4ca0:	af4fe0ef          	jal	ra,0x2f94
    4ca4:	00014797          	auipc	a5,0x14
    4ca8:	5e47b783          	0x5e47b783
    4cac:	00078663          	beqz	a5,0x4cb8
    4cb0:	00040513          	mv	a0,s0
    4cb4:	000780e7          	jalr	a5 # 0x18ca4
    4cb8:	b98fb0ef          	jal	ra,0x50
    4cbc:	02843783          	0x2843783
    4cc0:	02840713          	addi	a4,s0,40
    4cc4:	00050493          	mv	s1,a0
    4cc8:	02e78863          	beq	a5,a4,0x4cf8
    4ccc:	00078513          	mv	a0,a5
    4cd0:	c39ff0ef          	jal	ra,0x4908
    4cd4:	00100413          	li	s0,1
    4cd8:	00048513          	mv	a0,s1
    4cdc:	b7cfb0ef          	jal	ra,0x58
    4ce0:	00000513          	li	a0,0
    4ce4:	02040e63          	beqz	s0,0x4d20
    4ce8:	00a13423          	0xa13423
    4cec:	b45fb0ef          	jal	ra,0x830
    4cf0:	00813503          	0x813503
    4cf4:	02c0006f          	j	0x4d20
    4cf8:	03845783          	lhu	a5,56(s0)
    4cfc:	00010737          	lui	a4,0x10
    4d00:	fff70713          	addi	a4,a4,-1 # 0xffff
    4d04:	00e78a63          	beq	a5,a4,0x4d18
    4d08:	0017879b          	0x17879b
    4d0c:	02f41c23          	sh	a5,56(s0)
    4d10:	00000413          	li	s0,0
    4d14:	fc5ff06f          	j	0x4cd8
    4d18:	b40fb0ef          	jal	ra,0x58
    4d1c:	ffd00513          	li	a0,-3
    4d20:	02813083          	0x2813083
    4d24:	02013403          	0x2013403
    4d28:	01813483          	0x1813483
    4d2c:	03010113          	addi	sp,sp,48
    4d30:	00008067          	ret
    4d34:	fe010113          	addi	sp,sp,-32
    4d38:	00813823          	0x813823
    4d3c:	00913423          	0x913423
    4d40:	00113c23          	0x113c23
    4d44:	00050413          	mv	s0,a0
    4d48:	00058493          	mv	s1,a1
    4d4c:	00051e63          	bnez	a0,0x4d68
    4d50:	22a00613          	li	a2,554
    4d54:	00009597          	auipc	a1,0x9
    4d58:	31c58593          	addi	a1,a1,796 # 0xe070
    4d5c:	00009517          	auipc	a0,0x9
    4d60:	23450513          	addi	a0,a0,564 # 0xdf90
    4d64:	a30fe0ef          	jal	ra,0x2f94
    4d68:	00040513          	mv	a0,s0
    4d6c:	00048613          	mv	a2,s1
    4d70:	00300593          	li	a1,3
    4d74:	f71fe0ef          	jal	ra,0x3ce4
    4d78:	02840793          	addi	a5,s0,40
    4d7c:	02f43823          	0x2f43823
    4d80:	02f43423          	0x2f43423
    4d84:	00ff07b7          	lui	a5,0xff0
    4d88:	0017879b          	0x17879b
    4d8c:	02f42c23          	sw	a5,56(s0)
    4d90:	00100793          	li	a5,1
    4d94:	01813083          	0x1813083
    4d98:	04043023          	0x4043023
    4d9c:	00f40aa3          	sb	a5,21(s0)
    4da0:	01013403          	0x1013403
    4da4:	00813483          	0x813483
    4da8:	00000513          	li	a0,0
    4dac:	02010113          	addi	sp,sp,32
    4db0:	00008067          	ret
    4db4:	fc010113          	addi	sp,sp,-64
    4db8:	02813823          	0x2813823
    4dbc:	02913423          	0x2913423
    4dc0:	02113c23          	0x2113c23
    4dc4:	03213023          	0x3213023
    4dc8:	01313c23          	0x1313c23
    4dcc:	00050413          	mv	s0,a0
    4dd0:	00b12623          	sw	a1,12(sp)
    4dd4:	a7cfb0ef          	jal	ra,0x50
    4dd8:	00050493          	mv	s1,a0
    4ddc:	d8cfe0ef          	jal	ra,0x3368
    4de0:	02051863          	bnez	a0,0x4e10
    4de4:	00009597          	auipc	a1,0x9
    4de8:	29c58593          	addi	a1,a1,668 # 0xe080
    4dec:	00009517          	auipc	a0,0x9
    4df0:	16c50513          	addi	a0,a0,364 # 0xdf58
    4df4:	814fe0ef          	jal	ra,0x2e08
    4df8:	2aa00613          	li	a2,682
    4dfc:	00009597          	auipc	a1,0x9
    4e00:	28458593          	addi	a1,a1,644 # 0xe080
    4e04:	00008517          	auipc	a0,0x8
    4e08:	51c50513          	addi	a0,a0,1308 # 0xd320
    4e0c:	988fe0ef          	jal	ra,0x2f94
    4e10:	a40fb0ef          	jal	ra,0x50
    4e14:	00050913          	mv	s2,a0
    4e18:	ac1ff0ef          	jal	ra,0x48d8
    4e1c:	02050863          	beqz	a0,0x4e4c
    4e20:	00009597          	auipc	a1,0x9
    4e24:	26058593          	addi	a1,a1,608 # 0xe080
    4e28:	00008517          	auipc	a0,0x8
    4e2c:	4d050513          	addi	a0,a0,1232 # 0xd2f8
    4e30:	fd9fd0ef          	jal	ra,0x2e08
    4e34:	2aa00613          	li	a2,682
    4e38:	00009597          	auipc	a1,0x9
    4e3c:	24858593          	addi	a1,a1,584 # 0xe080
    4e40:	00008517          	auipc	a0,0x8
    4e44:	4e050513          	addi	a0,a0,1248 # 0xd320
    4e48:	94cfe0ef          	jal	ra,0x2f94
    4e4c:	00090513          	mv	a0,s2
    4e50:	a08fb0ef          	jal	ra,0x58
    4e54:	00048513          	mv	a0,s1
    4e58:	a00fb0ef          	jal	ra,0x58
    4e5c:	00041e63          	bnez	s0,0x4e78
    4e60:	2ad00613          	li	a2,685
    4e64:	00009597          	auipc	a1,0x9
    4e68:	21c58593          	addi	a1,a1,540 # 0xe080
    4e6c:	00009517          	auipc	a0,0x9
    4e70:	12450513          	addi	a0,a0,292 # 0xdf90
    4e74:	920fe0ef          	jal	ra,0x2f94
    4e78:	00040513          	mv	a0,s0
    4e7c:	9e8ff0ef          	jal	ra,0x4064
    4e80:	00300793          	li	a5,3
    4e84:	00f50e63          	beq	a0,a5,0x4ea0
    4e88:	2ae00613          	li	a2,686
    4e8c:	00009597          	auipc	a1,0x9
    4e90:	1f458593          	addi	a1,a1,500 # 0xe080
    4e94:	00009517          	auipc	a0,0x9
    4e98:	11450513          	addi	a0,a0,276 # 0xdfa8
    4e9c:	8f8fe0ef          	jal	ra,0x2f94
    4ea0:	cc8fe0ef          	jal	ra,0x3368
    4ea4:	00050493          	mv	s1,a0
    4ea8:	9a8fb0ef          	jal	ra,0x50
    4eac:	00014797          	auipc	a5,0x14
    4eb0:	3ec7b783          	0x3ec7b783
    4eb4:	00050913          	mv	s2,a0
    4eb8:	00078663          	beqz	a5,0x4ec4
    4ebc:	00040513          	mv	a0,s0
    4ec0:	000780e7          	jalr	a5 # 0x18eac
    4ec4:	04043503          	0x4043503
    4ec8:	0604b023          	0x604b023
    4ecc:	04951063          	bne	a0,s1,0x4f0c
    4ed0:	03b44783          	lbu	a5,59(s0)
    4ed4:	0ff00713          	li	a4,255
    4ed8:	04e78a63          	beq	a5,a4,0x4f2c
    4edc:	0017879b          	0x17879b
    4ee0:	02f40da3          	sb	a5,59(s0)
    4ee4:	00090513          	mv	a0,s2
    4ee8:	970fb0ef          	jal	ra,0x58
    4eec:	00014797          	auipc	a5,0x14
    4ef0:	3a47b783          	0x3a47b783
    4ef4:	00000513          	li	a0,0
    4ef8:	04078063          	beqz	a5,0x4f38
    4efc:	00040513          	mv	a0,s0
    4f00:	000780e7          	jalr	a5 # 0x18eec
    4f04:	00000513          	li	a0,0
    4f08:	0300006f          	j	0x4f38
    4f0c:	03845783          	lhu	a5,56(s0)
    4f10:	04078263          	beqz	a5,0x4f54
    4f14:	fff7879b          	0xfff7879b
    4f18:	02f41c23          	sh	a5,56(s0)
    4f1c:	04943023          	0x4943023
    4f20:	0694c783          	lbu	a5,105(s1)
    4f24:	02f40d23          	sb	a5,58(s0)
    4f28:	fa9ff06f          	j	0x4ed0
    4f2c:	00090513          	mv	a0,s2
    4f30:	928fb0ef          	jal	ra,0x58
    4f34:	ffd00513          	li	a0,-3
    4f38:	03813083          	0x3813083
    4f3c:	03013403          	0x3013403
    4f40:	02813483          	0x2813483
    4f44:	02013903          	0x2013903
    4f48:	01813983          	0x1813983
    4f4c:	04010113          	addi	sp,sp,64
    4f50:	00008067          	ret
    4f54:	00c12783          	lw	a5,12(sp)
    4f58:	00079e63          	bnez	a5,0x4f74
    4f5c:	ffe00793          	li	a5,-2
    4f60:	00090513          	mv	a0,s2
    4f64:	06f4b023          	0x6f4b023
    4f68:	8f0fb0ef          	jal	ra,0x58
    4f6c:	ffe00513          	li	a0,-2
    4f70:	fc9ff06f          	j	0x4f38
    4f74:	0694c703          	lbu	a4,105(s1)
    4f78:	06954783          	lbu	a5,105(a0)
    4f7c:	00f77863          	bgeu	a4,a5,0x4f8c
    4f80:	06948613          	addi	a2,s1,105
    4f84:	00200593          	li	a1,2
    4f88:	9fdfe0ef          	jal	ra,0x3984
    4f8c:	01544603          	lbu	a2,21(s0)
    4f90:	00048593          	mv	a1,s1
    4f94:	02840513          	addi	a0,s0,40
    4f98:	991ff0ef          	jal	ra,0x4928
    4f9c:	00c12783          	lw	a5,12(sp)
    4fa0:	02f05063          	blez	a5,0x4fc0
    4fa4:	08848993          	addi	s3,s1,136
    4fa8:	00c10613          	addi	a2,sp,12
    4fac:	00000593          	li	a1,0
    4fb0:	00098513          	mv	a0,s3
    4fb4:	c8dfc0ef          	jal	ra,0x1c40
    4fb8:	00098513          	mv	a0,s3
    4fbc:	a35fc0ef          	jal	ra,0x19f0
    4fc0:	00090513          	mv	a0,s2
    4fc4:	894fb0ef          	jal	ra,0x58
    4fc8:	869fb0ef          	jal	ra,0x830
    4fcc:	0604b503          	0x604b503
    4fd0:	f60514e3          	bnez	a0,0x4f38
    4fd4:	87cfb0ef          	jal	ra,0x50
    4fd8:	00050913          	mv	s2,a0
    4fdc:	f09ff06f          	j	0x4ee4
    4fe0:	fd010113          	addi	sp,sp,-48
    4fe4:	02813023          	0x2813023
    4fe8:	02113423          	0x2113423
    4fec:	00913c23          	0x913c23
    4ff0:	01213823          	0x1213823
    4ff4:	00050413          	mv	s0,a0
    4ff8:	00051e63          	bnez	a0,0x5014
    4ffc:	35400613          	li	a2,852
    5000:	00009597          	auipc	a1,0x9
    5004:	09058593          	addi	a1,a1,144 # 0xe090
    5008:	00009517          	auipc	a0,0x9
    500c:	f8850513          	addi	a0,a0,-120 # 0xdf90
    5010:	f85fd0ef          	jal	ra,0x2f94
    5014:	00040513          	mv	a0,s0
    5018:	84cff0ef          	jal	ra,0x4064
    501c:	00300793          	li	a5,3
    5020:	00f50e63          	beq	a0,a5,0x503c
    5024:	35500613          	li	a2,853
    5028:	00009597          	auipc	a1,0x9
    502c:	06858593          	addi	a1,a1,104 # 0xe090
    5030:	00009517          	auipc	a0,0x9
    5034:	f7850513          	addi	a0,a0,-136 # 0xdfa8
    5038:	f5dfd0ef          	jal	ra,0x2f94
    503c:	814fb0ef          	jal	ra,0x50
    5040:	00050493          	mv	s1,a0
    5044:	b24fe0ef          	jal	ra,0x3368
    5048:	02051863          	bnez	a0,0x5078
    504c:	00009597          	auipc	a1,0x9
    5050:	04458593          	addi	a1,a1,68 # 0xe090
    5054:	00009517          	auipc	a0,0x9
    5058:	f0450513          	addi	a0,a0,-252 # 0xdf58
    505c:	dadfd0ef          	jal	ra,0x2e08
    5060:	35a00613          	li	a2,858
    5064:	00009597          	auipc	a1,0x9
    5068:	02c58593          	addi	a1,a1,44 # 0xe090
    506c:	00008517          	auipc	a0,0x8
    5070:	2b450513          	addi	a0,a0,692 # 0xd320
    5074:	f21fd0ef          	jal	ra,0x2f94
    5078:	fd9fa0ef          	jal	ra,0x50
    507c:	00050913          	mv	s2,a0
    5080:	859ff0ef          	jal	ra,0x48d8
    5084:	02050863          	beqz	a0,0x50b4
    5088:	00009597          	auipc	a1,0x9
    508c:	00858593          	addi	a1,a1,8 # 0xe090
    5090:	00008517          	auipc	a0,0x8
    5094:	26850513          	addi	a0,a0,616 # 0xd2f8
    5098:	d71fd0ef          	jal	ra,0x2e08
    509c:	35a00613          	li	a2,858
    50a0:	00009597          	auipc	a1,0x9
    50a4:	ff058593          	addi	a1,a1,-16 # 0xe090
    50a8:	00008517          	auipc	a0,0x8
    50ac:	27850513          	addi	a0,a0,632 # 0xd320
    50b0:	ee5fd0ef          	jal	ra,0x2f94
    50b4:	00090513          	mv	a0,s2
    50b8:	fa1fa0ef          	jal	ra,0x58
    50bc:	00048513          	mv	a0,s1
    50c0:	f99fa0ef          	jal	ra,0x58
    50c4:	aa4fe0ef          	jal	ra,0x3368
    50c8:	00050913          	mv	s2,a0
    50cc:	f85fa0ef          	jal	ra,0x50
    50d0:	00014797          	auipc	a5,0x14
    50d4:	1b87b783          	0x1b87b783
    50d8:	00050493          	mv	s1,a0
    50dc:	00078663          	beqz	a5,0x50e8
    50e0:	00040513          	mv	a0,s0
    50e4:	000780e7          	jalr	a5 # 0x190d0
    50e8:	04043783          	0x4043783
    50ec:	03278863          	beq	a5,s2,0x511c
    50f0:	fff00793          	li	a5,-1
    50f4:	00048513          	mv	a0,s1
    50f8:	06f93023          	0x6f93023
    50fc:	f5dfa0ef          	jal	ra,0x58
    5100:	fff00513          	li	a0,-1
    5104:	02813083          	0x2813083
    5108:	02013403          	0x2013403
    510c:	01813483          	0x1813483
    5110:	01013903          	0x1013903
    5114:	03010113          	addi	sp,sp,48
    5118:	00008067          	ret
    511c:	03b44783          	lbu	a5,59(s0)
    5120:	fff7879b          	0xfff7879b
    5124:	0ff7f793          	andi	a5,a5,255
    5128:	02f40da3          	sb	a5,59(s0)
    512c:	08079e63          	bnez	a5,0x51c8
    5130:	03a44703          	lbu	a4,58(s0)
    5134:	06994783          	lbu	a5,105(s2)
    5138:	00f70a63          	beq	a4,a5,0x514c
    513c:	03a40613          	addi	a2,s0,58
    5140:	00200593          	li	a1,2
    5144:	00090513          	mv	a0,s2
    5148:	83dfe0ef          	jal	ra,0x3984
    514c:	02843503          	0x2843503
    5150:	02840793          	addi	a5,s0,40
    5154:	04f50863          	beq	a0,a5,0x51a4
    5158:	fd850793          	addi	a5,a0,-40
    515c:	04f43023          	0x4f43023
    5160:	04154783          	lbu	a5,65(a0)
    5164:	0ff00713          	li	a4,255
    5168:	02f40d23          	sb	a5,58(s0)
    516c:	03b44783          	lbu	a5,59(s0)
    5170:	06e78063          	beq	a5,a4,0x51d0
    5174:	0017879b          	0x17879b
    5178:	02f40da3          	sb	a5,59(s0)
    517c:	f8cff0ef          	jal	ra,0x4908
    5180:	00100413          	li	s0,1
    5184:	00048513          	mv	a0,s1
    5188:	ed1fa0ef          	jal	ra,0x58
    518c:	00000513          	li	a0,0
    5190:	f6040ae3          	beqz	s0,0x5104
    5194:	00a13423          	0xa13423
    5198:	e98fb0ef          	jal	ra,0x830
    519c:	00813503          	0x813503
    51a0:	f65ff06f          	j	0x5104
    51a4:	03845783          	lhu	a5,56(s0)
    51a8:	00010737          	lui	a4,0x10
    51ac:	fff70713          	addi	a4,a4,-1 # 0xffff
    51b0:	02e78063          	beq	a5,a4,0x51d0
    51b4:	0017879b          	0x17879b
    51b8:	02f41c23          	sh	a5,56(s0)
    51bc:	fff00793          	li	a5,-1
    51c0:	04043023          	0x4043023
    51c4:	02f40d23          	sb	a5,58(s0)
    51c8:	00000413          	li	s0,0
    51cc:	fb9ff06f          	j	0x5184
    51d0:	00048513          	mv	a0,s1
    51d4:	e85fa0ef          	jal	ra,0x58
    51d8:	ffd00513          	li	a0,-3
    51dc:	f29ff06f          	j	0x5104
    51e0:	00860613          	addi	a2,a2,8
    51e4:	ff867613          	andi	a2,a2,-8
    51e8:	37ab77b7          	lui	a5,0x37ab7
    51ec:	00050813          	mv	a6,a0
    51f0:	00279793          	slli	a5,a5,0x2
    51f4:	ef860513          	addi	a0,a2,-264
    51f8:	00050713          	mv	a4,a0
    51fc:	eef78793          	addi	a5,a5,-273 # 0x37ab6eef
    5200:	00f73023          	0xf73023
    5204:	00870713          	addi	a4,a4,8
    5208:	fee61ce3          	bne	a2,a4,0x5200
    520c:	00018793          	mv	a5,gp
    5210:	f0f63823          	0xf0f63823
    5214:	10850793          	addi	a5,a0,264
    5218:	fef63c23          	0xfef63c23
    521c:	000087b7          	lui	a5,0x8
    5220:	88078793          	addi	a5,a5,-1920 # 0x7880
    5224:	f0d63023          	0xf0d63023
    5228:	f4b63423          	0xf4b63423
    522c:	ef063c23          	0xef063c23
    5230:	f0f63423          	0xf0f63423
    5234:	00008067          	ret
    5238:	00014797          	auipc	a5,0x14
    523c:	09078793          	addi	a5,a5,144 # 0x192c8
    5240:	0007b703          	0x7b703
    5244:	00071663          	bnez	a4,0x5250
    5248:	00014717          	auipc	a4,0x14
    524c:	06a73823          	0x6a73823
    5250:	00014717          	auipc	a4,0x14
    5254:	06b73823          	0x6b73823
    5258:	00100713          	li	a4,1
    525c:	00e7b023          	0xe7b023
    5260:	00008067          	ret
    5264:	f0010113          	addi	sp,sp,-256
    5268:	00113423          	0x113423
    526c:	300020f3          	csrr	ra,mstatus
    5270:	00113823          	0x113823
    5274:	341020f3          	csrr	ra,mepc
    5278:	00113023          	0x113023
    527c:	02413023          	0x2413023
    5280:	02513423          	0x2513423
    5284:	02613823          	0x2613823
    5288:	02713c23          	0x2713c23
    528c:	04813023          	0x4813023
    5290:	04913423          	0x4913423
    5294:	04a13823          	0x4a13823
    5298:	04b13c23          	0x4b13c23
    529c:	06c13023          	0x6c13023
    52a0:	06d13423          	0x6d13423
    52a4:	06e13823          	0x6e13823
    52a8:	06f13c23          	0x6f13c23
    52ac:	09013023          	0x9013023
    52b0:	09113423          	0x9113423
    52b4:	09213823          	0x9213823
    52b8:	09313c23          	0x9313c23
    52bc:	0b413023          	0xb413023
    52c0:	0b513423          	0xb513423
    52c4:	0b613823          	0xb613823
    52c8:	0b713c23          	0xb713c23
    52cc:	0d813023          	0xd813023
    52d0:	0d913423          	0xd913423
    52d4:	0da13823          	0xda13823
    52d8:	0db13c23          	0xdb13c23
    52dc:	0fc13023          	0xfc13023
    52e0:	0fd13423          	0xfd13423
    52e4:	0fe13823          	0xfe13823
    52e8:	0ff13c23          	0xff13c23
    52ec:	00010413          	mv	s0,sp
    52f0:	f14022f3          	csrr	t0,mhartid
    52f4:	82018113          	addi	sp,gp,-2016
    52f8:	00128313          	addi	t1,t0,1
    52fc:	000043b7          	lui	t2,0x4
    5300:	00000e13          	li	t3,0
    5304:	007e0e33          	add	t3,t3,t2
    5308:	fff30313          	addi	t1,t1,-1
    530c:	fe031ce3          	bnez	t1,0x5304
    5310:	000e0313          	mv	t1,t3
    5314:	00610133          	add	sp,sp,t1
    5318:	d38ff0ef          	jal	ra,0x4850
    531c:	34202573          	csrr	a0,mcause
    5320:	341025f3          	csrr	a1,mepc
    5324:	00040613          	mv	a2,s0
    5328:	3ec000ef          	jal	ra,0x5714
    532c:	d68ff0ef          	jal	ra,0x4894
    5330:	00040113          	mv	sp,s0
    5334:	00014417          	auipc	s0,0x14
    5338:	f9440413          	addi	s0,s0,-108 # 0x192c8
    533c:	00042903          	lw	s2,0(s0)
    5340:	02090463          	beqz	s2,0x5368
    5344:	00042023          	sw	zero,0(s0)
    5348:	00014417          	auipc	s0,0x14
    534c:	f7040413          	addi	s0,s0,-144 # 0x192b8
    5350:	00043483          	0x43483
    5354:	0024b023          	0x24b023
    5358:	00014417          	auipc	s0,0x14
    535c:	f6840413          	addi	s0,s0,-152 # 0x192c0
    5360:	00043483          	0x43483
    5364:	0004b103          	0x4b103
    5368:	da5fa06f          	j	0x10c
    536c:	ff010113          	addi	sp,sp,-16
    5370:	00113423          	0x113423
    5374:	edcfb0ef          	jal	ra,0xa50
    5378:	f14027f3          	csrr	a5,mhartid
    537c:	0027979b          	0x27979b
    5380:	02079793          	slli	a5,a5,0x20
    5384:	02004737          	lui	a4,0x2004
    5388:	0207d793          	srli	a5,a5,0x20
    538c:	00f707b3          	add	a5,a4,a5
    5390:	0200c737          	lui	a4,0x200c
    5394:	ff873703          	0xff873703
    5398:	000186b7          	lui	a3,0x18
    539c:	00813083          	0x813083
    53a0:	6a068693          	addi	a3,a3,1696 # 0x186a0
    53a4:	00d70733          	add	a4,a4,a3
    53a8:	00e7b023          	0xe7b023
    53ac:	00000513          	li	a0,0
    53b0:	01010113          	addi	sp,sp,16
    53b4:	00008067          	ret
    53b8:	08000713          	li	a4,128
    53bc:	304737f3          	csrrc	a5,mie,a4
    53c0:	344737f3          	csrrc	a5,mip,a4
    53c4:	f14027f3          	csrr	a5,mhartid
    53c8:	0027979b          	0x27979b
    53cc:	02079793          	slli	a5,a5,0x20
    53d0:	020046b7          	lui	a3,0x2004
    53d4:	0207d793          	srli	a5,a5,0x20
    53d8:	00f687b3          	add	a5,a3,a5
    53dc:	0200c6b7          	lui	a3,0x200c
    53e0:	ff86b683          	0xff86b683
    53e4:	00018637          	lui	a2,0x18
    53e8:	6a060613          	addi	a2,a2,1696 # 0x186a0
    53ec:	00c686b3          	add	a3,a3,a2
    53f0:	00d7b023          	0xd7b023
    53f4:	30472773          	csrrs	a4,mie,a4
    53f8:	00000513          	li	a0,0
    53fc:	00008067          	ret
    5400:	ff010113          	addi	sp,sp,-16
    5404:	00050593          	mv	a1,a0
    5408:	00009517          	auipc	a0,0x9
    540c:	ca050513          	addi	a0,a0,-864 # 0xe0a8
    5410:	00113423          	0x113423
    5414:	9f5fd0ef          	jal	ra,0x2e08
    5418:	00813083          	0x813083
    541c:	00000513          	li	a0,0
    5420:	01010113          	addi	sp,sp,16
    5424:	00008067          	ret
    5428:	0001c797          	auipc	a5,0x1c
    542c:	4e078793          	addi	a5,a5,1248 # 0x21908
    5430:	0001d717          	auipc	a4,0x1d
    5434:	cd870713          	addi	a4,a4,-808 # 0x22108
    5438:	00000697          	auipc	a3,0x0
    543c:	fc868693          	addi	a3,a3,-56 # 0x5400
    5440:	00d7b023          	0xd7b023
    5444:	0007b423          	0x7b423
    5448:	01078793          	addi	a5,a5,16
    544c:	fee79ae3          	bne	a5,a4,0x5440
    5450:	00008067          	ret
    5454:	ff010113          	addi	sp,sp,-16
    5458:	00813023          	0x813023
    545c:	00050413          	mv	s0,a0
    5460:	00009517          	auipc	a0,0x9
    5464:	e0850513          	addi	a0,a0,-504 # 0xe268
    5468:	00113423          	0x113423
    546c:	99dfd0ef          	jal	ra,0x2e08
    5470:	00009517          	auipc	a0,0x9
    5474:	e2850513          	addi	a0,a0,-472 # 0xe298
    5478:	991fd0ef          	jal	ra,0x2e08
    547c:	10043603          	0x10043603
    5480:	00843583          	0x843583
    5484:	00009517          	auipc	a0,0x9
    5488:	e2c50513          	addi	a0,a0,-468 # 0xe2b0
    548c:	97dfd0ef          	jal	ra,0x2e08
    5490:	02043603          	0x2043603
    5494:	01843583          	0x1843583
    5498:	00009517          	auipc	a0,0x9
    549c:	e3850513          	addi	a0,a0,-456 # 0xe2d0
    54a0:	969fd0ef          	jal	ra,0x2e08
    54a4:	00009517          	auipc	a0,0x9
    54a8:	e4c50513          	addi	a0,a0,-436 # 0xe2f0
    54ac:	95dfd0ef          	jal	ra,0x2e08
    54b0:	03043603          	0x3043603
    54b4:	02843583          	0x2843583
    54b8:	00009517          	auipc	a0,0x9
    54bc:	e5050513          	addi	a0,a0,-432 # 0xe308
    54c0:	949fd0ef          	jal	ra,0x2e08
    54c4:	03843583          	0x3843583
    54c8:	00009517          	auipc	a0,0x9
    54cc:	e6050513          	addi	a0,a0,-416 # 0xe328
    54d0:	939fd0ef          	jal	ra,0x2e08
    54d4:	0e843603          	0xe843603
    54d8:	0e043583          	0xe043583
    54dc:	00009517          	auipc	a0,0x9
    54e0:	e5c50513          	addi	a0,a0,-420 # 0xe338
    54e4:	925fd0ef          	jal	ra,0x2e08
    54e8:	0f843603          	0xf843603
    54ec:	0f043583          	0xf043583
    54f0:	00009517          	auipc	a0,0x9
    54f4:	e6850513          	addi	a0,a0,-408 # 0xe358
    54f8:	911fd0ef          	jal	ra,0x2e08
    54fc:	00009517          	auipc	a0,0x9
    5500:	e7c50513          	addi	a0,a0,-388 # 0xe378
    5504:	905fd0ef          	jal	ra,0x2e08
    5508:	04843603          	0x4843603
    550c:	04043583          	0x4043583
    5510:	00009517          	auipc	a0,0x9
    5514:	e8050513          	addi	a0,a0,-384 # 0xe390
    5518:	8f1fd0ef          	jal	ra,0x2e08
    551c:	09843603          	0x9843603
    5520:	09043583          	0x9043583
    5524:	00009517          	auipc	a0,0x9
    5528:	e9450513          	addi	a0,a0,-364 # 0xe3b8
    552c:	8ddfd0ef          	jal	ra,0x2e08
    5530:	0a843603          	0xa843603
    5534:	0a043583          	0xa043583
    5538:	00009517          	auipc	a0,0x9
    553c:	ea050513          	addi	a0,a0,-352 # 0xe3d8
    5540:	8c9fd0ef          	jal	ra,0x2e08
    5544:	0b843603          	0xb843603
    5548:	0b043583          	0xb043583
    554c:	00009517          	auipc	a0,0x9
    5550:	eac50513          	addi	a0,a0,-340 # 0xe3f8
    5554:	8b5fd0ef          	jal	ra,0x2e08
    5558:	0c843603          	0xc843603
    555c:	0c043583          	0xc043583
    5560:	00009517          	auipc	a0,0x9
    5564:	eb850513          	addi	a0,a0,-328 # 0xe418
    5568:	8a1fd0ef          	jal	ra,0x2e08
    556c:	0d843603          	0xd843603
    5570:	0d043583          	0xd043583
    5574:	00009517          	auipc	a0,0x9
    5578:	ec450513          	addi	a0,a0,-316 # 0xe438
    557c:	88dfd0ef          	jal	ra,0x2e08
    5580:	00009517          	auipc	a0,0x9
    5584:	ee050513          	addi	a0,a0,-288 # 0xe460
    5588:	881fd0ef          	jal	ra,0x2e08
    558c:	05843603          	0x5843603
    5590:	05043583          	0x5043583
    5594:	00009517          	auipc	a0,0x9
    5598:	eec50513          	addi	a0,a0,-276 # 0xe480
    559c:	86dfd0ef          	jal	ra,0x2e08
    55a0:	06843603          	0x6843603
    55a4:	06043583          	0x6043583
    55a8:	00009517          	auipc	a0,0x9
    55ac:	ef850513          	addi	a0,a0,-264 # 0xe4a0
    55b0:	859fd0ef          	jal	ra,0x2e08
    55b4:	07843603          	0x7843603
    55b8:	07043583          	0x7043583
    55bc:	00009517          	auipc	a0,0x9
    55c0:	f0450513          	addi	a0,a0,-252 # 0xe4c0
    55c4:	845fd0ef          	jal	ra,0x2e08
    55c8:	08843603          	0x8843603
    55cc:	08043583          	0x8043583
    55d0:	00009517          	auipc	a0,0x9
    55d4:	f1050513          	addi	a0,a0,-240 # 0xe4e0
    55d8:	831fd0ef          	jal	ra,0x2e08
    55dc:	01043583          	0x1043583
    55e0:	00009517          	auipc	a0,0x9
    55e4:	f2050513          	addi	a0,a0,-224 # 0xe500
    55e8:	821fd0ef          	jal	ra,0x2e08
    55ec:	01043783          	0x1043783
    55f0:	00009597          	auipc	a1,0x9
    55f4:	b0058593          	addi	a1,a1,-1280 # 0xe0f0
    55f8:	0027f793          	andi	a5,a5,2
    55fc:	00078663          	beqz	a5,0x5608
    5600:	00009597          	auipc	a1,0x9
    5604:	ad058593          	addi	a1,a1,-1328 # 0xe0d0
    5608:	00009517          	auipc	a0,0x9
    560c:	f0850513          	addi	a0,a0,-248 # 0xe510
    5610:	ff8fd0ef          	jal	ra,0x2e08
    5614:	01043783          	0x1043783
    5618:	00009597          	auipc	a1,0x9
    561c:	af858593          	addi	a1,a1,-1288 # 0xe110
    5620:	0207f793          	andi	a5,a5,32
    5624:	00079663          	bnez	a5,0x5630
    5628:	00009597          	auipc	a1,0x9
    562c:	b1058593          	addi	a1,a1,-1264 # 0xe138
    5630:	00009517          	auipc	a0,0x9
    5634:	ee050513          	addi	a0,a0,-288 # 0xe510
    5638:	fd0fd0ef          	jal	ra,0x2e08
    563c:	01043783          	0x1043783
    5640:	00009597          	auipc	a1,0x9
    5644:	b2058593          	addi	a1,a1,-1248 # 0xe160
    5648:	1007f793          	andi	a5,a5,256
    564c:	00079663          	bnez	a5,0x5658
    5650:	00009597          	auipc	a1,0x9
    5654:	b3858593          	addi	a1,a1,-1224 # 0xe188
    5658:	00009517          	auipc	a0,0x9
    565c:	eb850513          	addi	a0,a0,-328 # 0xe510
    5660:	fa8fd0ef          	jal	ra,0x2e08
    5664:	01043783          	0x1043783
    5668:	00009597          	auipc	a1,0x9
    566c:	b4058593          	addi	a1,a1,-1216 # 0xe1a8
    5670:	02d79713          	slli	a4,a5,0x2d
    5674:	00074663          	bltz	a4,0x5680
    5678:	00009597          	auipc	a1,0x9
    567c:	b5058593          	addi	a1,a1,-1200 # 0xe1c8
    5680:	00009517          	auipc	a0,0x9
    5684:	e9050513          	addi	a0,a0,-368 # 0xe510
    5688:	f80fd0ef          	jal	ra,0x2e08
    568c:	01043783          	0x1043783
    5690:	00009597          	auipc	a1,0x9
    5694:	b5858593          	addi	a1,a1,-1192 # 0xe1e8
    5698:	02c79713          	slli	a4,a5,0x2c
    569c:	00074663          	bltz	a4,0x56a8
    56a0:	00009597          	auipc	a1,0x9
    56a4:	b7058593          	addi	a1,a1,-1168 # 0xe210
    56a8:	00009517          	auipc	a0,0x9
    56ac:	e6850513          	addi	a0,a0,-408 # 0xe510
    56b0:	f58fd0ef          	jal	ra,0x2e08
    56b4:	18002473          	csrr	s0,satp
    56b8:	00009517          	auipc	a0,0x9
    56bc:	e6050513          	addi	a0,a0,-416 # 0xe518
    56c0:	00040593          	mv	a1,s0
    56c4:	f44fd0ef          	jal	ra,0x2e08
    56c8:	03c45413          	srli	s0,s0,0x3c
    56cc:	00900793          	li	a5,9
    56d0:	00009597          	auipc	a1,0x9
    56d4:	b6858593          	addi	a1,a1,-1176 # 0xe238
    56d8:	0087ec63          	bltu	a5,s0,0x56f0
    56dc:	00009597          	auipc	a1,0x9
    56e0:	11c58593          	addi	a1,a1,284 # 0xe7f8
    56e4:	00341413          	slli	s0,s0,0x3
    56e8:	00858433          	add	s0,a1,s0
    56ec:	00043583          	0x43583
    56f0:	00009517          	auipc	a0,0x9
    56f4:	e3850513          	addi	a0,a0,-456 # 0xe528
    56f8:	f10fd0ef          	jal	ra,0x2e08
    56fc:	00013403          	0x13403
    5700:	00813083          	0x813083
    5704:	00009517          	auipc	a0,0x9
    5708:	e3450513          	addi	a0,a0,-460 # 0xe538
    570c:	01010113          	addi	sp,sp,16
    5710:	ef8fd06f          	j	0x2e08
    5714:	fd010113          	addi	sp,sp,-48
    5718:	02813023          	0x2813023
    571c:	02113423          	0x2113423
    5720:	00913c23          	0x913c23
    5724:	01213823          	0x1213823
    5728:	01313423          	0x1313423
    572c:	01413023          	0x1413023
    5730:	0005041b          	0x5041b
    5734:	08055063          	bgez	a0,0x57b4
    5738:	00900793          	li	a5,9
    573c:	04f40463          	beq	s0,a5,0x5784
    5740:	0087cc63          	blt	a5,s0,0x5758
    5744:	ffd47413          	andi	s0,s0,-3
    5748:	00500793          	li	a5,5
    574c:	00f41a63          	bne	s0,a5,0x5760
    5750:	c1dff0ef          	jal	ra,0x536c
    5754:	00c0006f          	j	0x5760
    5758:	00b00793          	li	a5,11
    575c:	02f40463          	beq	s0,a5,0x5784
    5760:	02013403          	0x2013403
    5764:	02813083          	0x2813083
    5768:	01813483          	0x1813483
    576c:	01013903          	0x1013903
    5770:	00813983          	0x813983
    5774:	00013a03          	0x13a03
    5778:	00000513          	li	a0,0
    577c:	03010113          	addi	sp,sp,48
    5780:	8d9fa06f          	j	0x58
    5784:	b69fa0ef          	jal	ra,0x2ec
    5788:	00050413          	mv	s0,a0
    578c:	b79fa0ef          	jal	ra,0x304
    5790:	00441713          	slli	a4,s0,0x4
    5794:	0001c797          	auipc	a5,0x1c
    5798:	17478793          	addi	a5,a5,372 # 0x21908
    579c:	00e787b3          	add	a5,a5,a4
    57a0:	0007b703          	0x7b703
    57a4:	0087b583          	0x87b583
    57a8:	00040513          	mv	a0,s0
    57ac:	000700e7          	jalr	a4
    57b0:	fb1ff06f          	j	0x5760
    57b4:	00050493          	mv	s1,a0
    57b8:	00058a13          	mv	s4,a1
    57bc:	00060913          	mv	s2,a2
    57c0:	00068993          	mv	s3,a3
    57c4:	88dfa0ef          	jal	ra,0x50
    57c8:	00048593          	mv	a1,s1
    57cc:	00090693          	mv	a3,s2
    57d0:	000a0613          	mv	a2,s4
    57d4:	00009517          	auipc	a0,0x9
    57d8:	d9450513          	addi	a0,a0,-620 # 0xe568
    57dc:	e2cfd0ef          	jal	ra,0x2e08
    57e0:	b89fd0ef          	jal	ra,0x3368
    57e4:	00050493          	mv	s1,a0
    57e8:	00009517          	auipc	a0,0x9
    57ec:	da850513          	addi	a0,a0,-600 # 0xe590
    57f0:	e18fd0ef          	jal	ra,0x2e08
    57f4:	00b00793          	li	a5,11
    57f8:	0e87e863          	bltu	a5,s0,0x58e8
    57fc:	00009717          	auipc	a4,0x9
    5800:	f4470713          	addi	a4,a4,-188 # 0xe740
    5804:	00241413          	slli	s0,s0,0x2
    5808:	00e40433          	add	s0,s0,a4
    580c:	00042783          	lw	a5,0(s0)
    5810:	00e787b3          	add	a5,a5,a4
    5814:	00078067          	jr	a5
    5818:	00009517          	auipc	a0,0x9
    581c:	d8850513          	addi	a0,a0,-632 # 0xe5a0
    5820:	de8fd0ef          	jal	ra,0x2e08
    5824:	0000a517          	auipc	a0,0xa
    5828:	d8450513          	addi	a0,a0,-636 # 0xf5a8
    582c:	ddcfd0ef          	jal	ra,0x2e08
    5830:	00098513          	mv	a0,s3
    5834:	c21ff0ef          	jal	ra,0x5454
    5838:	00090593          	mv	a1,s2
    583c:	00009517          	auipc	a0,0x9
    5840:	ed450513          	addi	a0,a0,-300 # 0xe710
    5844:	dc4fd0ef          	jal	ra,0x2e08
    5848:	00048613          	mv	a2,s1
    584c:	01400593          	li	a1,20
    5850:	00009517          	auipc	a0,0x9
    5854:	ed850513          	addi	a0,a0,-296 # 0xe728
    5858:	db0fd0ef          	jal	ra,0x2e08
    585c:	390050ef          	jal	ra,0xabec
    5860:	0000006f          	j	0x5860
    5864:	00009517          	auipc	a0,0x9
    5868:	d5c50513          	addi	a0,a0,-676 # 0xe5c0
    586c:	fb5ff06f          	j	0x5820
    5870:	00009517          	auipc	a0,0x9
    5874:	d7050513          	addi	a0,a0,-656 # 0xe5e0
    5878:	fa9ff06f          	j	0x5820
    587c:	00009517          	auipc	a0,0x9
    5880:	d7c50513          	addi	a0,a0,-644 # 0xe5f8
    5884:	f9dff06f          	j	0x5820
    5888:	00009517          	auipc	a0,0x9
    588c:	d8050513          	addi	a0,a0,-640 # 0xe608
    5890:	f91ff06f          	j	0x5820
    5894:	00009517          	auipc	a0,0x9
    5898:	d8c50513          	addi	a0,a0,-628 # 0xe620
    589c:	f85ff06f          	j	0x5820
    58a0:	00009517          	auipc	a0,0x9
    58a4:	d9850513          	addi	a0,a0,-616 # 0xe638
    58a8:	f79ff06f          	j	0x5820
    58ac:	00009517          	auipc	a0,0x9
    58b0:	dac50513          	addi	a0,a0,-596 # 0xe658
    58b4:	f6dff06f          	j	0x5820
    58b8:	00009517          	auipc	a0,0x9
    58bc:	db850513          	addi	a0,a0,-584 # 0xe670
    58c0:	f61ff06f          	j	0x5820
    58c4:	00009517          	auipc	a0,0x9
    58c8:	dcc50513          	addi	a0,a0,-564 # 0xe690
    58cc:	f55ff06f          	j	0x5820
    58d0:	00009517          	auipc	a0,0x9
    58d4:	de050513          	addi	a0,a0,-544 # 0xe6b0
    58d8:	f49ff06f          	j	0x5820
    58dc:	00009517          	auipc	a0,0x9
    58e0:	df450513          	addi	a0,a0,-524 # 0xe6d0
    58e4:	f3dff06f          	j	0x5820
    58e8:	00040593          	mv	a1,s0
    58ec:	00009517          	auipc	a0,0x9
    58f0:	e0450513          	addi	a0,a0,-508 # 0xe6f0
    58f4:	d14fd0ef          	jal	ra,0x2e08
    58f8:	f2dff06f          	j	0x5824
    58fc:	fe010113          	addi	sp,sp,-32
    5900:	00913423          	0x913423
    5904:	09053483          	0x9053483
    5908:	00813823          	0x813823
    590c:	00113c23          	0x113c23
    5910:	00050413          	mv	s0,a0
    5914:	00049e63          	bnez	s1,0x5930
    5918:	17100613          	li	a2,369
    591c:	00009597          	auipc	a1,0x9
    5920:	03c58593          	addi	a1,a1,60 # 0xe958
    5924:	00009517          	auipc	a0,0x9
    5928:	f2450513          	addi	a0,a0,-220 # 0xe848
    592c:	e68fd0ef          	jal	ra,0x2f94
    5930:	0084d503          	lhu	a0,8(s1)
    5934:	00a4d703          	lhu	a4,10(s1)
    5938:	02e51a63          	bne	a0,a4,0x596c
    593c:	00c4a783          	lw	a5,12(s1)
    5940:	00000513          	li	a0,0
    5944:	00078a63          	beqz	a5,0x5958
    5948:	08843503          	0x8843503
    594c:	02a55513          	srli	a0,a0,0x2a
    5950:	03051513          	slli	a0,a0,0x30
    5954:	03055513          	srli	a0,a0,0x30
    5958:	01813083          	0x1813083
    595c:	01013403          	0x1013403
    5960:	00813483          	0x813483
    5964:	02010113          	addi	sp,sp,32
    5968:	00008067          	ret
    596c:	00a77663          	bgeu	a4,a0,0x5978
    5970:	40e5053b          	0x40e5053b
    5974:	fe5ff06f          	j	0x5958
    5978:	08843783          	0x8843783
    597c:	40a7053b          	0x40a7053b
    5980:	02a7d793          	srli	a5,a5,0x2a
    5984:	0107979b          	0x107979b
    5988:	0107d79b          	0x107d79b
    598c:	40a7853b          	0x40a7853b
    5990:	fc9ff06f          	j	0x5958
    5994:	ff010113          	addi	sp,sp,-16
    5998:	00813023          	0x813023
    599c:	00113423          	0x113423
    59a0:	00050413          	mv	s0,a0
    59a4:	00051e63          	bnez	a0,0x59c0
    59a8:	24000613          	li	a2,576
    59ac:	00009597          	auipc	a1,0x9
    59b0:	ffc58593          	addi	a1,a1,-4 # 0xe9a8
    59b4:	00008517          	auipc	a0,0x8
    59b8:	39450513          	addi	a0,a0,916 # 0xdd48
    59bc:	dd8fd0ef          	jal	ra,0x2f94
    59c0:	08043783          	0x8043783
    59c4:	08043823          	0x8043823
    59c8:	08043c23          	0x8043c23
    59cc:	0007b303          	0x7b303
    59d0:	00030e63          	beqz	t1,0x59ec
    59d4:	08840593          	addi	a1,s0,136
    59d8:	00040513          	mv	a0,s0
    59dc:	00013403          	0x13403
    59e0:	00813083          	0x813083
    59e4:	01010113          	addi	sp,sp,16
    59e8:	00030067          	jr	t1
    59ec:	00813083          	0x813083
    59f0:	00013403          	0x13403
    59f4:	00000513          	li	a0,0
    59f8:	01010113          	addi	sp,sp,16
    59fc:	00008067          	ret
    5a00:	fd010113          	addi	sp,sp,-48
    5a04:	02813023          	0x2813023
    5a08:	00913c23          	0x913c23
    5a0c:	02113423          	0x2113423
    5a10:	01213823          	0x1213823
    5a14:	01313423          	0x1313423
    5a18:	01413023          	0x1413023
    5a1c:	00050413          	mv	s0,a0
    5a20:	00058493          	mv	s1,a1
    5a24:	00051e63          	bnez	a0,0x5a40
    5a28:	25300613          	li	a2,595
    5a2c:	00009597          	auipc	a1,0x9
    5a30:	f8c58593          	addi	a1,a1,-116 # 0xe9b8
    5a34:	00008517          	auipc	a0,0x8
    5a38:	31450513          	addi	a0,a0,788 # 0xdd48
    5a3c:	d58fd0ef          	jal	ra,0x2f94
    5a40:	2004f713          	andi	a4,s1,512
    5a44:	00070a63          	beqz	a4,0x5a58
    5a48:	02c45783          	lhu	a5,44(s0)
    5a4c:	ff800513          	li	a0,-8
    5a50:	2007f793          	andi	a5,a5,512
    5a54:	16078e63          	beqz	a5,0x5bd0
    5a58:	000017b7          	lui	a5,0x1
    5a5c:	80078793          	addi	a5,a5,-2048 # 0x800
    5a60:	00f4f9b3          	and	s3,s1,a5
    5a64:	00098a63          	beqz	s3,0x5a78
    5a68:	02c45683          	lhu	a3,44(s0)
    5a6c:	ff800513          	li	a0,-8
    5a70:	00d7f7b3          	and	a5,a5,a3
    5a74:	14078e63          	beqz	a5,0x5bd0
    5a78:	1004f793          	andi	a5,s1,256
    5a7c:	00078a63          	beqz	a5,0x5a90
    5a80:	02c45683          	lhu	a3,44(s0)
    5a84:	ff800513          	li	a0,-8
    5a88:	1006f693          	andi	a3,a3,256
    5a8c:	14068263          	beqz	a3,0x5bd0
    5a90:	4004fa13          	andi	s4,s1,1024
    5a94:	000a0a63          	beqz	s4,0x5aa8
    5a98:	02c45683          	lhu	a3,44(s0)
    5a9c:	ff800513          	li	a0,-8
    5aa0:	4006f693          	andi	a3,a3,1024
    5aa4:	12068663          	beqz	a3,0x5bd0
    5aa8:	0404f693          	andi	a3,s1,64
    5aac:	04000913          	li	s2,64
    5ab0:	00069a63          	bnez	a3,0x5ac4
    5ab4:	02e45903          	lhu	s2,46(s0)
    5ab8:	04097913          	andi	s2,s2,64
    5abc:	00090463          	beqz	s2,0x5ac4
    5ac0:	04000913          	li	s2,64
    5ac4:	09043683          	0x9043683
    5ac8:	0ff4f493          	andi	s1,s1,255
    5acc:	02941723          	sh	s1,46(s0)
    5ad0:	1e069a63          	bnez	a3,0x5cc4
    5ad4:	10078e63          	beqz	a5,0x5bf0
    5ad8:	08843503          	0x8843503
    5adc:	02a55513          	srli	a0,a0,0x2a
    5ae0:	03051513          	slli	a0,a0,0x30
    5ae4:	03055513          	srli	a0,a0,0x30
    5ae8:	01050513          	addi	a0,a0,16
    5aec:	e1cfb0ef          	jal	ra,0x1108
    5af0:	00050493          	mv	s1,a0
    5af4:	00051e63          	bnez	a0,0x5b10
    5af8:	27200613          	li	a2,626
    5afc:	00009597          	auipc	a1,0x9
    5b00:	ebc58593          	addi	a1,a1,-324 # 0xe9b8
    5b04:	00009517          	auipc	a0,0x9
    5b08:	d4450513          	addi	a0,a0,-700 # 0xe848
    5b0c:	c88fd0ef          	jal	ra,0x2f94
    5b10:	08843603          	0x8843603
    5b14:	01048513          	addi	a0,s1,16
    5b18:	00000593          	li	a1,0
    5b1c:	02a65613          	srli	a2,a2,0x2a
    5b20:	03061613          	slli	a2,a2,0x30
    5b24:	03065613          	srli	a2,a2,0x30
    5b28:	00a4b023          	0xa4b023
    5b2c:	90dfc0ef          	jal	ra,0x2438
    5b30:	0004b423          	0x4b423
    5b34:	02e45783          	lhu	a5,46(s0)
    5b38:	08943823          	0x8943823
    5b3c:	10000613          	li	a2,256
    5b40:	1007e793          	ori	a5,a5,256
    5b44:	02f41723          	sh	a5,46(s0)
    5b48:	08043783          	0x8043783
    5b4c:	01000593          	li	a1,16
    5b50:	00040513          	mv	a0,s0
    5b54:	0087b783          	0x87b783
    5b58:	000780e7          	jalr	a5
    5b5c:	09843783          	0x9843783
    5b60:	1e079663          	bnez	a5,0x5d4c
    5b64:	160a0e63          	beqz	s4,0x5ce0
    5b68:	01800513          	li	a0,24
    5b6c:	d9cfb0ef          	jal	ra,0x1108
    5b70:	00050493          	mv	s1,a0
    5b74:	00051e63          	bnez	a0,0x5b90
    5b78:	2b100613          	li	a2,689
    5b7c:	00009597          	auipc	a1,0x9
    5b80:	e3c58593          	addi	a1,a1,-452 # 0xe9b8
    5b84:	00009517          	auipc	a0,0x9
    5b88:	cf450513          	addi	a0,a0,-780 # 0xe878
    5b8c:	c08fd0ef          	jal	ra,0x2f94
    5b90:	00048513          	mv	a0,s1
    5b94:	311000ef          	jal	ra,0x66a4
    5b98:	02e45783          	lhu	a5,46(s0)
    5b9c:	08943c23          	0x8943c23
    5ba0:	40000613          	li	a2,1024
    5ba4:	4007e793          	ori	a5,a5,1024
    5ba8:	02f41723          	sh	a5,46(s0)
    5bac:	08043783          	0x8043783
    5bb0:	01000593          	li	a1,16
    5bb4:	0087b783          	0x87b783
    5bb8:	00040513          	mv	a0,s0
    5bbc:	000780e7          	jalr	a5
    5bc0:	02e45783          	lhu	a5,46(s0)
    5bc4:	00000513          	li	a0,0
    5bc8:	00f96933          	or	s2,s2,a5
    5bcc:	03241723          	sh	s2,46(s0)
    5bd0:	02813083          	0x2813083
    5bd4:	02013403          	0x2013403
    5bd8:	01813483          	0x1813483
    5bdc:	01013903          	0x1013903
    5be0:	00813983          	0x813983
    5be4:	00013a03          	0x13a03
    5be8:	03010113          	addi	sp,sp,48
    5bec:	00008067          	ret
    5bf0:	f60706e3          	beqz	a4,0x5b5c
    5bf4:	08c42703          	lw	a4,140(s0)
    5bf8:	040007b7          	lui	a5,0x4000
    5bfc:	c0078793          	addi	a5,a5,-1024 # 0x3fffc00
    5c00:	00e7f7b3          	and	a5,a5,a4
    5c04:	04079263          	bnez	a5,0x5c48
    5c08:	00400513          	li	a0,4
    5c0c:	cfcfb0ef          	jal	ra,0x1108
    5c10:	00050493          	mv	s1,a0
    5c14:	00051e63          	bnez	a0,0x5c30
    5c18:	28500613          	li	a2,645
    5c1c:	00009597          	auipc	a1,0x9
    5c20:	d9c58593          	addi	a1,a1,-612 # 0xe9b8
    5c24:	00009517          	auipc	a0,0x9
    5c28:	c3c50513          	addi	a0,a0,-964 # 0xe860
    5c2c:	b68fd0ef          	jal	ra,0x2f94
    5c30:	0004a023          	sw	zero,0(s1)
    5c34:	08943823          	0x8943823
    5c38:	02e45783          	lhu	a5,46(s0)
    5c3c:	2007e793          	ori	a5,a5,512
    5c40:	02f41723          	sh	a5,46(s0)
    5c44:	f19ff06f          	j	0x5b5c
    5c48:	08843503          	0x8843503
    5c4c:	02a55513          	srli	a0,a0,0x2a
    5c50:	03051513          	slli	a0,a0,0x30
    5c54:	03055513          	srli	a0,a0,0x30
    5c58:	01050513          	addi	a0,a0,16
    5c5c:	cacfb0ef          	jal	ra,0x1108
    5c60:	00050493          	mv	s1,a0
    5c64:	00051e63          	bnez	a0,0x5c80
    5c68:	28e00613          	li	a2,654
    5c6c:	00009597          	auipc	a1,0x9
    5c70:	d4c58593          	addi	a1,a1,-692 # 0xe9b8
    5c74:	00009517          	auipc	a0,0x9
    5c78:	bd450513          	addi	a0,a0,-1068 # 0xe848
    5c7c:	b18fd0ef          	jal	ra,0x2f94
    5c80:	08843603          	0x8843603
    5c84:	01048513          	addi	a0,s1,16
    5c88:	00a4b023          	0xa4b023
    5c8c:	02a65613          	srli	a2,a2,0x2a
    5c90:	03061613          	slli	a2,a2,0x30
    5c94:	03065613          	srli	a2,a2,0x30
    5c98:	00000593          	li	a1,0
    5c9c:	f9cfc0ef          	jal	ra,0x2438
    5ca0:	0004b423          	0x4b423
    5ca4:	08043783          	0x8043783
    5ca8:	08943823          	0x8943823
    5cac:	20000613          	li	a2,512
    5cb0:	0087b783          	0x87b783
    5cb4:	00300593          	li	a1,3
    5cb8:	00040513          	mv	a0,s0
    5cbc:	000780e7          	jalr	a5
    5cc0:	f79ff06f          	j	0x5c38
    5cc4:	00078863          	beqz	a5,0x5cd4
    5cc8:	1004e493          	ori	s1,s1,256
    5ccc:	02941723          	sh	s1,46(s0)
    5cd0:	e8dff06f          	j	0x5b5c
    5cd4:	e80704e3          	beqz	a4,0x5b5c
    5cd8:	2004e493          	ori	s1,s1,512
    5cdc:	ff1ff06f          	j	0x5ccc
    5ce0:	ee0980e3          	beqz	s3,0x5bc0
    5ce4:	04800513          	li	a0,72
    5ce8:	c20fb0ef          	jal	ra,0x1108
    5cec:	00050493          	mv	s1,a0
    5cf0:	00051e63          	bnez	a0,0x5d0c
    5cf4:	2c000613          	li	a2,704
    5cf8:	00009597          	auipc	a1,0x9
    5cfc:	cc058593          	addi	a1,a1,-832 # 0xe9b8
    5d00:	00009517          	auipc	a0,0x9
    5d04:	b9050513          	addi	a0,a0,-1136 # 0xe890
    5d08:	a8cfd0ef          	jal	ra,0x2f94
    5d0c:	00400613          	li	a2,4
    5d10:	00800593          	li	a1,8
    5d14:	0004a023          	sw	zero,0(s1)
    5d18:	00000693          	li	a3,0
    5d1c:	00848513          	addi	a0,s1,8
    5d20:	33d000ef          	jal	ra,0x685c
    5d24:	02e45783          	lhu	a5,46(s0)
    5d28:	00001637          	lui	a2,0x1
    5d2c:	80060613          	addi	a2,a2,-2048 # 0x800
    5d30:	00c7e7b3          	or	a5,a5,a2
    5d34:	02f41723          	sh	a5,46(s0)
    5d38:	08043783          	0x8043783
    5d3c:	08943c23          	0x8943c23
    5d40:	00300593          	li	a1,3
    5d44:	0087b783          	0x87b783
    5d48:	e71ff06f          	j	0x5bb8
    5d4c:	02e45783          	lhu	a5,46(s0)
    5d50:	000a0863          	beqz	s4,0x5d60
    5d54:	4007e793          	ori	a5,a5,1024
    5d58:	02f41723          	sh	a5,46(s0)
    5d5c:	e65ff06f          	j	0x5bc0
    5d60:	e60980e3          	beqz	s3,0x5bc0
    5d64:	00001737          	lui	a4,0x1
    5d68:	80070713          	addi	a4,a4,-2048 # 0x800
    5d6c:	00e7e7b3          	or	a5,a5,a4
    5d70:	fe9ff06f          	j	0x5d58
    5d74:	fe010113          	addi	sp,sp,-32
    5d78:	00813823          	0x813823
    5d7c:	00913423          	0x913423
    5d80:	01213023          	0x1213023
    5d84:	00113c23          	0x113c23
    5d88:	00050413          	mv	s0,a0
    5d8c:	00058913          	mv	s2,a1
    5d90:	00060493          	mv	s1,a2
    5d94:	00051e63          	bnez	a0,0x5db0
    5d98:	3dc00613          	li	a2,988
    5d9c:	00009597          	auipc	a1,0x9
    5da0:	c5c58593          	addi	a1,a1,-932 # 0xe9f8
    5da4:	00008517          	auipc	a0,0x8
    5da8:	fa450513          	addi	a0,a0,-92 # 0xdd48
    5dac:	9e8fd0ef          	jal	ra,0x2f94
    5db0:	00200793          	li	a5,2
    5db4:	02f90063          	beq	s2,a5,0x5dd4
    5db8:	00300793          	li	a5,3
    5dbc:	04f90063          	beq	s2,a5,0x5dfc
    5dc0:	00100793          	li	a5,1
    5dc4:	08f91c63          	bne	s2,a5,0x5e5c
    5dc8:	02c45783          	lhu	a5,44(s0)
    5dcc:	fdf7f793          	andi	a5,a5,-33
    5dd0:	00c0006f          	j	0x5ddc
    5dd4:	02c45783          	lhu	a5,44(s0)
    5dd8:	0207e793          	ori	a5,a5,32
    5ddc:	02f41623          	sh	a5,44(s0)
    5de0:	00000513          	li	a0,0
    5de4:	01813083          	0x1813083
    5de8:	01013403          	0x1013403
    5dec:	00813483          	0x813483
    5df0:	00013903          	0x13903
    5df4:	02010113          	addi	sp,sp,32
    5df8:	00008067          	ret
    5dfc:	fe0482e3          	beqz	s1,0x5de0
    5e00:	0044a703          	lw	a4,4(s1)
    5e04:	08843783          	0x8843783
    5e08:	03044683          	lbu	a3,48(s0)
    5e0c:	00a7571b          	0xa7571b
    5e10:	02a7d793          	srli	a5,a5,0x2a
    5e14:	03071713          	slli	a4,a4,0x30
    5e18:	03079793          	slli	a5,a5,0x30
    5e1c:	03075713          	srli	a4,a4,0x30
    5e20:	0307d793          	srli	a5,a5,0x30
    5e24:	00f70663          	beq	a4,a5,0x5e30
    5e28:	00700513          	li	a0,7
    5e2c:	fa069ce3          	bnez	a3,0x5de4
    5e30:	0004a783          	lw	a5,0(s1)
    5e34:	08f42423          	sw	a5,136(s0)
    5e38:	0044a783          	lw	a5,4(s1)
    5e3c:	08f42623          	sw	a5,140(s0)
    5e40:	fa0680e3          	beqz	a3,0x5de0
    5e44:	08043783          	0x8043783
    5e48:	00048593          	mv	a1,s1
    5e4c:	00040513          	mv	a0,s0
    5e50:	0007b783          	0x7b783
    5e54:	000780e7          	jalr	a5
    5e58:	f89ff06f          	j	0x5de0
    5e5c:	08043783          	0x8043783
    5e60:	00040513          	mv	a0,s0
    5e64:	01013403          	0x1013403
    5e68:	01813083          	0x1813083
    5e6c:	0087b303          	0x87b303
    5e70:	00048613          	mv	a2,s1
    5e74:	00090593          	mv	a1,s2
    5e78:	00813483          	0x813483
    5e7c:	00013903          	0x13903
    5e80:	02010113          	addi	sp,sp,32
    5e84:	00030067          	jr	t1
    5e88:	fc010113          	addi	sp,sp,-64
    5e8c:	02813823          	0x2813823
    5e90:	02913423          	0x2913423
    5e94:	01313c23          	0x1313c23
    5e98:	02113c23          	0x2113c23
    5e9c:	03213023          	0x3213023
    5ea0:	01413823          	0x1413823
    5ea4:	01513423          	0x1513423
    5ea8:	01613023          	0x1613023
    5eac:	00050413          	mv	s0,a0
    5eb0:	00060493          	mv	s1,a2
    5eb4:	00068993          	mv	s3,a3
    5eb8:	00051e63          	bnez	a0,0x5ed4
    5ebc:	36100613          	li	a2,865
    5ec0:	00009597          	auipc	a1,0x9
    5ec4:	b2858593          	addi	a1,a1,-1240 # 0xe9e8
    5ec8:	00008517          	auipc	a0,0x8
    5ecc:	e8050513          	addi	a0,a0,-384 # 0xdd48
    5ed0:	8c4fd0ef          	jal	ra,0x2f94
    5ed4:	04098263          	beqz	s3,0x5f18
    5ed8:	02e45783          	lhu	a5,46(s0)
    5edc:	0009899b          	0x9899b
    5ee0:	00098913          	mv	s2,s3
    5ee4:	4007f713          	andi	a4,a5,1024
    5ee8:	0a070e63          	beqz	a4,0x5fa4
    5eec:	09843a03          	0x9843a03
    5ef0:	000a1e63          	bnez	s4,0x5f0c
    5ef4:	14100613          	li	a2,321
    5ef8:	00009597          	auipc	a1,0x9
    5efc:	a5058593          	addi	a1,a1,-1456 # 0xe948
    5f00:	00009517          	auipc	a0,0x9
    5f04:	9a850513          	addi	a0,a0,-1624 # 0xe8a8
    5f08:	88cfd0ef          	jal	ra,0x2f94
    5f0c:	00a00b13          	li	s6,10
    5f10:	fff00a93          	li	s5,-1
    5f14:	02091863          	bnez	s2,0x5f44
    5f18:	03813083          	0x3813083
    5f1c:	03013403          	0x3013403
    5f20:	02813483          	0x2813483
    5f24:	02013903          	0x2013903
    5f28:	01013a03          	0x1013a03
    5f2c:	00813a83          	0x813a83
    5f30:	00013b03          	0x13b03
    5f34:	00098513          	mv	a0,s3
    5f38:	01813983          	0x1813983
    5f3c:	04010113          	addi	sp,sp,64
    5f40:	00008067          	ret
    5f44:	0004c783          	lbu	a5,0(s1)
    5f48:	03679c63          	bne	a5,s6,0x5f80
    5f4c:	02e45783          	lhu	a5,46(s0)
    5f50:	0407f793          	andi	a5,a5,64
    5f54:	02078663          	beqz	a5,0x5f80
    5f58:	08043783          	0x8043783
    5f5c:	00d00593          	li	a1,13
    5f60:	00040513          	mv	a0,s0
    5f64:	0107b783          	0x107b783
    5f68:	000780e7          	jalr	a5
    5f6c:	01551a63          	bne	a0,s5,0x5f80
    5f70:	fff00593          	li	a1,-1
    5f74:	000a0513          	mv	a0,s4
    5f78:	77c000ef          	jal	ra,0x66f4
    5f7c:	f99ff06f          	j	0x5f14
    5f80:	08043783          	0x8043783
    5f84:	0004c583          	lbu	a1,0(s1)
    5f88:	00040513          	mv	a0,s0
    5f8c:	0107b783          	0x107b783
    5f90:	000780e7          	jalr	a5
    5f94:	fd550ee3          	beq	a0,s5,0x5f70
    5f98:	00148493          	addi	s1,s1,1
    5f9c:	fff9091b          	0xfff9091b
    5fa0:	f75ff06f          	j	0x5f14
    5fa4:	03479713          	slli	a4,a5,0x34
    5fa8:	00a00a13          	li	s4,10
    5fac:	0a075a63          	bgez	a4,0x6060
    5fb0:	09843983          	0x9843983
    5fb4:	fff00693          	li	a3,-1
    5fb8:	00090613          	mv	a2,s2
    5fbc:	00048593          	mv	a1,s1
    5fc0:	00898513          	addi	a0,s3,8
    5fc4:	169000ef          	jal	ra,0x692c
    5fc8:	04051463          	bnez	a0,0x6010
    5fcc:	884fa0ef          	jal	ra,0x50
    5fd0:	0009a703          	lw	a4,0(s3)
    5fd4:	00100793          	li	a5,1
    5fd8:	02f70863          	beq	a4,a5,0x6008
    5fdc:	00f9a023          	sw	a5,0(s3)
    5fe0:	878fa0ef          	jal	ra,0x58
    5fe4:	08043783          	0x8043783
    5fe8:	00200693          	li	a3,2
    5fec:	00090613          	mv	a2,s2
    5ff0:	0207b783          	0x207b783
    5ff4:	00048593          	mv	a1,s1
    5ff8:	00040513          	mv	a0,s0
    5ffc:	000780e7          	jalr	a5
    6000:	00090993          	mv	s3,s2
    6004:	f15ff06f          	j	0x5f18
    6008:	850fa0ef          	jal	ra,0x58
    600c:	ff5ff06f          	j	0x6000
    6010:	be8fc0ef          	jal	ra,0x23f8
    6014:	00000913          	li	s2,0
    6018:	fe9ff06f          	j	0x6000
    601c:	0004c783          	lbu	a5,0(s1)
    6020:	03479263          	bne	a5,s4,0x6044
    6024:	02e45783          	lhu	a5,46(s0)
    6028:	0407f793          	andi	a5,a5,64
    602c:	00078c63          	beqz	a5,0x6044
    6030:	08043783          	0x8043783
    6034:	00d00593          	li	a1,13
    6038:	00040513          	mv	a0,s0
    603c:	0107b783          	0x107b783
    6040:	000780e7          	jalr	a5
    6044:	08043783          	0x8043783
    6048:	0004c583          	lbu	a1,0(s1)
    604c:	00040513          	mv	a0,s0
    6050:	0107b783          	0x107b783
    6054:	00148493          	addi	s1,s1,1
    6058:	fff9091b          	0xfff9091b
    605c:	000780e7          	jalr	a5
    6060:	fa091ee3          	bnez	s2,0x601c
    6064:	eb5ff06f          	j	0x5f18
    6068:	fc010113          	addi	sp,sp,-64
    606c:	02813823          	0x2813823
    6070:	02913423          	0x2913423
    6074:	03213023          	0x3213023
    6078:	02113c23          	0x2113c23
    607c:	01313c23          	0x1313c23
    6080:	01413823          	0x1413823
    6084:	01513423          	0x1513423
    6088:	01613023          	0x1613023
    608c:	00050413          	mv	s0,a0
    6090:	00060913          	mv	s2,a2
    6094:	00068493          	mv	s1,a3
    6098:	00051e63          	bnez	a0,0x60b4
    609c:	34700613          	li	a2,839
    60a0:	00009597          	auipc	a1,0x9
    60a4:	93858593          	addi	a1,a1,-1736 # 0xe9d8
    60a8:	00008517          	auipc	a0,0x8
    60ac:	ca050513          	addi	a0,a0,-864 # 0xdd48
    60b0:	ee5fc0ef          	jal	ra,0x2f94
    60b4:	06048463          	beqz	s1,0x611c
    60b8:	02e45783          	lhu	a5,46(s0)
    60bc:	0004849b          	0x4849b
    60c0:	1007f713          	andi	a4,a5,256
    60c4:	0c070e63          	beqz	a4,0x61a0
    60c8:	09043983          	0x9043983
    60cc:	00099e63          	bnez	s3,0x60e8
    60d0:	11100613          	li	a2,273
    60d4:	00009597          	auipc	a1,0x9
    60d8:	86458593          	addi	a1,a1,-1948 # 0xe938
    60dc:	00008517          	auipc	a0,0x8
    60e0:	76c50513          	addi	a0,a0,1900 # 0xe848
    60e4:	eb1fc0ef          	jal	ra,0x2f94
    60e8:	00048a13          	mv	s4,s1
    60ec:	00100a93          	li	s5,1
    60f0:	020a0463          	beqz	s4,0x6118
    60f4:	f5df90ef          	jal	ra,0x50
    60f8:	00a9d783          	lhu	a5,10(s3)
    60fc:	0089d703          	lhu	a4,8(s3)
    6100:	00c9a683          	lw	a3,12(s3)
    6104:	00050613          	mv	a2,a0
    6108:	04f71063          	bne	a4,a5,0x6148
    610c:	0006871b          	0x6871b
    6110:	02071c63          	bnez	a4,0x6148
    6114:	f45f90ef          	jal	ra,0x58
    6118:	414484bb          	0x414484bb
    611c:	03813083          	0x3813083
    6120:	03013403          	0x3013403
    6124:	02013903          	0x2013903
    6128:	01813983          	0x1813983
    612c:	01013a03          	0x1013a03
    6130:	00813a83          	0x813a83
    6134:	00013b03          	0x13b03
    6138:	00048513          	mv	a0,s1
    613c:	02813483          	0x2813483
    6140:	04010113          	addi	sp,sp,64
    6144:	00008067          	ret
    6148:	0009b703          	0x9b703
    614c:	00f70733          	add	a4,a4,a5
    6150:	00074b03          	lbu	s6,0(a4)
    6154:	08843703          	0x8843703
    6158:	0017879b          	0x17879b
    615c:	03079793          	slli	a5,a5,0x30
    6160:	02a75713          	srli	a4,a4,0x2a
    6164:	0307d793          	srli	a5,a5,0x30
    6168:	03071713          	slli	a4,a4,0x30
    616c:	00f99523          	sh	a5,10(s3)
    6170:	03075713          	srli	a4,a4,0x30
    6174:	00e7e463          	bltu	a5,a4,0x617c
    6178:	00099523          	sh	zero,10(s3)
    617c:	0006869b          	0x6869b
    6180:	01569463          	bne	a3,s5,0x6188
    6184:	0009a623          	sw	zero,12(s3)
    6188:	00060513          	mv	a0,a2
    618c:	ecdf90ef          	jal	ra,0x58
    6190:	00190913          	addi	s2,s2,1
    6194:	ff690fa3          	sb	s6,-1(s2)
    6198:	fffa0a1b          	0xfffa0a1b
    619c:	f55ff06f          	j	0x60f0
    61a0:	2007f793          	andi	a5,a5,512
    61a4:	00048993          	mv	s3,s1
    61a8:	04079463          	bnez	a5,0x61f0
    61ac:	fff00a13          	li	s4,-1
    61b0:	00a00a93          	li	s5,10
    61b4:	02098a63          	beqz	s3,0x61e8
    61b8:	08043783          	0x8043783
    61bc:	00040513          	mv	a0,s0
    61c0:	0187b783          	0x187b783
    61c4:	000780e7          	jalr	a5
    61c8:	03450063          	beq	a0,s4,0x61e8
    61cc:	00a90023          	sb	a0,0(s2)
    61d0:	02e45783          	lhu	a5,46(s0)
    61d4:	00190913          	addi	s2,s2,1
    61d8:	fff9899b          	0xfff9899b
    61dc:	0407f793          	andi	a5,a5,64
    61e0:	fc078ae3          	beqz	a5,0x61b4
    61e4:	fd5518e3          	bne	a0,s5,0x61b4
    61e8:	413484bb          	0x413484bb
    61ec:	f31ff06f          	j	0x611c
    61f0:	00091e63          	bnez	s2,0x620c
    61f4:	1df00613          	li	a2,479
    61f8:	00008597          	auipc	a1,0x8
    61fc:	7a058593          	addi	a1,a1,1952 # 0xe998
    6200:	00008517          	auipc	a0,0x8
    6204:	6b850513          	addi	a0,a0,1720 # 0xe8b8
    6208:	d8dfc0ef          	jal	ra,0x2f94
    620c:	e45f90ef          	jal	ra,0x50
    6210:	08c42703          	lw	a4,140(s0)
    6214:	040007b7          	lui	a5,0x4000
    6218:	c0078793          	addi	a5,a5,-1024 # 0x3fffc00
    621c:	00e7f7b3          	and	a5,a5,a4
    6220:	09043a03          	0x9043a03
    6224:	00050a93          	mv	s5,a0
    6228:	08079a63          	bnez	a5,0x62bc
    622c:	000a1e63          	bnez	s4,0x6248
    6230:	1e900613          	li	a2,489
    6234:	00008597          	auipc	a1,0x8
    6238:	76458593          	addi	a1,a1,1892 # 0xe998
    623c:	00008517          	auipc	a0,0x8
    6240:	62450513          	addi	a0,a0,1572 # 0xe860
    6244:	d51fc0ef          	jal	ra,0x2f94
    6248:	000a2703          	lw	a4,0(s4)
    624c:	00100793          	li	a5,1
    6250:	ff900993          	li	s3,-7
    6254:	04f70663          	beq	a4,a5,0x62a0
    6258:	00fa2023          	sw	a5,0(s4)
    625c:	08043783          	0x8043783
    6260:	0207b783          	0x207b783
    6264:	00079e63          	bnez	a5,0x6280
    6268:	1ee00613          	li	a2,494
    626c:	00008597          	auipc	a1,0x8
    6270:	72c58593          	addi	a1,a1,1836 # 0xe998
    6274:	00008517          	auipc	a0,0x8
    6278:	67450513          	addi	a0,a0,1652 # 0xe8e8
    627c:	d19fc0ef          	jal	ra,0x2f94
    6280:	08043783          	0x8043783
    6284:	00100693          	li	a3,1
    6288:	00048613          	mv	a2,s1
    628c:	0207b783          	0x207b783
    6290:	00090593          	mv	a1,s2
    6294:	00040513          	mv	a0,s0
    6298:	000780e7          	jalr	a5
    629c:	00000993          	li	s3,0
    62a0:	000a8513          	mv	a0,s5
    62a4:	db5f90ef          	jal	ra,0x58
    62a8:	e6098ae3          	beqz	s3,0x611c
    62ac:	00098513          	mv	a0,s3
    62b0:	948fc0ef          	jal	ra,0x23f8
    62b4:	00000493          	li	s1,0
    62b8:	e65ff06f          	j	0x611c
    62bc:	00040513          	mv	a0,s0
    62c0:	e3cff0ef          	jal	ra,0x58fc
    62c4:	00050993          	mv	s3,a0
    62c8:	000a1e63          	bnez	s4,0x62e4
    62cc:	1fe00613          	li	a2,510
    62d0:	00008597          	auipc	a1,0x8
    62d4:	6c858593          	addi	a1,a1,1736 # 0xe998
    62d8:	00008517          	auipc	a0,0x8
    62dc:	57050513          	addi	a0,a0,1392 # 0xe848
    62e0:	cb5fc0ef          	jal	ra,0x2f94
    62e4:	0009879b          	0x9879b
    62e8:	00f4d463          	bge	s1,a5,0x62f0
    62ec:	00048993          	mv	s3,s1
    62f0:	08843783          	0x8843783
    62f4:	00aa5603          	lhu	a2,10(s4)
    62f8:	000a3583          	0xa3583
    62fc:	02a7d793          	srli	a5,a5,0x2a
    6300:	03079793          	slli	a5,a5,0x30
    6304:	0307d793          	srli	a5,a5,0x30
    6308:	01360733          	add	a4,a2,s3
    630c:	00c585b3          	add	a1,a1,a2
    6310:	0af77263          	bgeu	a4,a5,0x63b4
    6314:	00098613          	mv	a2,s3
    6318:	00090513          	mv	a0,s2
    631c:	9c8fc0ef          	jal	ra,0x24e4
    6320:	09043483          	0x9043483
    6324:	00049e63          	bnez	s1,0x6340
    6328:	19c00613          	li	a2,412
    632c:	00008597          	auipc	a1,0x8
    6330:	64c58593          	addi	a1,a1,1612 # 0xe978
    6334:	00008517          	auipc	a0,0x8
    6338:	51450513          	addi	a0,a0,1300 # 0xe848
    633c:	c59fc0ef          	jal	ra,0x2f94
    6340:	00040513          	mv	a0,s0
    6344:	db8ff0ef          	jal	ra,0x58fc
    6348:	01357e63          	bgeu	a0,s3,0x6364
    634c:	19d00613          	li	a2,413
    6350:	00008597          	auipc	a1,0x8
    6354:	62858593          	addi	a1,a1,1576 # 0xe978
    6358:	00008517          	auipc	a0,0x8
    635c:	5b850513          	addi	a0,a0,1464 # 0xe910
    6360:	c35fc0ef          	jal	ra,0x2f94
    6364:	00c4a783          	lw	a5,12(s1)
    6368:	00078663          	beqz	a5,0x6374
    636c:	00098463          	beqz	s3,0x6374
    6370:	0004a623          	sw	zero,12(s1)
    6374:	00a4d503          	lhu	a0,10(s1)
    6378:	08843583          	0x8843583
    637c:	013507bb          	0x13507bb
    6380:	03079513          	slli	a0,a5,0x30
    6384:	02a5d593          	srli	a1,a1,0x2a
    6388:	03055513          	srli	a0,a0,0x30
    638c:	03059593          	slli	a1,a1,0x30
    6390:	00a49523          	sh	a0,10(s1)
    6394:	0305d593          	srli	a1,a1,0x30
    6398:	00b56663          	bltu	a0,a1,0x63a4
    639c:	e99f90ef          	jal	ra,0x234
    63a0:	00a49523          	sh	a0,10(s1)
    63a4:	000a8513          	mv	a0,s5
    63a8:	cb1f90ef          	jal	ra,0x58
    63ac:	0009849b          	0x9849b
    63b0:	d6dff06f          	j	0x611c
    63b4:	40c7863b          	0x40c7863b
    63b8:	00090513          	mv	a0,s2
    63bc:	928fc0ef          	jal	ra,0x24e4
    63c0:	08843783          	0x8843783
    63c4:	00aa5503          	lhu	a0,10(s4)
    63c8:	000a3583          	0xa3583
    63cc:	02a7d793          	srli	a5,a5,0x2a
    63d0:	03079793          	slli	a5,a5,0x30
    63d4:	0307d793          	srli	a5,a5,0x30
    63d8:	40f50633          	sub	a2,a0,a5
    63dc:	40a78533          	sub	a0,a5,a0
    63e0:	01360633          	add	a2,a2,s3
    63e4:	00a90533          	add	a0,s2,a0
    63e8:	f35ff06f          	j	0x631c
    63ec:	fe010113          	addi	sp,sp,-32
    63f0:	00813823          	0x813823
    63f4:	00113c23          	0x113c23
    63f8:	00913423          	0x913423
    63fc:	00050413          	mv	s0,a0
    6400:	00051e63          	bnez	a0,0x641c
    6404:	2e400613          	li	a2,740
    6408:	00008597          	auipc	a1,0x8
    640c:	5c058593          	addi	a1,a1,1472 # 0xe9c8
    6410:	00008517          	auipc	a0,0x8
    6414:	93850513          	addi	a0,a0,-1736 # 0xdd48
    6418:	b7dfc0ef          	jal	ra,0x2f94
    641c:	03044703          	lbu	a4,48(s0)
    6420:	00100793          	li	a5,1
    6424:	0ce7e663          	bltu	a5,a4,0x64f0
    6428:	02e45783          	lhu	a5,46(s0)
    642c:	08043703          	0x8043703
    6430:	1007f693          	andi	a3,a5,256
    6434:	00873703          	0x873703
    6438:	0c068863          	beqz	a3,0x6508
    643c:	10000613          	li	a2,256
    6440:	01100593          	li	a1,17
    6444:	00040513          	mv	a0,s0
    6448:	000700e7          	jalr	a4
    644c:	02e45783          	lhu	a5,46(s0)
    6450:	09043483          	0x9043483
    6454:	2f300613          	li	a2,755
    6458:	eff7f793          	andi	a5,a5,-257
    645c:	02f41723          	sh	a5,46(s0)
    6460:	10048663          	beqz	s1,0x656c
    6464:	00048513          	mv	a0,s1
    6468:	ff1fa0ef          	jal	ra,0x1458
    646c:	08043823          	0x8043823
    6470:	02e45783          	lhu	a5,46(s0)
    6474:	08043703          	0x8043703
    6478:	4007f693          	andi	a3,a5,1024
    647c:	00873703          	0x873703
    6480:	10068063          	beqz	a3,0x6580
    6484:	40000613          	li	a2,1024
    6488:	01100593          	li	a1,17
    648c:	00040513          	mv	a0,s0
    6490:	000700e7          	jalr	a4
    6494:	02e45783          	lhu	a5,46(s0)
    6498:	09843483          	0x9843483
    649c:	bff7f793          	andi	a5,a5,-1025
    64a0:	02f41723          	sh	a5,46(s0)
    64a4:	00049e63          	bnez	s1,0x64c0
    64a8:	31f00613          	li	a2,799
    64ac:	00008597          	auipc	a1,0x8
    64b0:	51c58593          	addi	a1,a1,1308 # 0xe9c8
    64b4:	00008517          	auipc	a0,0x8
    64b8:	3c450513          	addi	a0,a0,964 # 0xe878
    64bc:	ad9fc0ef          	jal	ra,0x2f94
    64c0:	00048513          	mv	a0,s1
    64c4:	f95fa0ef          	jal	ra,0x1458
    64c8:	08043c23          	0x8043c23
    64cc:	08043783          	0x8043783
    64d0:	00000613          	li	a2,0
    64d4:	00400593          	li	a1,4
    64d8:	0087b783          	0x87b783
    64dc:	00040513          	mv	a0,s0
    64e0:	000780e7          	jalr	a5
    64e4:	02c45783          	lhu	a5,44(s0)
    64e8:	fef7f793          	andi	a5,a5,-17
    64ec:	02f41623          	sh	a5,44(s0)
    64f0:	01813083          	0x1813083
    64f4:	01013403          	0x1013403
    64f8:	00813483          	0x813483
    64fc:	00000513          	li	a0,0
    6500:	02010113          	addi	sp,sp,32
    6504:	00008067          	ret
    6508:	2007f793          	andi	a5,a5,512
    650c:	f60782e3          	beqz	a5,0x6470
    6510:	20000613          	li	a2,512
    6514:	01100593          	li	a1,17
    6518:	00040513          	mv	a0,s0
    651c:	000700e7          	jalr	a4
    6520:	02e45783          	lhu	a5,46(s0)
    6524:	08c42703          	lw	a4,140(s0)
    6528:	09043483          	0x9043483
    652c:	dff7f793          	andi	a5,a5,-513
    6530:	02f41723          	sh	a5,46(s0)
    6534:	040007b7          	lui	a5,0x4000
    6538:	c0078793          	addi	a5,a5,-1024 # 0x3fffc00
    653c:	00e7f7b3          	and	a5,a5,a4
    6540:	02079263          	bnez	a5,0x6564
    6544:	f20490e3          	bnez	s1,0x6464
    6548:	30500613          	li	a2,773
    654c:	00008597          	auipc	a1,0x8
    6550:	47c58593          	addi	a1,a1,1148 # 0xe9c8
    6554:	00008517          	auipc	a0,0x8
    6558:	30c50513          	addi	a0,a0,780 # 0xe860
    655c:	a39fc0ef          	jal	ra,0x2f94
    6560:	f05ff06f          	j	0x6464
    6564:	f00490e3          	bnez	s1,0x6464
    6568:	30e00613          	li	a2,782
    656c:	00008597          	auipc	a1,0x8
    6570:	45c58593          	addi	a1,a1,1116 # 0xe9c8
    6574:	00008517          	auipc	a0,0x8
    6578:	2d450513          	addi	a0,a0,724 # 0xe848
    657c:	fe1ff06f          	j	0x655c
    6580:	00001637          	lui	a2,0x1
    6584:	80060613          	addi	a2,a2,-2048 # 0x800
    6588:	00c7f7b3          	and	a5,a5,a2
    658c:	f40780e3          	beqz	a5,0x64cc
    6590:	01100593          	li	a1,17
    6594:	00040513          	mv	a0,s0
    6598:	000700e7          	jalr	a4
    659c:	02e45783          	lhu	a5,46(s0)
    65a0:	fffff737          	lui	a4,0xfffff
    65a4:	7ff70713          	addi	a4,a4,2047 # 0xfffffffffffff7ff
    65a8:	09843483          	0x9843483
    65ac:	00e7f7b3          	and	a5,a5,a4
    65b0:	02f41723          	sh	a5,46(s0)
    65b4:	00049e63          	bnez	s1,0x65d0
    65b8:	33000613          	li	a2,816
    65bc:	00008597          	auipc	a1,0x8
    65c0:	40c58593          	addi	a1,a1,1036 # 0xe9c8
    65c4:	00008517          	auipc	a0,0x8
    65c8:	2cc50513          	addi	a0,a0,716 # 0xe890
    65cc:	9c9fc0ef          	jal	ra,0x2f94
    65d0:	00848513          	addi	a0,s1,8
    65d4:	700000ef          	jal	ra,0x6cd4
    65d8:	ee9ff06f          	j	0x64c0
    65dc:	fd010113          	addi	sp,sp,-48
    65e0:	02813023          	0x2813023
    65e4:	00913c23          	0x913c23
    65e8:	01213823          	0x1213823
    65ec:	01313423          	0x1313423
    65f0:	02113423          	0x2113423
    65f4:	00050413          	mv	s0,a0
    65f8:	00058493          	mv	s1,a1
    65fc:	00060913          	mv	s2,a2
    6600:	00068993          	mv	s3,a3
    6604:	00051e63          	bnez	a0,0x6620
    6608:	49b00613          	li	a2,1179
    660c:	00008597          	auipc	a1,0x8
    6610:	40458593          	addi	a1,a1,1028 # 0xea10
    6614:	00007517          	auipc	a0,0x7
    6618:	a3c50513          	addi	a0,a0,-1476 # 0xd050
    661c:	979fc0ef          	jal	ra,0x2f94
    6620:	fffff797          	auipc	a5,0xfffff
    6624:	37478793          	addi	a5,a5,884 # 0x5994
    6628:	04f43423          	0x4f43423
    662c:	fffff797          	auipc	a5,0xfffff
    6630:	3d478793          	addi	a5,a5,980 # 0x5a00
    6634:	04f43823          	0x4f43823
    6638:	00000797          	auipc	a5,0x0
    663c:	db478793          	addi	a5,a5,-588 # 0x63ec
    6640:	04f43c23          	0x4f43c23
    6644:	00000797          	auipc	a5,0x0
    6648:	a2478793          	addi	a5,a5,-1500 # 0x6068
    664c:	06f43023          	0x6f43023
    6650:	00000797          	auipc	a5,0x0
    6654:	83878793          	addi	a5,a5,-1992 # 0x5e88
    6658:	06f43423          	0x6f43423
    665c:	fffff797          	auipc	a5,0xfffff
    6660:	71878793          	addi	a5,a5,1816 # 0x5d74
    6664:	07343c23          	0x7343c23
    6668:	02042423          	sw	zero,40(s0)
    666c:	02043c23          	0x2043c23
    6670:	04043023          	0x4043023
    6674:	06f43823          	0x6f43823
    6678:	00040513          	mv	a0,s0
    667c:	02013403          	0x2013403
    6680:	02813083          	0x2813083
    6684:	00813983          	0x813983
    6688:	03091613          	slli	a2,s2,0x30
    668c:	00048593          	mv	a1,s1
    6690:	01013903          	0x1013903
    6694:	01813483          	0x1813483
    6698:	03065613          	srli	a2,a2,0x30
    669c:	03010113          	addi	sp,sp,48
    66a0:	ae5fd06f          	j	0x4184
    66a4:	ff010113          	addi	sp,sp,-16
    66a8:	00813023          	0x813023
    66ac:	00113423          	0x113423
    66b0:	00050413          	mv	s0,a0
    66b4:	00051e63          	bnez	a0,0x66d0
    66b8:	01500613          	li	a2,21
    66bc:	00008597          	auipc	a1,0x8
    66c0:	3b458593          	addi	a1,a1,948 # 0xea70
    66c4:	00008517          	auipc	a0,0x8
    66c8:	36450513          	addi	a0,a0,868 # 0xea28
    66cc:	8c9fc0ef          	jal	ra,0x2f94
    66d0:	981f90ef          	jal	ra,0x50
    66d4:	00840793          	addi	a5,s0,8
    66d8:	00042023          	sw	zero,0(s0)
    66dc:	00f43823          	0xf43823
    66e0:	00f43423          	0xf43423
    66e4:	00013403          	0x13403
    66e8:	00813083          	0x813083
    66ec:	01010113          	addi	sp,sp,16
    66f0:	969f906f          	j	0x58
    66f4:	fc010113          	addi	sp,sp,-64
    66f8:	02813823          	0x2813823
    66fc:	02113c23          	0x2113c23
    6700:	02913423          	0x2913423
    6704:	03213023          	0x3213023
    6708:	01313c23          	0x1313c23
    670c:	01413823          	0x1413823
    6710:	00b12623          	sw	a1,12(sp)
    6714:	00050413          	mv	s0,a0
    6718:	00051e63          	bnez	a0,0x6734
    671c:	02400613          	li	a2,36
    6720:	00008597          	auipc	a1,0x8
    6724:	36858593          	addi	a1,a1,872 # 0xea88
    6728:	00008517          	auipc	a0,0x8
    672c:	30050513          	addi	a0,a0,768 # 0xea28
    6730:	865fc0ef          	jal	ra,0x2f94
    6734:	c35fc0ef          	jal	ra,0x3368
    6738:	00050493          	mv	s1,a0
    673c:	915f90ef          	jal	ra,0x50
    6740:	00042703          	lw	a4,0(s0)
    6744:	00100793          	li	a5,1
    6748:	00050913          	mv	s2,a0
    674c:	10f70463          	beq	a4,a5,0x6854
    6750:	00843783          	0x843783
    6754:	00840a13          	addi	s4,s0,8
    6758:	00fa0e63          	beq	s4,a5,0x6774
    675c:	02d00613          	li	a2,45
    6760:	00008597          	auipc	a1,0x8
    6764:	32858593          	addi	a1,a1,808 # 0xea88
    6768:	00008517          	auipc	a0,0x8
    676c:	2d850513          	addi	a0,a0,728 # 0xea40
    6770:	825fc0ef          	jal	ra,0x2f94
    6774:	00c12783          	lw	a5,12(sp)
    6778:	ffe00993          	li	s3,-2
    677c:	0a078663          	beqz	a5,0x6828
    6780:	0604b023          	0x604b023
    6784:	00048513          	mv	a0,s1
    6788:	e79fc0ef          	jal	ra,0x3600
    678c:	01043703          	0x1043703
    6790:	02848793          	addi	a5,s1,40
    6794:	00f73023          	0xf73023
    6798:	02e4b823          	0x2e4b823
    679c:	00f43823          	0xf43823
    67a0:	0344b423          	0x344b423
    67a4:	8adf90ef          	jal	ra,0x50
    67a8:	00050993          	mv	s3,a0
    67ac:	92cfe0ef          	jal	ra,0x48d8
    67b0:	02050863          	beqz	a0,0x67e0
    67b4:	00008597          	auipc	a1,0x8
    67b8:	2d458593          	addi	a1,a1,724 # 0xea88
    67bc:	00007517          	auipc	a0,0x7
    67c0:	b3c50513          	addi	a0,a0,-1220 # 0xd2f8
    67c4:	e44fc0ef          	jal	ra,0x2e08
    67c8:	04000613          	li	a2,64
    67cc:	00008597          	auipc	a1,0x8
    67d0:	2bc58593          	addi	a1,a1,700 # 0xea88
    67d4:	00007517          	auipc	a0,0x7
    67d8:	b4c50513          	addi	a0,a0,-1204 # 0xd320
    67dc:	fb8fc0ef          	jal	ra,0x2f94
    67e0:	00098513          	mv	a0,s3
    67e4:	875f90ef          	jal	ra,0x58
    67e8:	00c12783          	lw	a5,12(sp)
    67ec:	02f05063          	blez	a5,0x680c
    67f0:	08848993          	addi	s3,s1,136
    67f4:	00c10613          	addi	a2,sp,12
    67f8:	00000593          	li	a1,0
    67fc:	00098513          	mv	a0,s3
    6800:	c40fb0ef          	jal	ra,0x1c40
    6804:	00098513          	mv	a0,s3
    6808:	9e8fb0ef          	jal	ra,0x19f0
    680c:	00090513          	mv	a0,s2
    6810:	849f90ef          	jal	ra,0x58
    6814:	81cfa0ef          	jal	ra,0x830
    6818:	0604b983          	0x604b983
    681c:	835f90ef          	jal	ra,0x50
    6820:	00050913          	mv	s2,a0
    6824:	00042023          	sw	zero,0(s0)
    6828:	00090513          	mv	a0,s2
    682c:	82df90ef          	jal	ra,0x58
    6830:	03813083          	0x3813083
    6834:	03013403          	0x3013403
    6838:	02813483          	0x2813483
    683c:	02013903          	0x2013903
    6840:	01013a03          	0x1013a03
    6844:	00098513          	mv	a0,s3
    6848:	01813983          	0x1813983
    684c:	04010113          	addi	sp,sp,64
    6850:	00008067          	ret
    6854:	00000993          	li	s3,0
    6858:	fcdff06f          	j	0x6824
    685c:	fd010113          	addi	sp,sp,-48
    6860:	02813023          	0x2813023
    6864:	00913c23          	0x913c23
    6868:	01213823          	0x1213823
    686c:	01313423          	0x1313423
    6870:	02113423          	0x2113423
    6874:	00050413          	mv	s0,a0
    6878:	00058493          	mv	s1,a1
    687c:	00060913          	mv	s2,a2
    6880:	00068993          	mv	s3,a3
    6884:	00051e63          	bnez	a0,0x68a0
    6888:	01e00613          	li	a2,30
    688c:	00008597          	auipc	a1,0x8
    6890:	25c58593          	addi	a1,a1,604 # 0xeae8
    6894:	00008517          	auipc	a0,0x8
    6898:	20c50513          	addi	a0,a0,524 # 0xeaa0
    689c:	ef8fc0ef          	jal	ra,0x2f94
    68a0:	00049e63          	bnez	s1,0x68bc
    68a4:	01f00613          	li	a2,31
    68a8:	00008597          	auipc	a1,0x8
    68ac:	24058593          	addi	a1,a1,576 # 0xeae8
    68b0:	00008517          	auipc	a0,0x8
    68b4:	20850513          	addi	a0,a0,520 # 0xeab8
    68b8:	edcfc0ef          	jal	ra,0x2f94
    68bc:	bead17b7          	lui	a5,0xbead1
    68c0:	e0e7879b          	0xe0e7879b
    68c4:	00f42023          	sw	a5,0(s0)
    68c8:	000087b7          	lui	a5,0x8
    68cc:	00f42423          	sw	a5,8(s0)
    68d0:	01840793          	addi	a5,s0,24
    68d4:	02f43023          	0x2f43023
    68d8:	00f43c23          	0xf43c23
    68dc:	02840793          	addi	a5,s0,40
    68e0:	02f43823          	0x2f43823
    68e4:	02f43423          	0x2f43423
    68e8:	03343c23          	0x3343c23
    68ec:	00941223          	sh	s1,4(s0)
    68f0:	01241323          	sh	s2,6(s0)
    68f4:	00449513          	slli	a0,s1,0x4
    68f8:	811fa0ef          	jal	ra,0x1108
    68fc:	00050793          	mv	a5,a0
    6900:	00a43823          	0xa43823
    6904:	00000513          	li	a0,0
    6908:	00079463          	bnez	a5,0x6910
    690c:	ffb00513          	li	a0,-5
    6910:	02813083          	0x2813083
    6914:	02013403          	0x2013403
    6918:	01813483          	0x1813483
    691c:	01013903          	0x1013903
    6920:	00813983          	0x813983
    6924:	03010113          	addi	sp,sp,48
    6928:	00008067          	ret
    692c:	f8010113          	addi	sp,sp,-128
    6930:	06813823          	0x6813823
    6934:	05413823          	0x5413823
    6938:	05513423          	0x5513423
    693c:	06113c23          	0x6113c23
    6940:	06913423          	0x6913423
    6944:	07213023          	0x7213023
    6948:	05313c23          	0x5313c23
    694c:	05613023          	0x5613023
    6950:	03713c23          	0x3713c23
    6954:	03813823          	0x3813823
    6958:	03913423          	0x3913423
    695c:	03a13023          	0x3a13023
    6960:	01b13c23          	0x1b13c23
    6964:	00d12623          	sw	a3,12(sp)
    6968:	00050413          	mv	s0,a0
    696c:	00058a93          	mv	s5,a1
    6970:	00060a13          	mv	s4,a2
    6974:	00051e63          	bnez	a0,0x6990
    6978:	04200613          	li	a2,66
    697c:	00008597          	auipc	a1,0x8
    6980:	18458593          	addi	a1,a1,388 # 0xeb00
    6984:	00008517          	auipc	a0,0x8
    6988:	11c50513          	addi	a0,a0,284 # 0xeaa0
    698c:	e08fc0ef          	jal	ra,0x2f94
    6990:	00042703          	lw	a4,0(s0)
    6994:	bead17b7          	lui	a5,0xbead1
    6998:	e0e78793          	addi	a5,a5,-498 # 0xffffffffbead0e0e
    699c:	00f70e63          	beq	a4,a5,0x69b8
    69a0:	04300613          	li	a2,67
    69a4:	00008597          	auipc	a1,0x8
    69a8:	15c58593          	addi	a1,a1,348 # 0xeb00
    69ac:	00008517          	auipc	a0,0x8
    69b0:	11c50513          	addi	a0,a0,284 # 0xeac8
    69b4:	de0fc0ef          	jal	ra,0x2f94
    69b8:	9b1fc0ef          	jal	ra,0x3368
    69bc:	00050913          	mv	s2,a0
    69c0:	e90f90ef          	jal	ra,0x50
    69c4:	00050493          	mv	s1,a0
    69c8:	00008b17          	auipc	s6,0x8
    69cc:	138b0b13          	addi	s6,s6,312 # 0xeb00
    69d0:	00007c97          	auipc	s9,0x7
    69d4:	928c8c93          	addi	s9,s9,-1752 # 0xd2f8
    69d8:	00007d17          	auipc	s10,0x7
    69dc:	948d0d13          	addi	s10,s10,-1720 # 0xd320
    69e0:	02890b93          	addi	s7,s2,40
    69e4:	01840d93          	addi	s11,s0,24
    69e8:	08890c13          	addi	s8,s2,136
    69ec:	00842783          	lw	a5,8(s0)
    69f0:	1207c263          	bltz	a5,0x6b14
    69f4:	00843783          	0x843783
    69f8:	00008737          	lui	a4,0x8
    69fc:	fff70713          	addi	a4,a4,-1 # 0x7fff
    6a00:	0107d793          	srli	a5,a5,0x10
    6a04:	00e7f7b3          	and	a5,a5,a4
    6a08:	01043683          	0x1043683
    6a0c:	03079793          	slli	a5,a5,0x30
    6a10:	0307d793          	srli	a5,a5,0x30
    6a14:	00479613          	slli	a2,a5,0x4
    6a18:	00c686b3          	add	a3,a3,a2
    6a1c:	0017879b          	0x17879b
    6a20:	0156b023          	0x156b023
    6a24:	0146b423          	0x146b423
    6a28:	00e7f7b3          	and	a5,a5,a4
    6a2c:	00842683          	lw	a3,8(s0)
    6a30:	03079793          	slli	a5,a5,0x30
    6a34:	0307d793          	srli	a5,a5,0x30
    6a38:	80010637          	lui	a2,0x80010
    6a3c:	00e7f733          	and	a4,a5,a4
    6a40:	fff60613          	addi	a2,a2,-1 # 0xffffffff8000ffff
    6a44:	00c6f6b3          	and	a3,a3,a2
    6a48:	0107171b          	0x107171b
    6a4c:	00e6e733          	or	a4,a3,a4
    6a50:	00445683          	lhu	a3,4(s0)
    6a54:	00e42423          	sw	a4,8(s0)
    6a58:	00f69663          	bne	a3,a5,0x6a64
    6a5c:	00c77733          	and	a4,a4,a2
    6a60:	00e42423          	sw	a4,8(s0)
    6a64:	00842783          	lw	a5,8(s0)
    6a68:	ffff8737          	lui	a4,0xffff8
    6a6c:	fff70713          	addi	a4,a4,-1 # 0xffffffffffff7fff
    6a70:	00e7f7b3          	and	a5,a5,a4
    6a74:	00f42423          	sw	a5,8(s0)
    6a78:	00843703          	0x843703
    6a7c:	00008637          	lui	a2,0x8
    6a80:	fff60613          	addi	a2,a2,-1 # 0x7fff
    6a84:	01075693          	srli	a3,a4,0x10
    6a88:	00c6f6b3          	and	a3,a3,a2
    6a8c:	00c77733          	and	a4,a4,a2
    6a90:	03069693          	slli	a3,a3,0x30
    6a94:	03071713          	slli	a4,a4,0x30
    6a98:	0306d693          	srli	a3,a3,0x30
    6a9c:	03075713          	srli	a4,a4,0x30
    6aa0:	00e69863          	bne	a3,a4,0x6ab0
    6aa4:	80000737          	lui	a4,0x80000
    6aa8:	00e7e7b3          	or	a5,a5,a4
    6aac:	00f42423          	sw	a5,8(s0)
    6ab0:	02843503          	0x2843503
    6ab4:	02840793          	addi	a5,s0,40
    6ab8:	00000993          	li	s3,0
    6abc:	0ef50863          	beq	a0,a5,0x6bac
    6ac0:	fd850513          	addi	a0,a0,-40
    6ac4:	d29fc0ef          	jal	ra,0x37ec
    6ac8:	00048513          	mv	a0,s1
    6acc:	d8cf90ef          	jal	ra,0x58
    6ad0:	d61f90ef          	jal	ra,0x830
    6ad4:	07813083          	0x7813083
    6ad8:	07013403          	0x7013403
    6adc:	06813483          	0x6813483
    6ae0:	06013903          	0x6013903
    6ae4:	05013a03          	0x5013a03
    6ae8:	04813a83          	0x4813a83
    6aec:	04013b03          	0x4013b03
    6af0:	03813b83          	0x3813b83
    6af4:	03013c03          	0x3013c03
    6af8:	02813c83          	0x2813c83
    6afc:	02013d03          	0x2013d03
    6b00:	01813d83          	0x1813d83
    6b04:	00098513          	mv	a0,s3
    6b08:	05813983          	0x5813983
    6b0c:	08010113          	addi	sp,sp,128
    6b10:	00008067          	ret
    6b14:	00c12783          	lw	a5,12(sp)
    6b18:	0a078c63          	beqz	a5,0x6bd0
    6b1c:	d34f90ef          	jal	ra,0x50
    6b20:	00050993          	mv	s3,a0
    6b24:	db5fd0ef          	jal	ra,0x48d8
    6b28:	02050063          	beqz	a0,0x6b48
    6b2c:	000b0593          	mv	a1,s6
    6b30:	000c8513          	mv	a0,s9
    6b34:	ad4fc0ef          	jal	ra,0x2e08
    6b38:	05400613          	li	a2,84
    6b3c:	000b0593          	mv	a1,s6
    6b40:	000d0513          	mv	a0,s10
    6b44:	c50fc0ef          	jal	ra,0x2f94
    6b48:	00098513          	mv	a0,s3
    6b4c:	d0cf90ef          	jal	ra,0x58
    6b50:	00090513          	mv	a0,s2
    6b54:	06093023          	0x6093023
    6b58:	aa9fc0ef          	jal	ra,0x3600
    6b5c:	02043783          	0x2043783
    6b60:	0177b023          	0x177b023
    6b64:	02f93823          	0x2f93823
    6b68:	00c12783          	lw	a5,12(sp)
    6b6c:	03743023          	0x3743023
    6b70:	03b93423          	0x3b93423
    6b74:	00f05e63          	blez	a5,0x6b90
    6b78:	00c10613          	addi	a2,sp,12
    6b7c:	00000593          	li	a1,0
    6b80:	000c0513          	mv	a0,s8
    6b84:	8bcfb0ef          	jal	ra,0x1c40
    6b88:	000c0513          	mv	a0,s8
    6b8c:	e65fa0ef          	jal	ra,0x19f0
    6b90:	00048513          	mv	a0,s1
    6b94:	cc4f90ef          	jal	ra,0x58
    6b98:	c99f90ef          	jal	ra,0x830
    6b9c:	06093983          	0x6093983
    6ba0:	cb0f90ef          	jal	ra,0x50
    6ba4:	00050493          	mv	s1,a0
    6ba8:	e40982e3          	beqz	s3,0x69ec
    6bac:	00048513          	mv	a0,s1
    6bb0:	ca8f90ef          	jal	ra,0x58
    6bb4:	f20990e3          	bnez	s3,0x6ad4
    6bb8:	03843783          	0x3843783
    6bbc:	f0078ce3          	beqz	a5,0x6ad4
    6bc0:	00200593          	li	a1,2
    6bc4:	00040513          	mv	a0,s0
    6bc8:	000780e7          	jalr	a5
    6bcc:	f09ff06f          	j	0x6ad4
    6bd0:	ffe00993          	li	s3,-2
    6bd4:	fd9ff06f          	j	0x6bac
    6bd8:	fd010113          	addi	sp,sp,-48
    6bdc:	02813023          	0x2813023
    6be0:	02113423          	0x2113423
    6be4:	00913c23          	0x913c23
    6be8:	01213823          	0x1213823
    6bec:	01313423          	0x1313423
    6bf0:	00050413          	mv	s0,a0
    6bf4:	00051e63          	bnez	a0,0x6c10
    6bf8:	12900613          	li	a2,297
    6bfc:	00008597          	auipc	a1,0x8
    6c00:	f1c58593          	addi	a1,a1,-228 # 0xeb18
    6c04:	00008517          	auipc	a0,0x8
    6c08:	e9c50513          	addi	a0,a0,-356 # 0xeaa0
    6c0c:	b88fc0ef          	jal	ra,0x2f94
    6c10:	00042703          	lw	a4,0(s0)
    6c14:	bead17b7          	lui	a5,0xbead1
    6c18:	e0e78793          	addi	a5,a5,-498 # 0xffffffffbead0e0e
    6c1c:	00f70e63          	beq	a4,a5,0x6c38
    6c20:	12a00613          	li	a2,298
    6c24:	00008597          	auipc	a1,0x8
    6c28:	ef458593          	addi	a1,a1,-268 # 0xeb18
    6c2c:	00008517          	auipc	a0,0x8
    6c30:	e9c50513          	addi	a0,a0,-356 # 0xeac8
    6c34:	b60fc0ef          	jal	ra,0x2f94
    6c38:	c18f90ef          	jal	ra,0x50
    6c3c:	000087b7          	lui	a5,0x8
    6c40:	00f42423          	sw	a5,8(s0)
    6c44:	c14f90ef          	jal	ra,0x58
    6c48:	02840913          	addi	s2,s0,40
    6c4c:	d65f90ef          	jal	ra,0x9b0
    6c50:	fff00993          	li	s3,-1
    6c54:	02843783          	0x2843783
    6c58:	03279a63          	bne	a5,s2,0x6c8c
    6c5c:	01840913          	addi	s2,s0,24
    6c60:	fff00993          	li	s3,-1
    6c64:	01843783          	0x1843783
    6c68:	05279463          	bne	a5,s2,0x6cb0
    6c6c:	d71f90ef          	jal	ra,0x9dc
    6c70:	02013403          	0x2013403
    6c74:	02813083          	0x2813083
    6c78:	01813483          	0x1813483
    6c7c:	01013903          	0x1013903
    6c80:	00813983          	0x813983
    6c84:	03010113          	addi	sp,sp,48
    6c88:	ba9f906f          	j	0x830
    6c8c:	bc4f90ef          	jal	ra,0x50
    6c90:	00050493          	mv	s1,a0
    6c94:	02843503          	0x2843503
    6c98:	03353c23          	0x3353c23
    6c9c:	fd850513          	addi	a0,a0,-40
    6ca0:	b4dfc0ef          	jal	ra,0x37ec
    6ca4:	00048513          	mv	a0,s1
    6ca8:	bb0f90ef          	jal	ra,0x58
    6cac:	fa9ff06f          	j	0x6c54
    6cb0:	ba0f90ef          	jal	ra,0x50
    6cb4:	00050493          	mv	s1,a0
    6cb8:	01843503          	0x1843503
    6cbc:	03353c23          	0x3353c23
    6cc0:	fd850513          	addi	a0,a0,-40
    6cc4:	b29fc0ef          	jal	ra,0x37ec
    6cc8:	00048513          	mv	a0,s1
    6ccc:	b8cf90ef          	jal	ra,0x58
    6cd0:	f95ff06f          	j	0x6c64
    6cd4:	ff010113          	addi	sp,sp,-16
    6cd8:	00813023          	0x813023
    6cdc:	00113423          	0x113423
    6ce0:	00050413          	mv	s0,a0
    6ce4:	00051e63          	bnez	a0,0x6d00
    6ce8:	17100613          	li	a2,369
    6cec:	00008597          	auipc	a1,0x8
    6cf0:	e4458593          	addi	a1,a1,-444 # 0xeb30
    6cf4:	00008517          	auipc	a0,0x8
    6cf8:	dac50513          	addi	a0,a0,-596 # 0xeaa0
    6cfc:	a98fc0ef          	jal	ra,0x2f94
    6d00:	00042703          	lw	a4,0(s0)
    6d04:	bead17b7          	lui	a5,0xbead1
    6d08:	e0e78793          	addi	a5,a5,-498 # 0xffffffffbead0e0e
    6d0c:	00f70e63          	beq	a4,a5,0x6d28
    6d10:	17200613          	li	a2,370
    6d14:	00008597          	auipc	a1,0x8
    6d18:	e1c58593          	addi	a1,a1,-484 # 0xeb30
    6d1c:	00008517          	auipc	a0,0x8
    6d20:	dac50513          	addi	a0,a0,-596 # 0xeac8
    6d24:	a70fc0ef          	jal	ra,0x2f94
    6d28:	00040513          	mv	a0,s0
    6d2c:	eadff0ef          	jal	ra,0x6bd8
    6d30:	b20f90ef          	jal	ra,0x50
    6d34:	00042023          	sw	zero,0(s0)
    6d38:	b20f90ef          	jal	ra,0x58
    6d3c:	01043503          	0x1043503
    6d40:	f18fa0ef          	jal	ra,0x1458
    6d44:	00813083          	0x813083
    6d48:	00013403          	0x13403
    6d4c:	00000513          	li	a0,0
    6d50:	01010113          	addi	sp,sp,16
    6d54:	00008067          	ret
    6d58:	0001b797          	auipc	a5,0x1b
    6d5c:	3b078793          	addi	a5,a5,944 # 0x22108
    6d60:	0807b703          	0x807b703
    6d64:	fe010113          	addi	sp,sp,-32
    6d68:	00813823          	0x813823
    6d6c:	00913423          	0x913423
    6d70:	01213023          	0x1213023
    6d74:	00113c23          	0x113c23
    6d78:	00050493          	mv	s1,a0
    6d7c:	00058913          	mv	s2,a1
    6d80:	00078413          	mv	s0,a5
    6d84:	00071e63          	bnez	a4,0x6da0
    6d88:	08a00613          	li	a2,138
    6d8c:	00008597          	auipc	a1,0x8
    6d90:	de458593          	addi	a1,a1,-540 # 0xeb70
    6d94:	00008517          	auipc	a0,0x8
    6d98:	db450513          	addi	a0,a0,-588 # 0xeb48
    6d9c:	9f8fc0ef          	jal	ra,0x2f94
    6da0:	08043783          	0x8043783
    6da4:	01013403          	0x1013403
    6da8:	01813083          	0x1813083
    6dac:	0007b303          	0x7b303
    6db0:	00090613          	mv	a2,s2
    6db4:	00048593          	mv	a1,s1
    6db8:	00013903          	0x13903
    6dbc:	00813483          	0x813483
    6dc0:	0001b517          	auipc	a0,0x1b
    6dc4:	34850513          	addi	a0,a0,840 # 0x22108
    6dc8:	02010113          	addi	sp,sp,32
    6dcc:	00030067          	jr	t1
    6dd0:	0001b797          	auipc	a5,0x1b
    6dd4:	33878793          	addi	a5,a5,824 # 0x22108
    6dd8:	0807b703          	0x807b703
    6ddc:	fe010113          	addi	sp,sp,-32
    6de0:	00813823          	0x813823
    6de4:	00913423          	0x913423
    6de8:	01213023          	0x1213023
    6dec:	00113c23          	0x113c23
    6df0:	00050493          	mv	s1,a0
    6df4:	00058913          	mv	s2,a1
    6df8:	00078413          	mv	s0,a5
    6dfc:	00071e63          	bnez	a4,0x6e18
    6e00:	09100613          	li	a2,145
    6e04:	00008597          	auipc	a1,0x8
    6e08:	d7c58593          	addi	a1,a1,-644 # 0xeb80
    6e0c:	00008517          	auipc	a0,0x8
    6e10:	d3c50513          	addi	a0,a0,-708 # 0xeb48
    6e14:	980fc0ef          	jal	ra,0x2f94
    6e18:	08043783          	0x8043783
    6e1c:	01013403          	0x1013403
    6e20:	01813083          	0x1813083
    6e24:	0087b303          	0x87b303
    6e28:	00090613          	mv	a2,s2
    6e2c:	00048593          	mv	a1,s1
    6e30:	00013903          	0x13903
    6e34:	00813483          	0x813483
    6e38:	0001b517          	auipc	a0,0x1b
    6e3c:	2d050513          	addi	a0,a0,720 # 0x22108
    6e40:	02010113          	addi	sp,sp,32
    6e44:	00030067          	jr	t1
    6e48:	0001b797          	auipc	a5,0x1b
    6e4c:	2c078793          	addi	a5,a5,704 # 0x22108
    6e50:	0807b703          	0x807b703
    6e54:	fe010113          	addi	sp,sp,-32
    6e58:	00813823          	0x813823
    6e5c:	00913423          	0x913423
    6e60:	00113c23          	0x113c23
    6e64:	00050493          	mv	s1,a0
    6e68:	00078413          	mv	s0,a5
    6e6c:	00071e63          	bnez	a4,0x6e88
    6e70:	09800613          	li	a2,152
    6e74:	00008597          	auipc	a1,0x8
    6e78:	d1c58593          	addi	a1,a1,-740 # 0xeb90
    6e7c:	00008517          	auipc	a0,0x8
    6e80:	ccc50513          	addi	a0,a0,-820 # 0xeb48
    6e84:	910fc0ef          	jal	ra,0x2f94
    6e88:	08043783          	0x8043783
    6e8c:	01013403          	0x1013403
    6e90:	01813083          	0x1813083
    6e94:	0107b303          	0x107b303
    6e98:	00048593          	mv	a1,s1
    6e9c:	00813483          	0x813483
    6ea0:	0001b517          	auipc	a0,0x1b
    6ea4:	26850513          	addi	a0,a0,616 # 0x22108
    6ea8:	02010113          	addi	sp,sp,32
    6eac:	00030067          	jr	t1
    6eb0:	0001b797          	auipc	a5,0x1b
    6eb4:	25878793          	addi	a5,a5,600 # 0x22108
    6eb8:	0807b703          	0x807b703
    6ebc:	fe010113          	addi	sp,sp,-32
    6ec0:	00813823          	0x813823
    6ec4:	00913423          	0x913423
    6ec8:	00113c23          	0x113c23
    6ecc:	00050413          	mv	s0,a0
    6ed0:	00078493          	mv	s1,a5
    6ed4:	00071e63          	bnez	a4,0x6ef0
    6ed8:	09f00613          	li	a2,159
    6edc:	00008597          	auipc	a1,0x8
    6ee0:	cc458593          	addi	a1,a1,-828 # 0xeba0
    6ee4:	00008517          	auipc	a0,0x8
    6ee8:	c6450513          	addi	a0,a0,-924 # 0xeb48
    6eec:	8a8fc0ef          	jal	ra,0x2f94
    6ef0:	00044703          	lbu	a4,0(s0)
    6ef4:	05000793          	li	a5,80
    6ef8:	00f70e63          	beq	a4,a5,0x6f14
    6efc:	0a000613          	li	a2,160
    6f00:	00008597          	auipc	a1,0x8
    6f04:	ca058593          	addi	a1,a1,-864 # 0xeba0
    6f08:	00008517          	auipc	a0,0x8
    6f0c:	c5850513          	addi	a0,a0,-936 # 0xeb60
    6f10:	884fc0ef          	jal	ra,0x2f94
    6f14:	0804b783          	0x804b783
    6f18:	0307b303          	0x307b303
    6f1c:	00030e63          	beqz	t1,0x6f38
    6f20:	00040513          	mv	a0,s0
    6f24:	01013403          	0x1013403
    6f28:	01813083          	0x1813083
    6f2c:	00813483          	0x813483
    6f30:	02010113          	addi	sp,sp,32
    6f34:	00030067          	jr	t1
    6f38:	01813083          	0x1813083
    6f3c:	01013403          	0x1013403
    6f40:	00813483          	0x813483
    6f44:	ffa00513          	li	a0,-6
    6f48:	02010113          	addi	sp,sp,32
    6f4c:	00008067          	ret
    6f50:	fd010113          	addi	sp,sp,-48
    6f54:	00913c23          	0x913c23
    6f58:	02113423          	0x2113423
    6f5c:	02813023          	0x2813023
    6f60:	01213823          	0x1213823
    6f64:	01313423          	0x1313423
    6f68:	fea00493          	li	s1,-22
    6f6c:	02050c63          	beqz	a0,0x6fa4
    6f70:	00050413          	mv	s0,a0
    6f74:	00000513          	li	a0,0
    6f78:	00060993          	mv	s3,a2
    6f7c:	228020ef          	jal	ra,0x91a4
    6f80:	00050913          	mv	s2,a0
    6f84:	ff400493          	li	s1,-12
    6f88:	00050e63          	beqz	a0,0x6fa4
    6f8c:	4dc010ef          	jal	ra,0x8468
    6f90:	00050493          	mv	s1,a0
    6f94:	02051863          	bnez	a0,0x6fc4
    6f98:	00090513          	mv	a0,s2
    6f9c:	cbcfa0ef          	jal	ra,0x1458
    6fa0:	ffe00493          	li	s1,-2
    6fa4:	02813083          	0x2813083
    6fa8:	02013403          	0x2013403
    6fac:	01013903          	0x1013903
    6fb0:	00813983          	0x813983
    6fb4:	00048513          	mv	a0,s1
    6fb8:	01813483          	0x1813483
    6fbc:	03010113          	addi	sp,sp,48
    6fc0:	00008067          	ret
    6fc4:	01053783          	0x1053783
    6fc8:	00a43c23          	0xa43c23
    6fcc:	0107b703          	0x107b703
    6fd0:	0087a783          	lw	a5,8(a5)
    6fd4:	00041123          	sh	zero,2(s0)
    6fd8:	02e43023          	0x2e43023
    6fdc:	03342423          	sw	s3,40(s0)
    6fe0:	02043823          	0x2043823
    6fe4:	02043c23          	0x2043c23
    6fe8:	04a43023          	0x4a43023
    6fec:	0017f793          	andi	a5,a5,1
    6ff0:	04079e63          	bnez	a5,0x704c
    6ff4:	00853503          	0x853503
    6ff8:	00090593          	mv	a1,s2
    6ffc:	14c020ef          	jal	ra,0x9148
    7000:	02051e63          	bnez	a0,0x703c
    7004:	00008517          	auipc	a0,0x8
    7008:	c5450513          	addi	a0,a0,-940 # 0xec58
    700c:	f94fb0ef          	jal	ra,0x27a0
    7010:	00a43423          	0xa43423
    7014:	00090513          	mv	a0,s2
    7018:	c40fa0ef          	jal	ra,0x1458
    701c:	02043783          	0x2043783
    7020:	0007b783          	0x7b783
    7024:	02079863          	bnez	a5,0x7054
    7028:	00843503          	0x843503
    702c:	fda00493          	li	s1,-38
    7030:	c28fa0ef          	jal	ra,0x1458
    7034:	00043423          	0x43423
    7038:	f6dff06f          	j	0x6fa4
    703c:	0084b503          	0x84b503
    7040:	00090593          	mv	a1,s2
    7044:	104020ef          	jal	ra,0x9148
    7048:	fc5ff06f          	j	0x700c
    704c:	01243423          	0x1243423
    7050:	fcdff06f          	j	0x701c
    7054:	00040513          	mv	a0,s0
    7058:	000780e7          	jalr	a5
    705c:	00050493          	mv	s1,a0
    7060:	00055a63          	bgez	a0,0x7074
    7064:	00843503          	0x843503
    7068:	bf0fa0ef          	jal	ra,0x1458
    706c:	00043423          	0x43423
    7070:	f35ff06f          	j	0x6fa4
    7074:	02842783          	lw	a5,40(s0)
    7078:	01000737          	lui	a4,0x1000
    707c:	000104b7          	lui	s1,0x10
    7080:	00e7e733          	or	a4,a5,a4
    7084:	02e42423          	sw	a4,40(s0)
    7088:	0099f4b3          	and	s1,s3,s1
    708c:	f0048ce3          	beqz	s1,0x6fa4
    7090:	00200713          	li	a4,2
    7094:	00e41123          	sh	a4,2(s0)
    7098:	03000737          	lui	a4,0x3000
    709c:	00e7e7b3          	or	a5,a5,a4
    70a0:	02f42423          	sw	a5,40(s0)
    70a4:	00000493          	li	s1,0
    70a8:	efdff06f          	j	0x6fa4
    70ac:	fe010113          	addi	sp,sp,-32
    70b0:	00813823          	0x813823
    70b4:	00113c23          	0x113c23
    70b8:	00913423          	0x913423
    70bc:	ffa00413          	li	s0,-6
    70c0:	02050063          	beqz	a0,0x70e0
    70c4:	02053783          	0x2053783
    70c8:	00050493          	mv	s1,a0
    70cc:	0087b783          	0x87b783
    70d0:	02078463          	beqz	a5,0x70f8
    70d4:	000780e7          	jalr	a5
    70d8:	00050413          	mv	s0,a0
    70dc:	02055063          	bgez	a0,0x70fc
    70e0:	01813083          	0x1813083
    70e4:	00040513          	mv	a0,s0
    70e8:	01013403          	0x1013403
    70ec:	00813483          	0x813483
    70f0:	02010113          	addi	sp,sp,32
    70f4:	00008067          	ret
    70f8:	00000413          	li	s0,0
    70fc:	0084b503          	0x84b503
    7100:	b58fa0ef          	jal	ra,0x1458
    7104:	0004b423          	0x4b423
    7108:	fd9ff06f          	j	0x70e0
    710c:	04050a63          	beqz	a0,0x7160
    7110:	02053783          	0x2053783
    7114:	ff010113          	addi	sp,sp,-16
    7118:	00813023          	0x813023
    711c:	0187b703          	0x187b703
    7120:	00113423          	0x113423
    7124:	00050413          	mv	s0,a0
    7128:	fda00793          	li	a5,-38
    712c:	02070063          	beqz	a4,0x714c
    7130:	000700e7          	jalr	a4 # 0x3000000
    7134:	00050793          	mv	a5,a0
    7138:	00055a63          	bgez	a0,0x714c
    713c:	02842703          	lw	a4,40(s0)
    7140:	040006b7          	lui	a3,0x4000
    7144:	00d76733          	or	a4,a4,a3
    7148:	02e42423          	sw	a4,40(s0)
    714c:	00813083          	0x813083
    7150:	00013403          	0x13403
    7154:	00078513          	mv	a0,a5
    7158:	01010113          	addi	sp,sp,16
    715c:	00008067          	ret
    7160:	fea00793          	li	a5,-22
    7164:	00078513          	mv	a0,a5
    7168:	00008067          	ret
    716c:	f8010113          	addi	sp,sp,-128
    7170:	00050593          	mv	a1,a0
    7174:	00a13423          	0xa13423
    7178:	00000613          	li	a2,0
    717c:	0001b517          	auipc	a0,0x1b
    7180:	11c50513          	addi	a0,a0,284 # 0x22298
    7184:	06813823          	0x6813823
    7188:	06113c23          	0x6113c23
    718c:	dc5ff0ef          	jal	ra,0x6f50
    7190:	00813583          	0x813583
    7194:	00008417          	auipc	s0,0x8
    7198:	adc40413          	addi	s0,s0,-1316 # 0xec70
    719c:	02055063          	bgez	a0,0x71bc
    71a0:	00008517          	auipc	a0,0x8
    71a4:	ac050513          	addi	a0,a0,-1344 # 0xec60
    71a8:	c61fb0ef          	jal	ra,0x2e08
    71ac:	07813083          	0x7813083
    71b0:	07013403          	0x7013403
    71b4:	08010113          	addi	sp,sp,128
    71b8:	00008067          	ret
    71bc:	05100613          	li	a2,81
    71c0:	00000593          	li	a1,0
    71c4:	01810513          	addi	a0,sp,24
    71c8:	c0cf90ef          	jal	ra,0x5d4
    71cc:	05000613          	li	a2,80
    71d0:	01810593          	addi	a1,sp,24
    71d4:	0001b517          	auipc	a0,0x1b
    71d8:	0c450513          	addi	a0,a0,196 # 0x22298
    71dc:	f31ff0ef          	jal	ra,0x710c
    71e0:	00050a63          	beqz	a0,0x71f4
    71e4:	01810593          	addi	a1,sp,24
    71e8:	00040513          	mv	a0,s0
    71ec:	c1dfb0ef          	jal	ra,0x2e08
    71f0:	fcdff06f          	j	0x71bc
    71f4:	00008517          	auipc	a0,0x8
    71f8:	3b450513          	addi	a0,a0,948 # 0xf5a8
    71fc:	c0dfb0ef          	jal	ra,0x2e08
    7200:	0001b517          	auipc	a0,0x1b
    7204:	09850513          	addi	a0,a0,152 # 0x22298
    7208:	ea5ff0ef          	jal	ra,0x70ac
    720c:	fa1ff06f          	j	0x71ac
    7210:	02050263          	beqz	a0,0x7234
    7214:	00255683          	lhu	a3,2(a0)
    7218:	00200713          	li	a4,2
    721c:	00e69c63          	bne	a3,a4,0x7234
    7220:	02053783          	0x2053783
    7224:	0387b303          	0x387b303
    7228:	00030a63          	beqz	t1,0x723c
    722c:	0006061b          	0x6061b
    7230:	00030067          	jr	t1
    7234:	fea00513          	li	a0,-22
    7238:	00008067          	ret
    723c:	fda00513          	li	a0,-38
    7240:	00008067          	ret
    7244:	fe010113          	addi	sp,sp,-32
    7248:	00050593          	mv	a1,a0
    724c:	00000513          	li	a0,0
    7250:	00813823          	0x813823
    7254:	00113c23          	0x113c23
    7258:	00913423          	0x913423
    725c:	01213023          	0x1213023
    7260:	745010ef          	jal	ra,0x91a4
    7264:	fea00413          	li	s0,-22
    7268:	06050c63          	beqz	a0,0x72e0
    726c:	00050913          	mv	s2,a0
    7270:	1f8010ef          	jal	ra,0x8468
    7274:	00050493          	mv	s1,a0
    7278:	ffe00413          	li	s0,-2
    727c:	04050e63          	beqz	a0,0x72d8
    7280:	00090513          	mv	a0,s2
    7284:	10c020ef          	jal	ra,0x9390
    7288:	ff000413          	li	s0,-16
    728c:	04050663          	beqz	a0,0x72d8
    7290:	0104b783          	0x104b783
    7294:	fda00413          	li	s0,-38
    7298:	0387b703          	0x387b703
    729c:	02070e63          	beqz	a4,0x72d8
    72a0:	0087a783          	lw	a5,8(a5)
    72a4:	00090593          	mv	a1,s2
    72a8:	0017f793          	andi	a5,a5,1
    72ac:	06079863          	bnez	a5,0x731c
    72b0:	0084b503          	0x84b503
    72b4:	695010ef          	jal	ra,0x9148
    72b8:	0104b783          	0x104b783
    72bc:	04051063          	bnez	a0,0x72fc
    72c0:	0387b783          	0x387b783
    72c4:	00008597          	auipc	a1,0x8
    72c8:	99458593          	addi	a1,a1,-1644 # 0xec58
    72cc:	00048513          	mv	a0,s1
    72d0:	000780e7          	jalr	a5
    72d4:	00050413          	mv	s0,a0
    72d8:	00090513          	mv	a0,s2
    72dc:	97cfa0ef          	jal	ra,0x1458
    72e0:	01813083          	0x1813083
    72e4:	00040513          	mv	a0,s0
    72e8:	01013403          	0x1013403
    72ec:	00813483          	0x813483
    72f0:	00013903          	0x13903
    72f4:	02010113          	addi	sp,sp,32
    72f8:	00008067          	ret
    72fc:	0084b503          	0x84b503
    7300:	00090593          	mv	a1,s2
    7304:	0387b403          	0x387b403
    7308:	641010ef          	jal	ra,0x9148
    730c:	00050593          	mv	a1,a0
    7310:	00048513          	mv	a0,s1
    7314:	000400e7          	jalr	s0
    7318:	fbdff06f          	j	0x72d4
    731c:	00048513          	mv	a0,s1
    7320:	000700e7          	jalr	a4
    7324:	fb1ff06f          	j	0x72d4
    7328:	fe010113          	addi	sp,sp,-32
    732c:	00113c23          	0x113c23
    7330:	00a13423          	0xa13423
    7334:	f11ff0ef          	jal	ra,0x7244
    7338:	00813583          	0x813583
    733c:	00055c63          	bgez	a0,0x7354
    7340:	01813083          	0x1813083
    7344:	00008517          	auipc	a0,0x8
    7348:	93450513          	addi	a0,a0,-1740 # 0xec78
    734c:	02010113          	addi	sp,sp,32
    7350:	ab9fb06f          	j	0x2e08
    7354:	01813083          	0x1813083
    7358:	02010113          	addi	sp,sp,32
    735c:	00008067          	ret
    7360:	00050a63          	beqz	a0,0x7374
    7364:	02053783          	0x2053783
    7368:	0207b303          	0x207b303
    736c:	00030863          	beqz	t1,0x737c
    7370:	00030067          	jr	t1
    7374:	fea00513          	li	a0,-22
    7378:	00008067          	ret
    737c:	fda00513          	li	a0,-38
    7380:	00008067          	ret
    7384:	f9010113          	addi	sp,sp,-112
    7388:	05213823          	0x5213823
    738c:	00050913          	mv	s2,a0
    7390:	00001537          	lui	a0,0x1
    7394:	04913c23          	0x4913c23
    7398:	06113423          	0x6113423
    739c:	06813023          	0x6813023
    73a0:	00058493          	mv	s1,a1
    73a4:	d65f90ef          	jal	ra,0x1108
    73a8:	02051463          	bnez	a0,0x73d0
    73ac:	00008517          	auipc	a0,0x8
    73b0:	8e450513          	addi	a0,a0,-1820 # 0xec90
    73b4:	a55fb0ef          	jal	ra,0x2e08
    73b8:	06813083          	0x6813083
    73bc:	06013403          	0x6013403
    73c0:	05813483          	0x5813483
    73c4:	05013903          	0x5013903
    73c8:	07010113          	addi	sp,sp,112
    73cc:	00008067          	ret
    73d0:	00050413          	mv	s0,a0
    73d4:	00000613          	li	a2,0
    73d8:	00090593          	mv	a1,s2
    73dc:	00810513          	addi	a0,sp,8
    73e0:	b71ff0ef          	jal	ra,0x6f50
    73e4:	02055063          	bgez	a0,0x7404
    73e8:	00040513          	mv	a0,s0
    73ec:	86cfa0ef          	jal	ra,0x1458
    73f0:	00090593          	mv	a1,s2
    73f4:	00008517          	auipc	a0,0x8
    73f8:	8ac50513          	addi	a0,a0,-1876 # 0xeca0
    73fc:	a0dfb0ef          	jal	ra,0x2e08
    7400:	fb9ff06f          	j	0x73b8
    7404:	04100613          	li	a2,65
    7408:	00048593          	mv	a1,s1
    740c:	0001b517          	auipc	a0,0x1b
    7410:	e8c50513          	addi	a0,a0,-372 # 0x22298
    7414:	b3dff0ef          	jal	ra,0x6f50
    7418:	0001b917          	auipc	s2,0x1b
    741c:	e8090913          	addi	s2,s2,-384 # 0x22298
    7420:	02055263          	bgez	a0,0x7444
    7424:	00040513          	mv	a0,s0
    7428:	830fa0ef          	jal	ra,0x1458
    742c:	00810513          	addi	a0,sp,8
    7430:	c7dff0ef          	jal	ra,0x70ac
    7434:	00048593          	mv	a1,s1
    7438:	00008517          	auipc	a0,0x8
    743c:	87850513          	addi	a0,a0,-1928 # 0xecb0
    7440:	fbdff06f          	j	0x73fc
    7444:	00001637          	lui	a2,0x1
    7448:	00040593          	mv	a1,s0
    744c:	00810513          	addi	a0,sp,8
    7450:	cbdff0ef          	jal	ra,0x710c
    7454:	00050493          	mv	s1,a0
    7458:	02a05463          	blez	a0,0x7480
    745c:	00050613          	mv	a2,a0
    7460:	00040593          	mv	a1,s0
    7464:	00090513          	mv	a0,s2
    7468:	ef9ff0ef          	jal	ra,0x7360
    746c:	00050593          	mv	a1,a0
    7470:	fca48ae3          	beq	s1,a0,0x7444
    7474:	00008517          	auipc	a0,0x8
    7478:	85450513          	addi	a0,a0,-1964 # 0xecc8
    747c:	98dfb0ef          	jal	ra,0x2e08
    7480:	00810513          	addi	a0,sp,8
    7484:	c29ff0ef          	jal	ra,0x70ac
    7488:	0001b517          	auipc	a0,0x1b
    748c:	e1050513          	addi	a0,a0,-496 # 0x22298
    7490:	c1dff0ef          	jal	ra,0x70ac
    7494:	00040513          	mv	a0,s0
    7498:	fc1f90ef          	jal	ra,0x1458
    749c:	f1dff06f          	j	0x73b8
    74a0:	04050463          	beqz	a0,0x74e8
    74a4:	02053783          	0x2053783
    74a8:	ff010113          	addi	sp,sp,-16
    74ac:	00813023          	0x813023
    74b0:	0307b703          	0x307b703
    74b4:	00113423          	0x113423
    74b8:	00050413          	mv	s0,a0
    74bc:	fda00793          	li	a5,-38
    74c0:	00070a63          	beqz	a4,0x74d4
    74c4:	000700e7          	jalr	a4
    74c8:	00050793          	mv	a5,a0
    74cc:	00054463          	bltz	a0,0x74d4
    74d0:	02a43c23          	0x2a43c23
    74d4:	00813083          	0x813083
    74d8:	00013403          	0x13403
    74dc:	00078513          	mv	a0,a5
    74e0:	01010113          	addi	sp,sp,16
    74e4:	00008067          	ret
    74e8:	fea00793          	li	a5,-22
    74ec:	00078513          	mv	a0,a5
    74f0:	00008067          	ret
    74f4:	fd010113          	addi	sp,sp,-48
    74f8:	01213823          	0x1213823
    74fc:	00058913          	mv	s2,a1
    7500:	00050593          	mv	a1,a0
    7504:	00000513          	li	a0,0
    7508:	00913c23          	0x913c23
    750c:	02113423          	0x2113423
    7510:	02813023          	0x2813023
    7514:	01313423          	0x1313423
    7518:	48d010ef          	jal	ra,0x91a4
    751c:	fff00493          	li	s1,-1
    7520:	04050463          	beqz	a0,0x7568
    7524:	00050413          	mv	s0,a0
    7528:	741000ef          	jal	ra,0x8468
    752c:	00050493          	mv	s1,a0
    7530:	04051c63          	bnez	a0,0x7588
    7534:	00007517          	auipc	a0,0x7
    7538:	7bc50513          	addi	a0,a0,1980 # 0xecf0
    753c:	8cdfb0ef          	jal	ra,0x2e08
    7540:	00040593          	mv	a1,s0
    7544:	00007517          	auipc	a0,0x7
    7548:	7bc50513          	addi	a0,a0,1980 # 0xed00
    754c:	8bdfb0ef          	jal	ra,0x2e08
    7550:	00008517          	auipc	a0,0x8
    7554:	05850513          	addi	a0,a0,88 # 0xf5a8
    7558:	8b1fb0ef          	jal	ra,0x2e08
    755c:	00040513          	mv	a0,s0
    7560:	ef9f90ef          	jal	ra,0x1458
    7564:	ffe00493          	li	s1,-2
    7568:	02813083          	0x2813083
    756c:	02013403          	0x2013403
    7570:	01013903          	0x1013903
    7574:	00813983          	0x813983
    7578:	00048513          	mv	a0,s1
    757c:	01813483          	0x1813483
    7580:	03010113          	addi	sp,sp,48
    7584:	00008067          	ret
    7588:	00044703          	lbu	a4,0(s0)
    758c:	02f00793          	li	a5,47
    7590:	02f71a63          	bne	a4,a5,0x75c4
    7594:	00144783          	lbu	a5,1(s0)
    7598:	02079663          	bnez	a5,0x75c4
    759c:	000047b7          	lui	a5,0x4
    75a0:	1ff7879b          	0x1ff7879b
    75a4:	00093023          	0x93023
    75a8:	00f92823          	sw	a5,16(s2)
    75ac:	02093823          	0x2093823
    75b0:	04093c23          	0x4093c23
    75b4:	00040513          	mv	a0,s0
    75b8:	ea1f90ef          	jal	ra,0x1458
    75bc:	00000493          	li	s1,0
    75c0:	fa9ff06f          	j	0x7568
    75c4:	0084b503          	0x84b503
    75c8:	00040593          	mv	a1,s0
    75cc:	37d010ef          	jal	ra,0x9148
    75d0:	fc0506e3          	beqz	a0,0x759c
    75d4:	0104b783          	0x104b783
    75d8:	0407b983          	0x407b983
    75dc:	02099c63          	bnez	s3,0x7614
    75e0:	00040513          	mv	a0,s0
    75e4:	e75f90ef          	jal	ra,0x1458
    75e8:	00007517          	auipc	a0,0x7
    75ec:	70850513          	addi	a0,a0,1800 # 0xecf0
    75f0:	819fb0ef          	jal	ra,0x2e08
    75f4:	00007517          	auipc	a0,0x7
    75f8:	73c50513          	addi	a0,a0,1852 # 0xed30
    75fc:	80dfb0ef          	jal	ra,0x2e08
    7600:	00008517          	auipc	a0,0x8
    7604:	fa850513          	addi	a0,a0,-88 # 0xf5a8
    7608:	801fb0ef          	jal	ra,0x2e08
    760c:	fda00493          	li	s1,-38
    7610:	f59ff06f          	j	0x7568
    7614:	0087a783          	lw	a5,8(a5) # 0x4008
    7618:	0017f793          	andi	a5,a5,1
    761c:	02078263          	beqz	a5,0x7640
    7620:	00090613          	mv	a2,s2
    7624:	00040593          	mv	a1,s0
    7628:	00048513          	mv	a0,s1
    762c:	000980e7          	jalr	s3
    7630:	00050493          	mv	s1,a0
    7634:	00040513          	mv	a0,s0
    7638:	e21f90ef          	jal	ra,0x1458
    763c:	f2dff06f          	j	0x7568
    7640:	0084b503          	0x84b503
    7644:	00040593          	mv	a1,s0
    7648:	301010ef          	jal	ra,0x9148
    764c:	00050593          	mv	a1,a0
    7650:	00090613          	mv	a2,s2
    7654:	fd5ff06f          	j	0x7628
    7658:	f2010113          	addi	sp,sp,-224
    765c:	0c813823          	0xc813823
    7660:	0c913423          	0xc913423
    7664:	0c113c23          	0xc113c23
    7668:	0d213023          	0xd213023
    766c:	0b313c23          	0xb313c23
    7670:	0b413823          	0xb413823
    7674:	0b513423          	0xb513423
    7678:	0b613023          	0xb613023
    767c:	09713c23          	0x9713c23
    7680:	09813823          	0x9813823
    7684:	09913423          	0x9913423
    7688:	00050493          	mv	s1,a0
    768c:	00050413          	mv	s0,a0
    7690:	00051c63          	bnez	a0,0x76a8
    7694:	0000a517          	auipc	a0,0xa
    7698:	a0c50513          	addi	a0,a0,-1524 # 0x110a0
    769c:	904fb0ef          	jal	ra,0x27a0
    76a0:	00050413          	mv	s0,a0
    76a4:	10050e63          	beqz	a0,0x77c0
    76a8:	00010637          	lui	a2,0x10
    76ac:	00040593          	mv	a1,s0
    76b0:	0001b517          	auipc	a0,0x1b
    76b4:	be850513          	addi	a0,a0,-1048 # 0x22298
    76b8:	899ff0ef          	jal	ra,0x6f50
    76bc:	12051c63          	bnez	a0,0x77f4
    76c0:	00040593          	mv	a1,s0
    76c4:	00007517          	auipc	a0,0x7
    76c8:	69c50513          	addi	a0,a0,1692 # 0xed60
    76cc:	f3cfb0ef          	jal	ra,0x2e08
    76d0:	0001ba17          	auipc	s4,0x1b
    76d4:	ac0a0a13          	addi	s4,s4,-1344 # 0x22190
    76d8:	0001ba97          	auipc	s5,0x1b
    76dc:	bc0a8a93          	addi	s5,s5,-1088 # 0x22298
    76e0:	0001b997          	auipc	s3,0x1b
    76e4:	ab498993          	addi	s3,s3,-1356 # 0x22194
    76e8:	00007b17          	auipc	s6,0x7
    76ec:	6a8b0b13          	addi	s6,s6,1704 # 0xed90
    76f0:	00007b97          	auipc	s7,0x7
    76f4:	680b8b93          	addi	s7,s7,1664 # 0xed70
    76f8:	0000fc37          	lui	s8,0xf
    76fc:	00004cb7          	lui	s9,0x4
    7700:	10400613          	li	a2,260
    7704:	00000593          	li	a1,0
    7708:	000a0513          	mv	a0,s4
    770c:	ec9f80ef          	jal	ra,0x5d4
    7710:	10400613          	li	a2,260
    7714:	000a0593          	mv	a1,s4
    7718:	000a8513          	mv	a0,s5
    771c:	af5ff0ef          	jal	ra,0x7210
    7720:	08a05463          	blez	a0,0x77a8
    7724:	08000613          	li	a2,128
    7728:	00000593          	li	a1,0
    772c:	00010513          	mv	a0,sp
    7730:	ea5f80ef          	jal	ra,0x5d4
    7734:	00098593          	mv	a1,s3
    7738:	00040513          	mv	a0,s0
    773c:	269010ef          	jal	ra,0x91a4
    7740:	00050913          	mv	s2,a0
    7744:	06050263          	beqz	a0,0x77a8
    7748:	00010593          	mv	a1,sp
    774c:	da9ff0ef          	jal	ra,0x74f4
    7750:	00098593          	mv	a1,s3
    7754:	04051663          	bnez	a0,0x77a0
    7758:	000b8513          	mv	a0,s7
    775c:	eacfb0ef          	jal	ra,0x2e08
    7760:	01012783          	lw	a5,16(sp)
    7764:	0187f7b3          	and	a5,a5,s8
    7768:	0007879b          	0x7879b
    776c:	03979263          	bne	a5,s9,0x7790
    7770:	00007597          	auipc	a1,0x7
    7774:	60858593          	addi	a1,a1,1544 # 0xed78
    7778:	00007517          	auipc	a0,0x7
    777c:	60850513          	addi	a0,a0,1544 # 0xed80
    7780:	e88fb0ef          	jal	ra,0x2e08
    7784:	00090513          	mv	a0,s2
    7788:	cd1f90ef          	jal	ra,0x1458
    778c:	f75ff06f          	j	0x7700
    7790:	03013583          	0x3013583
    7794:	00007517          	auipc	a0,0x7
    7798:	5f450513          	addi	a0,a0,1524 # 0xed88
    779c:	fe5ff06f          	j	0x7780
    77a0:	000b0513          	mv	a0,s6
    77a4:	fddff06f          	j	0x7780
    77a8:	0001b517          	auipc	a0,0x1b
    77ac:	af050513          	addi	a0,a0,-1296 # 0x22298
    77b0:	8fdff0ef          	jal	ra,0x70ac
    77b4:	00049663          	bnez	s1,0x77c0
    77b8:	00040513          	mv	a0,s0
    77bc:	c9df90ef          	jal	ra,0x1458
    77c0:	0d813083          	0xd813083
    77c4:	0d013403          	0xd013403
    77c8:	0c813483          	0xc813483
    77cc:	0c013903          	0xc013903
    77d0:	0b813983          	0xb813983
    77d4:	0b013a03          	0xb013a03
    77d8:	0a813a83          	0xa813a83
    77dc:	0a013b03          	0xa013b03
    77e0:	09813b83          	0x9813b83
    77e4:	09013c03          	0x9013c03
    77e8:	08813c83          	0x8813c83
    77ec:	0e010113          	addi	sp,sp,224
    77f0:	00008067          	ret
    77f4:	00007517          	auipc	a0,0x7
    77f8:	5ac50513          	addi	a0,a0,1452 # 0xeda0
    77fc:	e0cfb0ef          	jal	ra,0x2e08
    7800:	fb5ff06f          	j	0x77b4
    7804:	de010113          	addi	sp,sp,-544
    7808:	21213023          	0x21213023
    780c:	1f313c23          	0x1f313c23
    7810:	00050913          	mv	s2,a0
    7814:	00058993          	mv	s3,a1
    7818:	00010637          	lui	a2,0x10
    781c:	00050593          	mv	a1,a0
    7820:	00010513          	mv	a0,sp
    7824:	20113c23          	0x20113c23
    7828:	20813823          	0x20813823
    782c:	20913423          	0x20913423
    7830:	1f413823          	0x1f413823
    7834:	1f513423          	0x1f513423
    7838:	1f613023          	0x1f613023
    783c:	1d713c23          	0x1d713c23
    7840:	1d813823          	0x1d813823
    7844:	f0cff0ef          	jal	ra,0x6f50
    7848:	08054a63          	bltz	a0,0x78dc
    784c:	00007a17          	auipc	s4,0x7
    7850:	57ca0a13          	addi	s4,s4,1404 # 0xedc8
    7854:	00007a97          	auipc	s5,0x7
    7858:	74ca8a93          	addi	s5,s5,1868 # 0xefa0
    785c:	0000fb37          	lui	s6,0xf
    7860:	00004bb7          	lui	s7,0x4
    7864:	00007c17          	auipc	s8,0x7
    7868:	57cc0c13          	addi	s8,s8,1404 # 0xede0
    786c:	10400613          	li	a2,260
    7870:	00000593          	li	a1,0
    7874:	0c810513          	addi	a0,sp,200
    7878:	d5df80ef          	jal	ra,0x5d4
    787c:	10400613          	li	a2,260
    7880:	0c810593          	addi	a1,sp,200
    7884:	00010513          	mv	a0,sp
    7888:	989ff0ef          	jal	ra,0x7210
    788c:	04a05263          	blez	a0,0x78d0
    7890:	000a0593          	mv	a1,s4
    7894:	0cc10513          	addi	a0,sp,204
    7898:	d35f80ef          	jal	ra,0x5cc
    789c:	fc0508e3          	beqz	a0,0x786c
    78a0:	000a8593          	mv	a1,s5
    78a4:	0cc10513          	addi	a0,sp,204
    78a8:	d25f80ef          	jal	ra,0x5cc
    78ac:	fc0500e3          	beqz	a0,0x786c
    78b0:	0cc10593          	addi	a1,sp,204
    78b4:	00090513          	mv	a0,s2
    78b8:	0ed010ef          	jal	ra,0x91a4
    78bc:	00050413          	mv	s0,a0
    78c0:	04051e63          	bnez	a0,0x791c
    78c4:	00007517          	auipc	a0,0x7
    78c8:	50c50513          	addi	a0,a0,1292 # 0xedd0
    78cc:	d3cfb0ef          	jal	ra,0x2e08
    78d0:	00010513          	mv	a0,sp
    78d4:	fd8ff0ef          	jal	ra,0x70ac
    78d8:	0140006f          	j	0x78ec
    78dc:	00090593          	mv	a1,s2
    78e0:	00007517          	auipc	a0,0x7
    78e4:	4d850513          	addi	a0,a0,1240 # 0xedb8
    78e8:	d20fb0ef          	jal	ra,0x2e08
    78ec:	21813083          	0x21813083
    78f0:	21013403          	0x21013403
    78f4:	20813483          	0x20813483
    78f8:	20013903          	0x20013903
    78fc:	1f813983          	0x1f813983
    7900:	1f013a03          	0x1f013a03
    7904:	1e813a83          	0x1e813a83
    7908:	1e013b03          	0x1e013b03
    790c:	1d813b83          	0x1d813b83
    7910:	1d013c03          	0x1d013c03
    7914:	22010113          	addi	sp,sp,544
    7918:	00008067          	ret
    791c:	0cc10593          	addi	a1,sp,204
    7920:	00098513          	mv	a0,s3
    7924:	081010ef          	jal	ra,0x91a4
    7928:	00050493          	mv	s1,a0
    792c:	00051e63          	bnez	a0,0x7948
    7930:	00007517          	auipc	a0,0x7
    7934:	4a050513          	addi	a0,a0,1184 # 0xedd0
    7938:	cd0fb0ef          	jal	ra,0x2e08
    793c:	00040513          	mv	a0,s0
    7940:	b19f90ef          	jal	ra,0x1458
    7944:	f8dff06f          	j	0x78d0
    7948:	00000593          	li	a1,0
    794c:	08000613          	li	a2,128
    7950:	04810513          	addi	a0,sp,72
    7954:	c81f80ef          	jal	ra,0x5d4
    7958:	04810593          	addi	a1,sp,72
    795c:	00040513          	mv	a0,s0
    7960:	b95ff0ef          	jal	ra,0x74f4
    7964:	00050a63          	beqz	a0,0x7978
    7968:	0cc10593          	addi	a1,sp,204
    796c:	000c0513          	mv	a0,s8
    7970:	c98fb0ef          	jal	ra,0x2e08
    7974:	ef9ff06f          	j	0x786c
    7978:	05812783          	lw	a5,88(sp)
    797c:	0167f7b3          	and	a5,a5,s6
    7980:	0007879b          	0x7879b
    7984:	03779863          	bne	a5,s7,0x79b4
    7988:	00000593          	li	a1,0
    798c:	00048513          	mv	a0,s1
    7990:	2c0000ef          	jal	ra,0x7c50
    7994:	00048593          	mv	a1,s1
    7998:	00040513          	mv	a0,s0
    799c:	e69ff0ef          	jal	ra,0x7804
    79a0:	00040513          	mv	a0,s0
    79a4:	ab5f90ef          	jal	ra,0x1458
    79a8:	00048513          	mv	a0,s1
    79ac:	aadf90ef          	jal	ra,0x1458
    79b0:	ebdff06f          	j	0x786c
    79b4:	00048593          	mv	a1,s1
    79b8:	00040513          	mv	a0,s0
    79bc:	9c9ff0ef          	jal	ra,0x7384
    79c0:	fe1ff06f          	j	0x79a0
    79c4:	f6010113          	addi	sp,sp,-160
    79c8:	09213023          	0x9213023
    79cc:	00058913          	mv	s2,a1
    79d0:	00010593          	mv	a1,sp
    79d4:	08813823          	0x8813823
    79d8:	08113c23          	0x8113c23
    79dc:	08913423          	0x8913423
    79e0:	00050413          	mv	s0,a0
    79e4:	b11ff0ef          	jal	ra,0x74f4
    79e8:	02055663          	bgez	a0,0x7a14
    79ec:	00040593          	mv	a1,s0
    79f0:	00007517          	auipc	a0,0x7
    79f4:	40850513          	addi	a0,a0,1032 # 0xedf8
    79f8:	c10fb0ef          	jal	ra,0x2e08
    79fc:	09813083          	0x9813083
    7a00:	09013403          	0x9013403
    7a04:	08813483          	0x8813483
    7a08:	08013903          	0x8013903
    7a0c:	0a010113          	addi	sp,sp,160
    7a10:	00008067          	ret
    7a14:	01012783          	lw	a5,16(sp)
    7a18:	0000f737          	lui	a4,0xf
    7a1c:	00100493          	li	s1,1
    7a20:	00e7f7b3          	and	a5,a5,a4
    7a24:	00004737          	lui	a4,0x4
    7a28:	00e78463          	beq	a5,a4,0x7a30
    7a2c:	00200493          	li	s1,2
    7a30:	00010593          	mv	a1,sp
    7a34:	00090513          	mv	a0,s2
    7a38:	abdff0ef          	jal	ra,0x74f4
    7a3c:	00054e63          	bltz	a0,0x7a58
    7a40:	01012783          	lw	a5,16(sp)
    7a44:	0000f737          	lui	a4,0xf
    7a48:	00e7f7b3          	and	a5,a5,a4
    7a4c:	00004737          	lui	a4,0x4
    7a50:	06e79663          	bne	a5,a4,0x7abc
    7a54:	0044e493          	ori	s1,s1,4
    7a58:	0094f793          	andi	a5,s1,9
    7a5c:	00900693          	li	a3,9
    7a60:	00048713          	mv	a4,s1
    7a64:	00007517          	auipc	a0,0x7
    7a68:	3ac50513          	addi	a0,a0,940 # 0xee10
    7a6c:	04d78463          	beq	a5,a3,0x7ab4
    7a70:	0044f793          	andi	a5,s1,4
    7a74:	0024f493          	andi	s1,s1,2
    7a78:	0007879b          	0x7879b
    7a7c:	06048863          	beqz	s1,0x7aec
    7a80:	04078e63          	beqz	a5,0x7adc
    7a84:	02f00593          	li	a1,47
    7a88:	00040513          	mv	a0,s0
    7a8c:	b59f80ef          	jal	ra,0x5e4
    7a90:	00040593          	mv	a1,s0
    7a94:	00050463          	beqz	a0,0x7a9c
    7a98:	00150593          	addi	a1,a0,1
    7a9c:	00090513          	mv	a0,s2
    7aa0:	704010ef          	jal	ra,0x91a4
    7aa4:	00050493          	mv	s1,a0
    7aa8:	00051e63          	bnez	a0,0x7ac4
    7aac:	00007517          	auipc	a0,0x7
    7ab0:	1e450513          	addi	a0,a0,484 # 0xec90
    7ab4:	b54fb0ef          	jal	ra,0x2e08
    7ab8:	f45ff06f          	j	0x79fc
    7abc:	0084e493          	ori	s1,s1,8
    7ac0:	f99ff06f          	j	0x7a58
    7ac4:	00050593          	mv	a1,a0
    7ac8:	00040513          	mv	a0,s0
    7acc:	8b9ff0ef          	jal	ra,0x7384
    7ad0:	00048513          	mv	a0,s1
    7ad4:	985f90ef          	jal	ra,0x1458
    7ad8:	f25ff06f          	j	0x79fc
    7adc:	00090593          	mv	a1,s2
    7ae0:	00040513          	mv	a0,s0
    7ae4:	8a1ff0ef          	jal	ra,0x7384
    7ae8:	f15ff06f          	j	0x79fc
    7aec:	04078263          	beqz	a5,0x7b30
    7af0:	02f00593          	li	a1,47
    7af4:	00040513          	mv	a0,s0
    7af8:	aedf80ef          	jal	ra,0x5e4
    7afc:	00040593          	mv	a1,s0
    7b00:	00050463          	beqz	a0,0x7b08
    7b04:	00150593          	addi	a1,a0,1
    7b08:	00090513          	mv	a0,s2
    7b0c:	698010ef          	jal	ra,0x91a4
    7b10:	00050493          	mv	s1,a0
    7b14:	f8050ce3          	beqz	a0,0x7aac
    7b18:	00000593          	li	a1,0
    7b1c:	134000ef          	jal	ra,0x7c50
    7b20:	00048593          	mv	a1,s1
    7b24:	00040513          	mv	a0,s0
    7b28:	cddff0ef          	jal	ra,0x7804
    7b2c:	fa5ff06f          	j	0x7ad0
    7b30:	00c77793          	andi	a5,a4,12
    7b34:	00079863          	bnez	a5,0x7b44
    7b38:	00000593          	li	a1,0
    7b3c:	00090513          	mv	a0,s2
    7b40:	110000ef          	jal	ra,0x7c50
    7b44:	00090593          	mv	a1,s2
    7b48:	00040513          	mv	a0,s0
    7b4c:	cb9ff0ef          	jal	ra,0x7804
    7b50:	eadff06f          	j	0x79fc
    7b54:	fd010113          	addi	sp,sp,-48
    7b58:	02813023          	0x2813023
    7b5c:	00058413          	mv	s0,a1
    7b60:	00050593          	mv	a1,a0
    7b64:	00000513          	li	a0,0
    7b68:	01213823          	0x1213823
    7b6c:	02113423          	0x2113423
    7b70:	00913c23          	0x913c23
    7b74:	01313423          	0x1313423
    7b78:	01413023          	0x1413023
    7b7c:	628010ef          	jal	ra,0x91a4
    7b80:	00050913          	mv	s2,a0
    7b84:	04051063          	bnez	a0,0x7bc4
    7b88:	00000493          	li	s1,0
    7b8c:	ffe00413          	li	s0,-2
    7b90:	00090513          	mv	a0,s2
    7b94:	8c5f90ef          	jal	ra,0x1458
    7b98:	00048513          	mv	a0,s1
    7b9c:	8bdf90ef          	jal	ra,0x1458
    7ba0:	02813083          	0x2813083
    7ba4:	00040513          	mv	a0,s0
    7ba8:	02013403          	0x2013403
    7bac:	01813483          	0x1813483
    7bb0:	01013903          	0x1013903
    7bb4:	00813983          	0x813983
    7bb8:	00013a03          	0x13a03
    7bbc:	03010113          	addi	sp,sp,48
    7bc0:	00008067          	ret
    7bc4:	00040593          	mv	a1,s0
    7bc8:	00000513          	li	a0,0
    7bcc:	5d8010ef          	jal	ra,0x91a4
    7bd0:	00050493          	mv	s1,a0
    7bd4:	fa050ae3          	beqz	a0,0x7b88
    7bd8:	00090513          	mv	a0,s2
    7bdc:	08d000ef          	jal	ra,0x8468
    7be0:	00050993          	mv	s3,a0
    7be4:	00048513          	mv	a0,s1
    7be8:	081000ef          	jal	ra,0x8468
    7bec:	fee00413          	li	s0,-18
    7bf0:	faa990e3          	bne	s3,a0,0x7b90
    7bf4:	0109b783          	0x109b783
    7bf8:	fda00413          	li	s0,-38
    7bfc:	0487ba03          	0x487ba03
    7c00:	f80a08e3          	beqz	s4,0x7b90
    7c04:	0087a783          	lw	a5,8(a5)
    7c08:	0017f793          	andi	a5,a5,1
    7c0c:	00078c63          	beqz	a5,0x7c24
    7c10:	00048613          	mv	a2,s1
    7c14:	00090593          	mv	a1,s2
    7c18:	000a00e7          	jalr	s4
    7c1c:	00050413          	mv	s0,a0
    7c20:	f71ff06f          	j	0x7b90
    7c24:	0089b503          	0x89b503
    7c28:	00090593          	mv	a1,s2
    7c2c:	51c010ef          	jal	ra,0x9148
    7c30:	00050413          	mv	s0,a0
    7c34:	0089b503          	0x89b503
    7c38:	00048593          	mv	a1,s1
    7c3c:	50c010ef          	jal	ra,0x9148
    7c40:	00050613          	mv	a2,a0
    7c44:	00040593          	mv	a1,s0
    7c48:	00098513          	mv	a0,s3
    7c4c:	fcdff06f          	j	0x7c18
    7c50:	fe010113          	addi	sp,sp,-32
    7c54:	00913423          	0x913423
    7c58:	00113c23          	0x113c23
    7c5c:	00813823          	0x813823
    7c60:	00050493          	mv	s1,a0
    7c64:	248010ef          	jal	ra,0x8eac
    7c68:	fff00793          	li	a5,-1
    7c6c:	02f51463          	bne	a0,a5,0x7c94
    7c70:	00050413          	mv	s0,a0
    7c74:	ff400513          	li	a0,-12
    7c78:	f80fa0ef          	jal	ra,0x23f8
    7c7c:	01813083          	0x1813083
    7c80:	00040513          	mv	a0,s0
    7c84:	01013403          	0x1013403
    7c88:	00813483          	0x813483
    7c8c:	02010113          	addi	sp,sp,32
    7c90:	00008067          	ret
    7c94:	37c010ef          	jal	ra,0x9010
    7c98:	00010637          	lui	a2,0x10
    7c9c:	00048593          	mv	a1,s1
    7ca0:	04060613          	addi	a2,a2,64 # 0x10040
    7ca4:	00050413          	mv	s0,a0
    7ca8:	aa8ff0ef          	jal	ra,0x6f50
    7cac:	00050493          	mv	s1,a0
    7cb0:	00040513          	mv	a0,s0
    7cb4:	0204d063          	bgez	s1,0x7cd4
    7cb8:	3e8010ef          	jal	ra,0x90a0
    7cbc:	00040513          	mv	a0,s0
    7cc0:	3e0010ef          	jal	ra,0x90a0
    7cc4:	00048513          	mv	a0,s1
    7cc8:	f30fa0ef          	jal	ra,0x23f8
    7ccc:	fff00413          	li	s0,-1
    7cd0:	fadff06f          	j	0x7c7c
    7cd4:	bd8ff0ef          	jal	ra,0x70ac
    7cd8:	00040513          	mv	a0,s0
    7cdc:	3c4010ef          	jal	ra,0x90a0
    7ce0:	00040513          	mv	a0,s0
    7ce4:	3bc010ef          	jal	ra,0x90a0
    7ce8:	00000413          	li	s0,0
    7cec:	f91ff06f          	j	0x7c7c
    7cf0:	fa010113          	addi	sp,sp,-96
    7cf4:	01213823          	0x1213823
    7cf8:	01313423          	0x1313423
    7cfc:	02113423          	0x2113423
    7d00:	02813023          	0x2813023
    7d04:	00913c23          	0x913c23
    7d08:	00050913          	mv	s2,a0
    7d0c:	00058993          	mv	s3,a1
    7d10:	02c13823          	0x2c13823
    7d14:	02d13c23          	0x2d13c23
    7d18:	04e13023          	0x4e13023
    7d1c:	04f13423          	0x4f13423
    7d20:	05013823          	0x5013823
    7d24:	05113c23          	0x5113c23
    7d28:	184010ef          	jal	ra,0x8eac
    7d2c:	02055863          	bgez	a0,0x7d5c
    7d30:	ff400513          	li	a0,-12
    7d34:	ec4fa0ef          	jal	ra,0x23f8
    7d38:	fff00413          	li	s0,-1
    7d3c:	02813083          	0x2813083
    7d40:	00040513          	mv	a0,s0
    7d44:	02013403          	0x2013403
    7d48:	01813483          	0x1813483
    7d4c:	01013903          	0x1013903
    7d50:	00813983          	0x813983
    7d54:	06010113          	addi	sp,sp,96
    7d58:	00008067          	ret
    7d5c:	00050413          	mv	s0,a0
    7d60:	2b0010ef          	jal	ra,0x9010
    7d64:	00090593          	mv	a1,s2
    7d68:	00098613          	mv	a2,s3
    7d6c:	00050493          	mv	s1,a0
    7d70:	9e0ff0ef          	jal	ra,0x6f50
    7d74:	00050913          	mv	s2,a0
    7d78:	00048513          	mv	a0,s1
    7d7c:	00095c63          	bgez	s2,0x7d94
    7d80:	320010ef          	jal	ra,0x90a0
    7d84:	00048513          	mv	a0,s1
    7d88:	318010ef          	jal	ra,0x90a0
    7d8c:	00090513          	mv	a0,s2
    7d90:	fa5ff06f          	j	0x7d34
    7d94:	30c010ef          	jal	ra,0x90a0
    7d98:	fa5ff06f          	j	0x7d3c
    7d9c:	fe010113          	addi	sp,sp,-32
    7da0:	00113c23          	0x113c23
    7da4:	00813823          	0x813823
    7da8:	00913423          	0x913423
    7dac:	264010ef          	jal	ra,0x9010
    7db0:	02051263          	bnez	a0,0x7dd4
    7db4:	ff700513          	li	a0,-9
    7db8:	e40fa0ef          	jal	ra,0x23f8
    7dbc:	fff00513          	li	a0,-1
    7dc0:	01813083          	0x1813083
    7dc4:	01013403          	0x1013403
    7dc8:	00813483          	0x813483
    7dcc:	02010113          	addi	sp,sp,32
    7dd0:	00008067          	ret
    7dd4:	00050413          	mv	s0,a0
    7dd8:	ad4ff0ef          	jal	ra,0x70ac
    7ddc:	00050493          	mv	s1,a0
    7de0:	00040513          	mv	a0,s0
    7de4:	2bc010ef          	jal	ra,0x90a0
    7de8:	0004d663          	bgez	s1,0x7df4
    7dec:	00048513          	mv	a0,s1
    7df0:	fc9ff06f          	j	0x7db8
    7df4:	00040513          	mv	a0,s0
    7df8:	2a8010ef          	jal	ra,0x90a0
    7dfc:	00000513          	li	a0,0
    7e00:	fc1ff06f          	j	0x7dc0
    7e04:	fd010113          	addi	sp,sp,-48
    7e08:	00b13423          	0xb13423
    7e0c:	00c13023          	0xc13023
    7e10:	02113423          	0x2113423
    7e14:	02813023          	0x2813023
    7e18:	00913c23          	0x913c23
    7e1c:	1f4010ef          	jal	ra,0x9010
    7e20:	00013603          	0x13603
    7e24:	00813583          	0x813583
    7e28:	02051463          	bnez	a0,0x7e50
    7e2c:	ff700513          	li	a0,-9
    7e30:	dc8fa0ef          	jal	ra,0x23f8
    7e34:	fff00413          	li	s0,-1
    7e38:	02813083          	0x2813083
    7e3c:	00040513          	mv	a0,s0
    7e40:	02013403          	0x2013403
    7e44:	01813483          	0x1813483
    7e48:	03010113          	addi	sp,sp,48
    7e4c:	00008067          	ret
    7e50:	00050493          	mv	s1,a0
    7e54:	ab8ff0ef          	jal	ra,0x710c
    7e58:	00050413          	mv	s0,a0
    7e5c:	00048513          	mv	a0,s1
    7e60:	00045863          	bgez	s0,0x7e70
    7e64:	23c010ef          	jal	ra,0x90a0
    7e68:	00040513          	mv	a0,s0
    7e6c:	fc5ff06f          	j	0x7e30
    7e70:	230010ef          	jal	ra,0x90a0
    7e74:	fc5ff06f          	j	0x7e38
    7e78:	fd010113          	addi	sp,sp,-48
    7e7c:	00b13423          	0xb13423
    7e80:	00c13023          	0xc13023
    7e84:	02113423          	0x2113423
    7e88:	02813023          	0x2813023
    7e8c:	00913c23          	0x913c23
    7e90:	180010ef          	jal	ra,0x9010
    7e94:	00013603          	0x13603
    7e98:	00813583          	0x813583
    7e9c:	02051463          	bnez	a0,0x7ec4
    7ea0:	ff700513          	li	a0,-9
    7ea4:	d54fa0ef          	jal	ra,0x23f8
    7ea8:	fff00413          	li	s0,-1
    7eac:	02813083          	0x2813083
    7eb0:	00040513          	mv	a0,s0
    7eb4:	02013403          	0x2013403
    7eb8:	01813483          	0x1813483
    7ebc:	03010113          	addi	sp,sp,48
    7ec0:	00008067          	ret
    7ec4:	00050493          	mv	s1,a0
    7ec8:	c98ff0ef          	jal	ra,0x7360
    7ecc:	00050413          	mv	s0,a0
    7ed0:	00048513          	mv	a0,s1
    7ed4:	00045863          	bgez	s0,0x7ee4
    7ed8:	1c8010ef          	jal	ra,0x90a0
    7edc:	00040513          	mv	a0,s0
    7ee0:	fc5ff06f          	j	0x7ea4
    7ee4:	1bc010ef          	jal	ra,0x90a0
    7ee8:	fc5ff06f          	j	0x7eac
    7eec:	fe010113          	addi	sp,sp,-32
    7ef0:	00813823          	0x813823
    7ef4:	01213023          	0x1213023
    7ef8:	00113c23          	0x113c23
    7efc:	00913423          	0x913423
    7f00:	00058413          	mv	s0,a1
    7f04:	00060913          	mv	s2,a2
    7f08:	108010ef          	jal	ra,0x9010
    7f0c:	02051663          	bnez	a0,0x7f38
    7f10:	ff700513          	li	a0,-9
    7f14:	ce4fa0ef          	jal	ra,0x23f8
    7f18:	fff00413          	li	s0,-1
    7f1c:	01813083          	0x1813083
    7f20:	00040513          	mv	a0,s0
    7f24:	01013403          	0x1013403
    7f28:	00813483          	0x813483
    7f2c:	00013903          	0x13903
    7f30:	02010113          	addi	sp,sp,32
    7f34:	00008067          	ret
    7f38:	00100793          	li	a5,1
    7f3c:	00050493          	mv	s1,a0
    7f40:	02f90c63          	beq	s2,a5,0x7f78
    7f44:	00200793          	li	a5,2
    7f48:	02f90e63          	beq	s2,a5,0x7f84
    7f4c:	04091063          	bnez	s2,0x7f8c
    7f50:	00048513          	mv	a0,s1
    7f54:	02044c63          	bltz	s0,0x7f8c
    7f58:	00040593          	mv	a1,s0
    7f5c:	d44ff0ef          	jal	ra,0x74a0
    7f60:	00050913          	mv	s2,a0
    7f64:	00048513          	mv	a0,s1
    7f68:	02095863          	bgez	s2,0x7f98
    7f6c:	134010ef          	jal	ra,0x90a0
    7f70:	00090513          	mv	a0,s2
    7f74:	fa1ff06f          	j	0x7f14
    7f78:	03853783          	0x3853783
    7f7c:	00f40433          	add	s0,s0,a5
    7f80:	fd1ff06f          	j	0x7f50
    7f84:	03053783          	0x3053783
    7f88:	ff5ff06f          	j	0x7f7c
    7f8c:	114010ef          	jal	ra,0x90a0
    7f90:	fea00513          	li	a0,-22
    7f94:	f81ff06f          	j	0x7f14
    7f98:	108010ef          	jal	ra,0x90a0
    7f9c:	f81ff06f          	j	0x7f1c
    7fa0:	ff010113          	addi	sp,sp,-16
    7fa4:	00113423          	0x113423
    7fa8:	badff0ef          	jal	ra,0x7b54
    7fac:	00055c63          	bgez	a0,0x7fc4
    7fb0:	c48fa0ef          	jal	ra,0x23f8
    7fb4:	fff00513          	li	a0,-1
    7fb8:	00813083          	0x813083
    7fbc:	01010113          	addi	sp,sp,16
    7fc0:	00008067          	ret
    7fc4:	00000513          	li	a0,0
    7fc8:	ff1ff06f          	j	0x7fb8
    7fcc:	ff010113          	addi	sp,sp,-16
    7fd0:	00113423          	0x113423
    7fd4:	a70ff0ef          	jal	ra,0x7244
    7fd8:	00055c63          	bgez	a0,0x7ff0
    7fdc:	c1cfa0ef          	jal	ra,0x23f8
    7fe0:	fff00513          	li	a0,-1
    7fe4:	00813083          	0x813083
    7fe8:	01010113          	addi	sp,sp,16
    7fec:	00008067          	ret
    7ff0:	00000513          	li	a0,0
    7ff4:	ff1ff06f          	j	0x7fe4
    7ff8:	ff010113          	addi	sp,sp,-16
    7ffc:	00113423          	0x113423
    8000:	cf4ff0ef          	jal	ra,0x74f4
    8004:	00050793          	mv	a5,a0
    8008:	00055663          	bgez	a0,0x8014
    800c:	becfa0ef          	jal	ra,0x23f8
    8010:	fff00793          	li	a5,-1
    8014:	00813083          	0x813083
    8018:	00078513          	mv	a0,a5
    801c:	01010113          	addi	sp,sp,16
    8020:	00008067          	ret
    8024:	fe010113          	addi	sp,sp,-32
    8028:	00813823          	0x813823
    802c:	00113c23          	0x113c23
    8030:	00913423          	0x913423
    8034:	01213023          	0x1213023
    8038:	00050413          	mv	s0,a0
    803c:	671000ef          	jal	ra,0x8eac
    8040:	fff00793          	li	a5,-1
    8044:	00f51a63          	bne	a0,a5,0x8058
    8048:	ff400513          	li	a0,-12
    804c:	bacfa0ef          	jal	ra,0x23f8
    8050:	00000413          	li	s0,0
    8054:	04c0006f          	j	0x80a0
    8058:	00050913          	mv	s2,a0
    805c:	7b5000ef          	jal	ra,0x9010
    8060:	00040593          	mv	a1,s0
    8064:	00010637          	lui	a2,0x10
    8068:	00050493          	mv	s1,a0
    806c:	ee5fe0ef          	jal	ra,0x6f50
    8070:	00050413          	mv	s0,a0
    8074:	04054e63          	bltz	a0,0x80d0
    8078:	20c00513          	li	a0,524
    807c:	88cf90ef          	jal	ra,0x1108
    8080:	00050413          	mv	s0,a0
    8084:	02051c63          	bnez	a0,0x80bc
    8088:	00048513          	mv	a0,s1
    808c:	820ff0ef          	jal	ra,0x70ac
    8090:	00048513          	mv	a0,s1
    8094:	00c010ef          	jal	ra,0x90a0
    8098:	00048513          	mv	a0,s1
    809c:	004010ef          	jal	ra,0x90a0
    80a0:	01813083          	0x1813083
    80a4:	00040513          	mv	a0,s0
    80a8:	01013403          	0x1013403
    80ac:	00813483          	0x813483
    80b0:	00013903          	0x13903
    80b4:	02010113          	addi	sp,sp,32
    80b8:	00008067          	ret
    80bc:	20c00613          	li	a2,524
    80c0:	00000593          	li	a1,0
    80c4:	d10f80ef          	jal	ra,0x5d4
    80c8:	01242023          	sw	s2,0(s0)
    80cc:	fcdff06f          	j	0x8098
    80d0:	00048513          	mv	a0,s1
    80d4:	7cd000ef          	jal	ra,0x90a0
    80d8:	00048513          	mv	a0,s1
    80dc:	7c5000ef          	jal	ra,0x90a0
    80e0:	00040513          	mv	a0,s0
    80e4:	f69ff06f          	j	0x804c
    80e8:	fd010113          	addi	sp,sp,-48
    80ec:	00913c23          	0x913c23
    80f0:	00050493          	mv	s1,a0
    80f4:	00052503          	lw	a0,0(a0)
    80f8:	02813023          	0x2813023
    80fc:	02113423          	0x2113423
    8100:	01213823          	0x1213823
    8104:	01313423          	0x1313423
    8108:	709000ef          	jal	ra,0x9010
    810c:	00050413          	mv	s0,a0
    8110:	02051663          	bnez	a0,0x813c
    8114:	ff700513          	li	a0,-9
    8118:	ae0fa0ef          	jal	ra,0x23f8
    811c:	02813083          	0x2813083
    8120:	00040513          	mv	a0,s0
    8124:	02013403          	0x2013403
    8128:	01813483          	0x1813483
    812c:	01013903          	0x1013903
    8130:	00813983          	0x813983
    8134:	03010113          	addi	sp,sp,48
    8138:	00008067          	ret
    813c:	2044a703          	lw	a4,516(s1) # 0x10204
    8140:	00448993          	addi	s3,s1,4
    8144:	02071a63          	bnez	a4,0x8178
    8148:	1ff00613          	li	a2,511
    814c:	00098593          	mv	a1,s3
    8150:	00040513          	mv	a0,s0
    8154:	8bcff0ef          	jal	ra,0x7210
    8158:	00050913          	mv	s2,a0
    815c:	04a04463          	bgtz	a0,0x81a4
    8160:	00040513          	mv	a0,s0
    8164:	73d000ef          	jal	ra,0x90a0
    8168:	00090513          	mv	a0,s2
    816c:	a8cfa0ef          	jal	ra,0x23f8
    8170:	00000413          	li	s0,0
    8174:	fa9ff06f          	j	0x811c
    8178:	2084a683          	lw	a3,520(s1)
    817c:	00d487b3          	add	a5,s1,a3
    8180:	0067d783          	lhu	a5,6(a5)
    8184:	00d786bb          	0xd786bb
    8188:	20d4a423          	sw	a3,520(s1)
    818c:	fae6dee3          	bge	a3,a4,0x8148
    8190:	00040513          	mv	a0,s0
    8194:	70d000ef          	jal	ra,0x90a0
    8198:	2084a403          	lw	s0,520(s1)
    819c:	00898433          	add	s0,s3,s0
    81a0:	f7dff06f          	j	0x811c
    81a4:	20a4a223          	sw	a0,516(s1)
    81a8:	2004a423          	sw	zero,520(s1)
    81ac:	fe5ff06f          	j	0x8190
    81b0:	fe010113          	addi	sp,sp,-32
    81b4:	00813823          	0x813823
    81b8:	00050413          	mv	s0,a0
    81bc:	00052503          	lw	a0,0(a0)
    81c0:	00113c23          	0x113c23
    81c4:	00913423          	0x913423
    81c8:	649000ef          	jal	ra,0x9010
    81cc:	00051e63          	bnez	a0,0x81e8
    81d0:	01013403          	0x1013403
    81d4:	01813083          	0x1813083
    81d8:	00813483          	0x813483
    81dc:	ff700513          	li	a0,-9
    81e0:	02010113          	addi	sp,sp,32
    81e4:	a14fa06f          	j	0x23f8
    81e8:	00000593          	li	a1,0
    81ec:	00050493          	mv	s1,a0
    81f0:	ab0ff0ef          	jal	ra,0x74a0
    81f4:	00054663          	bltz	a0,0x8200
    81f8:	20042423          	sw	zero,520(s0)
    81fc:	20042223          	sw	zero,516(s0)
    8200:	01013403          	0x1013403
    8204:	01813083          	0x1813083
    8208:	00048513          	mv	a0,s1
    820c:	00813483          	0x813483
    8210:	02010113          	addi	sp,sp,32
    8214:	68d0006f          	j	0x90a0
    8218:	fe010113          	addi	sp,sp,-32
    821c:	01213023          	0x1213023
    8220:	00050913          	mv	s2,a0
    8224:	00052503          	lw	a0,0(a0)
    8228:	00113c23          	0x113c23
    822c:	00813823          	0x813823
    8230:	00913423          	0x913423
    8234:	5dd000ef          	jal	ra,0x9010
    8238:	02051463          	bnez	a0,0x8260
    823c:	ff700513          	li	a0,-9
    8240:	9b8fa0ef          	jal	ra,0x23f8
    8244:	fff00513          	li	a0,-1
    8248:	01813083          	0x1813083
    824c:	01013403          	0x1013403
    8250:	00813483          	0x813483
    8254:	00013903          	0x13903
    8258:	02010113          	addi	sp,sp,32
    825c:	00008067          	ret
    8260:	00050413          	mv	s0,a0
    8264:	e49fe0ef          	jal	ra,0x70ac
    8268:	00050493          	mv	s1,a0
    826c:	00040513          	mv	a0,s0
    8270:	631000ef          	jal	ra,0x90a0
    8274:	00040513          	mv	a0,s0
    8278:	629000ef          	jal	ra,0x90a0
    827c:	00090513          	mv	a0,s2
    8280:	9d8f90ef          	jal	ra,0x1458
    8284:	00000513          	li	a0,0
    8288:	fc04d0e3          	bgez	s1,0x8248
    828c:	00048513          	mv	a0,s1
    8290:	fb1ff06f          	j	0x8240
    8294:	fe010113          	addi	sp,sp,-32
    8298:	00113c23          	0x113c23
    829c:	00813823          	0x813823
    82a0:	02051463          	bnez	a0,0x82c8
    82a4:	391000ef          	jal	ra,0x8e34
    82a8:	00009597          	auipc	a1,0x9
    82ac:	df858593          	addi	a1,a1,-520 # 0x110a0
    82b0:	00008517          	auipc	a0,0x8
    82b4:	62850513          	addi	a0,a0,1576 # 0x108d8
    82b8:	b51fa0ef          	jal	ra,0x2e08
    82bc:	3e5000ef          	jal	ra,0x8ea0
    82c0:	00000513          	li	a0,0
    82c4:	0240006f          	j	0x82e8
    82c8:	00a13423          	0xa13423
    82cc:	a9cf80ef          	jal	ra,0x568
    82d0:	10000793          	li	a5,256
    82d4:	00813583          	0x813583
    82d8:	02a7f063          	bgeu	a5,a0,0x82f8
    82dc:	fec00513          	li	a0,-20
    82e0:	918fa0ef          	jal	ra,0x23f8
    82e4:	fff00513          	li	a0,-1
    82e8:	01813083          	0x1813083
    82ec:	01013403          	0x1013403
    82f0:	02010113          	addi	sp,sp,32
    82f4:	00008067          	ret
    82f8:	00000513          	li	a0,0
    82fc:	6a9000ef          	jal	ra,0x91a4
    8300:	00050413          	mv	s0,a0
    8304:	fc050ce3          	beqz	a0,0x82dc
    8308:	32d000ef          	jal	ra,0x8e34
    830c:	00040513          	mv	a0,s0
    8310:	d15ff0ef          	jal	ra,0x8024
    8314:	00051a63          	bnez	a0,0x8328
    8318:	00040513          	mv	a0,s0
    831c:	93cf90ef          	jal	ra,0x1458
    8320:	381000ef          	jal	ra,0x8ea0
    8324:	fc1ff06f          	j	0x82e4
    8328:	ef1ff0ef          	jal	ra,0x8218
    832c:	10000613          	li	a2,256
    8330:	00040593          	mv	a1,s0
    8334:	00009517          	auipc	a0,0x9
    8338:	d6c50513          	addi	a0,a0,-660 # 0x110a0
    833c:	a54f80ef          	jal	ra,0x590
    8340:	00040513          	mv	a0,s0
    8344:	914f90ef          	jal	ra,0x1458
    8348:	f75ff06f          	j	0x82bc
    834c:	fe010113          	addi	sp,sp,-32
    8350:	00113c23          	0x113c23
    8354:	00813823          	0x813823
    8358:	00b13423          	0xb13423
    835c:	00050413          	mv	s0,a0
    8360:	2d5000ef          	jal	ra,0x8e34
    8364:	00813603          	0x813603
    8368:	00009597          	auipc	a1,0x9
    836c:	d3858593          	addi	a1,a1,-712 # 0x110a0
    8370:	00040513          	mv	a0,s0
    8374:	a1cf80ef          	jal	ra,0x590
    8378:	329000ef          	jal	ra,0x8ea0
    837c:	01813083          	0x1813083
    8380:	00040513          	mv	a0,s0
    8384:	01013403          	0x1013403
    8388:	02010113          	addi	sp,sp,32
    838c:	00008067          	ret
    8390:	fc010113          	addi	sp,sp,-64
    8394:	02813823          	0x2813823
    8398:	02913423          	0x2913423
    839c:	03213023          	0x3213023
    83a0:	01313c23          	0x1313c23
    83a4:	02113c23          	0x2113c23
    83a8:	00050413          	mv	s0,a0
    83ac:	0001a917          	auipc	s2,0x1a
    83b0:	f4490913          	addi	s2,s2,-188 # 0x222f0
    83b4:	281000ef          	jal	ra,0x8e34
    83b8:	00000493          	li	s1,0
    83bc:	0001a997          	auipc	s3,0x1a
    83c0:	f4498993          	addi	s3,s3,-188 # 0x22300
    83c4:	00093783          	0x93783
    83c8:	04079663          	bnez	a5,0x8414
    83cc:	00049463          	bnez	s1,0x83d4
    83d0:	00090493          	mv	s1,s2
    83d4:	00890913          	addi	s2,s2,8
    83d8:	ff3916e3          	bne	s2,s3,0x83c4
    83dc:	08049063          	bnez	s1,0x845c
    83e0:	fe400513          	li	a0,-28
    83e4:	814fa0ef          	jal	ra,0x23f8
    83e8:	00007517          	auipc	a0,0x7
    83ec:	90850513          	addi	a0,a0,-1784 # 0xecf0
    83f0:	a19fa0ef          	jal	ra,0x2e08
    83f4:	00043583          	0x43583
    83f8:	00007517          	auipc	a0,0x7
    83fc:	b3050513          	addi	a0,a0,-1232 # 0xef28
    8400:	a09fa0ef          	jal	ra,0x2e08
    8404:	00007517          	auipc	a0,0x7
    8408:	1a450513          	addi	a0,a0,420 # 0xf5a8
    840c:	9fdfa0ef          	jal	ra,0x2e08
    8410:	0200006f          	j	0x8430
    8414:	00043583          	0x43583
    8418:	0007b503          	0x7b503
    841c:	9b0f80ef          	jal	ra,0x5cc
    8420:	fa051ae3          	bnez	a0,0x83d4
    8424:	fef00513          	li	a0,-17
    8428:	fd1f90ef          	jal	ra,0x23f8
    842c:	fa048ae3          	beqz	s1,0x83e0
    8430:	fff00513          	li	a0,-1
    8434:	00a13423          	0xa13423
    8438:	269000ef          	jal	ra,0x8ea0
    843c:	03813083          	0x3813083
    8440:	03013403          	0x3013403
    8444:	00813503          	0x813503
    8448:	02813483          	0x2813483
    844c:	02013903          	0x2013903
    8450:	01813983          	0x1813983
    8454:	04010113          	addi	sp,sp,64
    8458:	00008067          	ret
    845c:	0084b023          	0x84b023
    8460:	00000513          	li	a0,0
    8464:	fd1ff06f          	j	0x8434
    8468:	fa010113          	addi	sp,sp,-96
    846c:	05213023          	0x5213023
    8470:	04113c23          	0x4113c23
    8474:	04813823          	0x4813823
    8478:	04913423          	0x4913423
    847c:	03313c23          	0x3313c23
    8480:	03413823          	0x3413823
    8484:	03513423          	0x3513423
    8488:	03613023          	0x3613023
    848c:	01713c23          	0x1713c23
    8490:	01813823          	0x1813823
    8494:	01913423          	0x1913423
    8498:	01a13023          	0x1a13023
    849c:	00050913          	mv	s2,a0
    84a0:	00051e63          	bnez	a0,0x84bc
    84a4:	05600613          	li	a2,86
    84a8:	00007597          	auipc	a1,0x7
    84ac:	bc858593          	addi	a1,a1,-1080 # 0xf070
    84b0:	00007517          	auipc	a0,0x7
    84b4:	ab050513          	addi	a0,a0,-1360 # 0xef60
    84b8:	addfa0ef          	jal	ra,0x2f94
    84bc:	fff00a93          	li	s5,-1
    84c0:	175000ef          	jal	ra,0x8e34
    84c4:	00000a13          	li	s4,0
    84c8:	00000993          	li	s3,0
    84cc:	0001a497          	auipc	s1,0x1a
    84d0:	e3448493          	addi	s1,s1,-460 # 0x22300
    84d4:	020ada93          	srli	s5,s5,0x20
    84d8:	00100b93          	li	s7,1
    84dc:	02f00c13          	li	s8,47
    84e0:	0001ab17          	auipc	s6,0x1a
    84e4:	e60b0b13          	addi	s6,s6,-416 # 0x22340
    84e8:	0084bd03          	0x84bd03
    84ec:	040d0863          	beqz	s10,0x853c
    84f0:	0104b783          	0x104b783
    84f4:	04078463          	beqz	a5,0x853c
    84f8:	000d0513          	mv	a0,s10
    84fc:	86cf80ef          	jal	ra,0x568
    8500:	00050c9b          	0x50c9b
    8504:	034cec63          	bltu	s9,s4,0x853c
    8508:	01557433          	and	s0,a0,s5
    850c:	00040613          	mv	a2,s0
    8510:	00090593          	mv	a1,s2
    8514:	000d0513          	mv	a0,s10
    8518:	8b8f80ef          	jal	ra,0x5d0
    851c:	02051063          	bnez	a0,0x853c
    8520:	079bf263          	bgeu	s7,s9,0x8584
    8524:	00090513          	mv	a0,s2
    8528:	840f80ef          	jal	ra,0x568
    852c:	04a47c63          	bgeu	s0,a0,0x8584
    8530:	00890433          	add	s0,s2,s0
    8534:	00044783          	lbu	a5,0(s0)
    8538:	05878663          	beq	a5,s8,0x8584
    853c:	02048493          	addi	s1,s1,32
    8540:	fb6494e3          	bne	s1,s6,0x84e8
    8544:	15d000ef          	jal	ra,0x8ea0
    8548:	05813083          	0x5813083
    854c:	05013403          	0x5013403
    8550:	04813483          	0x4813483
    8554:	04013903          	0x4013903
    8558:	03013a03          	0x3013a03
    855c:	02813a83          	0x2813a83
    8560:	02013b03          	0x2013b03
    8564:	01813b83          	0x1813b83
    8568:	01013c03          	0x1013c03
    856c:	00813c83          	0x813c83
    8570:	00013d03          	0x13d03
    8574:	00098513          	mv	a0,s3
    8578:	03813983          	0x3813983
    857c:	06010113          	addi	sp,sp,96
    8580:	00008067          	ret
    8584:	000c8a13          	mv	s4,s9
    8588:	00048993          	mv	s3,s1
    858c:	fb1ff06f          	j	0x853c
    8590:	f5010113          	addi	sp,sp,-176
    8594:	07513c23          	0x7513c23
    8598:	07613823          	0x7613823
    859c:	07713423          	0x7713423
    85a0:	07813023          	0x7813023
    85a4:	0a113423          	0xa113423
    85a8:	0a813023          	0xa813023
    85ac:	08913c23          	0x8913c23
    85b0:	09213823          	0x9213823
    85b4:	09313423          	0x9313423
    85b8:	09413023          	0x9413023
    85bc:	05913c23          	0x5913c23
    85c0:	00058b13          	mv	s6,a1
    85c4:	00060a93          	mv	s5,a2
    85c8:	00068b93          	mv	s7,a3
    85cc:	00070c13          	mv	s8,a4
    85d0:	04050a63          	beqz	a0,0x8624
    85d4:	ba9fb0ef          	jal	ra,0x417c
    85d8:	00050993          	mv	s3,a0
    85dc:	04051663          	bnez	a0,0x8628
    85e0:	fed00513          	li	a0,-19
    85e4:	e15f90ef          	jal	ra,0x23f8
    85e8:	fff00793          	li	a5,-1
    85ec:	0a813083          	0xa813083
    85f0:	0a013403          	0xa013403
    85f4:	09813483          	0x9813483
    85f8:	09013903          	0x9013903
    85fc:	08813983          	0x8813983
    8600:	08013a03          	0x8013a03
    8604:	07813a83          	0x7813a83
    8608:	07013b03          	0x7013b03
    860c:	06813b83          	0x6813b83
    8610:	06013c03          	0x6013c03
    8614:	05813c83          	0x5813c83
    8618:	00078513          	mv	a0,a5
    861c:	0b010113          	addi	sp,sp,176
    8620:	00008067          	ret
    8624:	00050993          	mv	s3,a0
    8628:	0001a497          	auipc	s1,0x1a
    862c:	cc848493          	addi	s1,s1,-824 # 0x222f0
    8630:	005000ef          	jal	ra,0x8e34
    8634:	0004b783          	0x4b783
    8638:	00048913          	mv	s2,s1
    863c:	0001a417          	auipc	s0,0x1a
    8640:	cc440413          	addi	s0,s0,-828 # 0x22300
    8644:	00078a63          	beqz	a5,0x8658
    8648:	0007b503          	0x7b503
    864c:	000a8593          	mv	a1,s5
    8650:	f7df70ef          	jal	ra,0x5cc
    8654:	02050a63          	beqz	a0,0x8688
    8658:	00893783          	0x893783
    865c:	0001a497          	auipc	s1,0x1a
    8660:	ca448493          	addi	s1,s1,-860 # 0x22300
    8664:	02078263          	beqz	a5,0x8688
    8668:	0007b503          	0x7b503
    866c:	000a8593          	mv	a1,s5
    8670:	0001a497          	auipc	s1,0x1a
    8674:	c8848493          	addi	s1,s1,-888 # 0x222f8
    8678:	f55f70ef          	jal	ra,0x5cc
    867c:	00050663          	beqz	a0,0x8688
    8680:	0001a497          	auipc	s1,0x1a
    8684:	c8048493          	addi	s1,s1,-896 # 0x22300
    8688:	019000ef          	jal	ra,0x8ea0
    868c:	f4848ae3          	beq	s1,s0,0x85e0
    8690:	0004b783          	0x4b783
    8694:	00078663          	beqz	a5,0x86a0
    8698:	0187b783          	0x187b783
    869c:	00079663          	bnez	a5,0x86a8
    86a0:	fda00513          	li	a0,-38
    86a4:	f41ff06f          	j	0x85e4
    86a8:	000b0593          	mv	a1,s6
    86ac:	00000513          	li	a0,0
    86b0:	2f5000ef          	jal	ra,0x91a4
    86b4:	00050a13          	mv	s4,a0
    86b8:	00051663          	bnez	a0,0x86c4
    86bc:	fec00513          	li	a0,-20
    86c0:	f25ff06f          	j	0x85e4
    86c4:	00006597          	auipc	a1,0x6
    86c8:	59458593          	addi	a1,a1,1428 # 0xec58
    86cc:	f01f70ef          	jal	ra,0x5cc
    86d0:	04050063          	beqz	a0,0x8710
    86d4:	00007597          	auipc	a1,0x7
    86d8:	89458593          	addi	a1,a1,-1900 # 0xef68
    86dc:	000a0513          	mv	a0,s4
    86e0:	eedf70ef          	jal	ra,0x5cc
    86e4:	02050663          	beqz	a0,0x8710
    86e8:	00010637          	lui	a2,0x10
    86ec:	000a0593          	mv	a1,s4
    86f0:	00810513          	addi	a0,sp,8
    86f4:	85dfe0ef          	jal	ra,0x6f50
    86f8:	00055863          	bgez	a0,0x8708
    86fc:	000a0513          	mv	a0,s4
    8700:	d59f80ef          	jal	ra,0x1458
    8704:	fb9ff06f          	j	0x86bc
    8708:	00810513          	addi	a0,sp,8
    870c:	9a1fe0ef          	jal	ra,0x70ac
    8710:	724000ef          	jal	ra,0x8e34
    8714:	00000413          	li	s0,0
    8718:	0001a917          	auipc	s2,0x1a
    871c:	be890913          	addi	s2,s2,-1048 # 0x22300
    8720:	0001ac97          	auipc	s9,0x1a
    8724:	c20c8c93          	addi	s9,s9,-992 # 0x22340
    8728:	01093783          	0x1093783
    872c:	04079663          	bnez	a5,0x8778
    8730:	00041463          	bnez	s0,0x8738
    8734:	00090413          	mv	s0,s2
    8738:	02090913          	addi	s2,s2,32
    873c:	ff9916e3          	bne	s2,s9,0x8728
    8740:	06041063          	bnez	s0,0x87a0
    8744:	fe400513          	li	a0,-28
    8748:	cb1f90ef          	jal	ra,0x23f8
    874c:	00006517          	auipc	a0,0x6
    8750:	5a450513          	addi	a0,a0,1444 # 0xecf0
    8754:	eb4fa0ef          	jal	ra,0x2e08
    8758:	000a8593          	mv	a1,s5
    875c:	00007517          	auipc	a0,0x7
    8760:	81450513          	addi	a0,a0,-2028 # 0xef70
    8764:	ea4fa0ef          	jal	ra,0x2e08
    8768:	00007517          	auipc	a0,0x7
    876c:	e4050513          	addi	a0,a0,-448 # 0xf5a8
    8770:	e98fa0ef          	jal	ra,0x2e08
    8774:	01c0006f          	j	0x8790
    8778:	00893503          	0x893503
    877c:	000b0593          	mv	a1,s6
    8780:	e4df70ef          	jal	ra,0x5cc
    8784:	fa051ae3          	bnez	a0,0x8738
    8788:	fea00513          	li	a0,-22
    878c:	c6df90ef          	jal	ra,0x23f8
    8790:	710000ef          	jal	ra,0x8ea0
    8794:	000a0513          	mv	a0,s4
    8798:	cc1f80ef          	jal	ra,0x1458
    879c:	e4dff06f          	j	0x85e8
    87a0:	0004b783          	0x4b783
    87a4:	01443423          	0x1443423
    87a8:	01343023          	0x1343023
    87ac:	00f43823          	0xf43823
    87b0:	6f0000ef          	jal	ra,0x8ea0
    87b4:	02098663          	beqz	s3,0x87e0
    87b8:	00043503          	0x43503
    87bc:	00300593          	li	a1,3
    87c0:	a3dfb0ef          	jal	ra,0x41fc
    87c4:	00050e63          	beqz	a0,0x87e0
    87c8:	66c000ef          	jal	ra,0x8e34
    87cc:	02000613          	li	a2,32
    87d0:	00000593          	li	a1,0
    87d4:	00040513          	mv	a0,s0
    87d8:	dfdf70ef          	jal	ra,0x5d4
    87dc:	fb5ff06f          	j	0x8790
    87e0:	0004b783          	0x4b783
    87e4:	000c0613          	mv	a2,s8
    87e8:	000b8593          	mv	a1,s7
    87ec:	0187b783          	0x187b783
    87f0:	00040513          	mv	a0,s0
    87f4:	000780e7          	jalr	a5
    87f8:	00000793          	li	a5,0
    87fc:	de0558e3          	bgez	a0,0x85ec
    8800:	fc0984e3          	beqz	s3,0x87c8
    8804:	00043503          	0x43503
    8808:	b4dfb0ef          	jal	ra,0x4354
    880c:	fbdff06f          	j	0x87c8
    8810:	fe010113          	addi	sp,sp,-32
    8814:	00050593          	mv	a1,a0
    8818:	00000513          	li	a0,0
    881c:	00113c23          	0x113c23
    8820:	00813823          	0x813823
    8824:	00913423          	0x913423
    8828:	01213023          	0x1213023
    882c:	179000ef          	jal	ra,0x91a4
    8830:	02051463          	bnez	a0,0x8858
    8834:	fec00513          	li	a0,-20
    8838:	bc1f90ef          	jal	ra,0x23f8
    883c:	fff00513          	li	a0,-1
    8840:	01813083          	0x1813083
    8844:	01013403          	0x1013403
    8848:	00813483          	0x813483
    884c:	00013903          	0x13903
    8850:	02010113          	addi	sp,sp,32
    8854:	00008067          	ret
    8858:	00050493          	mv	s1,a0
    885c:	0001a417          	auipc	s0,0x1a
    8860:	aa440413          	addi	s0,s0,-1372 # 0x22300
    8864:	5d0000ef          	jal	ra,0x8e34
    8868:	00843503          	0x843503
    886c:	00040913          	mv	s2,s0
    8870:	00050863          	beqz	a0,0x8880
    8874:	00048593          	mv	a1,s1
    8878:	d55f70ef          	jal	ra,0x5cc
    887c:	02050863          	beqz	a0,0x88ac
    8880:	02893503          	0x2893503
    8884:	00050863          	beqz	a0,0x8894
    8888:	00048593          	mv	a1,s1
    888c:	d41f70ef          	jal	ra,0x5cc
    8890:	00050a63          	beqz	a0,0x88a4
    8894:	60c000ef          	jal	ra,0x8ea0
    8898:	00048513          	mv	a0,s1
    889c:	bbdf80ef          	jal	ra,0x1458
    88a0:	f9dff06f          	j	0x883c
    88a4:	0001a417          	auipc	s0,0x1a
    88a8:	a7c40413          	addi	s0,s0,-1412 # 0x22320
    88ac:	01043783          	0x1043783
    88b0:	0207b783          	0x207b783
    88b4:	fe0780e3          	beqz	a5,0x8894
    88b8:	00040513          	mv	a0,s0
    88bc:	000780e7          	jalr	a5
    88c0:	fc054ae3          	bltz	a0,0x8894
    88c4:	00043503          	0x43503
    88c8:	00050463          	beqz	a0,0x88d0
    88cc:	a89fb0ef          	jal	ra,0x4354
    88d0:	00843503          	0x843503
    88d4:	00050463          	beqz	a0,0x88dc
    88d8:	b81f80ef          	jal	ra,0x1458
    88dc:	02000613          	li	a2,32
    88e0:	00000593          	li	a1,0
    88e4:	00040513          	mv	a0,s0
    88e8:	cedf70ef          	jal	ra,0x5d4
    88ec:	5b4000ef          	jal	ra,0x8ea0
    88f0:	00048513          	mv	a0,s1
    88f4:	b65f80ef          	jal	ra,0x1458
    88f8:	00000513          	li	a0,0
    88fc:	f45ff06f          	j	0x8840
    8900:	fd010113          	addi	sp,sp,-48
    8904:	02813023          	0x2813023
    8908:	02113423          	0x2113423
    890c:	00913c23          	0x913c23
    8910:	01213823          	0x1213823
    8914:	01313423          	0x1313423
    8918:	00058413          	mv	s0,a1
    891c:	04059a63          	bnez	a1,0x8970
    8920:	fed00513          	li	a0,-19
    8924:	ad5f90ef          	jal	ra,0x23f8
    8928:	00006517          	auipc	a0,0x6
    892c:	3c850513          	addi	a0,a0,968 # 0xecf0
    8930:	cd8fa0ef          	jal	ra,0x2e08
    8934:	00040593          	mv	a1,s0
    8938:	00006517          	auipc	a0,0x6
    893c:	67050513          	addi	a0,a0,1648 # 0xefa8
    8940:	cc8fa0ef          	jal	ra,0x2e08
    8944:	00007517          	auipc	a0,0x7
    8948:	c6450513          	addi	a0,a0,-924 # 0xf5a8
    894c:	cbcfa0ef          	jal	ra,0x2e08
    8950:	02813083          	0x2813083
    8954:	02013403          	0x2013403
    8958:	01813483          	0x1813483
    895c:	01013903          	0x1013903
    8960:	00813983          	0x813983
    8964:	fff00513          	li	a0,-1
    8968:	03010113          	addi	sp,sp,48
    896c:	00008067          	ret
    8970:	00050913          	mv	s2,a0
    8974:	00058513          	mv	a0,a1
    8978:	805fb0ef          	jal	ra,0x417c
    897c:	00050993          	mv	s3,a0
    8980:	fa0500e3          	beqz	a0,0x8920
    8984:	4b0000ef          	jal	ra,0x8e34
    8988:	0001a417          	auipc	s0,0x1a
    898c:	96840413          	addi	s0,s0,-1688 # 0x222f0
    8990:	00043783          	0x43783
    8994:	06078263          	beqz	a5,0x89f8
    8998:	0007b503          	0x7b503
    899c:	00090593          	mv	a1,s2
    89a0:	c2df70ef          	jal	ra,0x5cc
    89a4:	00050493          	mv	s1,a0
    89a8:	04051863          	bnez	a0,0x89f8
    89ac:	4f4000ef          	jal	ra,0x8ea0
    89b0:	00349493          	slli	s1,s1,0x3
    89b4:	00940433          	add	s0,s0,s1
    89b8:	00043783          	0x43783
    89bc:	0287b303          	0x287b303
    89c0:	06031e63          	bnez	t1,0x8a3c
    89c4:	00006517          	auipc	a0,0x6
    89c8:	32c50513          	addi	a0,a0,812 # 0xecf0
    89cc:	c3cfa0ef          	jal	ra,0x2e08
    89d0:	00090593          	mv	a1,s2
    89d4:	00006517          	auipc	a0,0x6
    89d8:	61450513          	addi	a0,a0,1556 # 0xefe8
    89dc:	c2cfa0ef          	jal	ra,0x2e08
    89e0:	00007517          	auipc	a0,0x7
    89e4:	bc850513          	addi	a0,a0,-1080 # 0xf5a8
    89e8:	c20fa0ef          	jal	ra,0x2e08
    89ec:	fda00513          	li	a0,-38
    89f0:	a09f90ef          	jal	ra,0x23f8
    89f4:	f5dff06f          	j	0x8950
    89f8:	00843783          	0x843783
    89fc:	02078063          	beqz	a5,0x8a1c
    8a00:	0007b503          	0x7b503
    8a04:	00090593          	mv	a1,s2
    8a08:	bc5f70ef          	jal	ra,0x5cc
    8a0c:	00051863          	bnez	a0,0x8a1c
    8a10:	490000ef          	jal	ra,0x8ea0
    8a14:	00100493          	li	s1,1
    8a18:	f99ff06f          	j	0x89b0
    8a1c:	484000ef          	jal	ra,0x8ea0
    8a20:	00006517          	auipc	a0,0x6
    8a24:	2d050513          	addi	a0,a0,720 # 0xecf0
    8a28:	be0fa0ef          	jal	ra,0x2e08
    8a2c:	00090593          	mv	a1,s2
    8a30:	00006517          	auipc	a0,0x6
    8a34:	59850513          	addi	a0,a0,1432 # 0xefc8
    8a38:	f09ff06f          	j	0x8940
    8a3c:	02013403          	0x2013403
    8a40:	02813083          	0x2813083
    8a44:	01813483          	0x1813483
    8a48:	01013903          	0x1013903
    8a4c:	00098513          	mv	a0,s3
    8a50:	00813983          	0x813983
    8a54:	03010113          	addi	sp,sp,48
    8a58:	00030067          	jr	t1
    8a5c:	ea5ff06f          	j	0x8900
    8a60:	fe010113          	addi	sp,sp,-32
    8a64:	00113c23          	0x113c23
    8a68:	00b13423          	0xb13423
    8a6c:	9fdff0ef          	jal	ra,0x8468
    8a70:	02050063          	beqz	a0,0x8a90
    8a74:	01053783          	0x1053783
    8a78:	0307b303          	0x307b303
    8a7c:	00030a63          	beqz	t1,0x8a90
    8a80:	00813583          	0x813583
    8a84:	01813083          	0x1813083
    8a88:	02010113          	addi	sp,sp,32
    8a8c:	00030067          	jr	t1
    8a90:	01813083          	0x1813083
    8a94:	fff00513          	li	a0,-1
    8a98:	02010113          	addi	sp,sp,32
    8a9c:	00008067          	ret
    8aa0:	fb010113          	addi	sp,sp,-80
    8aa4:	00006797          	auipc	a5,0x6
    8aa8:	46c78793          	addi	a5,a5,1132 # 0xef10
    8aac:	02f13423          	0x2f13423
    8ab0:	00006797          	auipc	a5,0x6
    8ab4:	46878793          	addi	a5,a5,1128 # 0xef18
    8ab8:	02f13823          	0x2f13823
    8abc:	01010593          	addi	a1,sp,16
    8ac0:	00006797          	auipc	a5,0x6
    8ac4:	46078793          	addi	a5,a5,1120 # 0xef20
    8ac8:	04113423          	0x4113423
    8acc:	04813023          	0x4813023
    8ad0:	02f13c23          	0x2f13c23
    8ad4:	f8dff0ef          	jal	ra,0x8a60
    8ad8:	02050463          	beqz	a0,0x8b00
    8adc:	00006517          	auipc	a0,0x6
    8ae0:	54450513          	addi	a0,a0,1348 # 0xf020
    8ae4:	b24fa0ef          	jal	ra,0x2e08
    8ae8:	fff00413          	li	s0,-1
    8aec:	04813083          	0x4813083
    8af0:	00040513          	mv	a0,s0
    8af4:	04013403          	0x4013403
    8af8:	05010113          	addi	sp,sp,80
    8afc:	00008067          	ret
    8b00:	01013783          	0x1013783
    8b04:	02013703          	0x2013703
    8b08:	00050413          	mv	s0,a0
    8b0c:	00078513          	mv	a0,a5
    8b10:	00070593          	mv	a1,a4
    8b14:	00e13423          	0xe13423
    8b18:	00f13023          	0xf13023
    8b1c:	f88f70ef          	jal	ra,0x2a4
    8b20:	43f55693          	srai	a3,a0,0x3f
    8b24:	3ff6f693          	andi	a3,a3,1023
    8b28:	00a686b3          	add	a3,a3,a0
    8b2c:	00100637          	lui	a2,0x100
    8b30:	00013783          	0x13783
    8b34:	00813703          	0x813703
    8b38:	40a6d593          	srai	a1,a3,0xa
    8b3c:	06c54263          	blt	a0,a2,0x8ba0
    8b40:	4146d813          	srai	a6,a3,0x14
    8b44:	3ff00613          	li	a2,1023
    8b48:	03064e63          	blt	a2,a6,0x8b84
    8b4c:	3ff5f693          	andi	a3,a1,1023
    8b50:	00269613          	slli	a2,a3,0x2
    8b54:	00d60633          	add	a2,a2,a3
    8b58:	00965613          	srli	a2,a2,0x9
    8b5c:	00080593          	mv	a1,a6
    8b60:	00100693          	li	a3,1
    8b64:	04010513          	addi	a0,sp,64
    8b68:	00369693          	slli	a3,a3,0x3
    8b6c:	00d506b3          	add	a3,a0,a3
    8b70:	fe86b683          	0xfe86b683
    8b74:	00006517          	auipc	a0,0x6
    8b78:	4c450513          	addi	a0,a0,1220 # 0xf038
    8b7c:	a8cfa0ef          	jal	ra,0x2e08
    8b80:	f6dff06f          	j	0x8aec
    8b84:	3ff87813          	andi	a6,a6,1023
    8b88:	00281613          	slli	a2,a6,0x2
    8b8c:	01060633          	add	a2,a2,a6
    8b90:	41e6d593          	srai	a1,a3,0x1e
    8b94:	00965613          	srli	a2,a2,0x9
    8b98:	00200693          	li	a3,2
    8b9c:	fc9ff06f          	j	0x8b64
    8ba0:	00000693          	li	a3,0
    8ba4:	00000613          	li	a2,0
    8ba8:	fbdff06f          	j	0x8b64
    8bac:	fa010113          	addi	sp,sp,-96
    8bb0:	04113c23          	0x4113c23
    8bb4:	04913423          	0x4913423
    8bb8:	05213023          	0x5213023
    8bbc:	03313c23          	0x3313c23
    8bc0:	03413823          	0x3413823
    8bc4:	03513423          	0x3513423
    8bc8:	03613023          	0x3613023
    8bcc:	01713c23          	0x1713c23
    8bd0:	01813823          	0x1813823
    8bd4:	01913423          	0x1913423
    8bd8:	04813823          	0x4813823
    8bdc:	dd5f70ef          	jal	ra,0x9b0
    8be0:	00006517          	auipc	a0,0x6
    8be4:	4e050513          	addi	a0,a0,1248 # 0xf0c0
    8be8:	a20fa0ef          	jal	ra,0x2e08
    8bec:	00006517          	auipc	a0,0x6
    8bf0:	4f450513          	addi	a0,a0,1268 # 0xf0e0
    8bf4:	a14fa0ef          	jal	ra,0x2e08
    8bf8:	00000493          	li	s1,0
    8bfc:	00019917          	auipc	s2,0x19
    8c00:	6e490913          	addi	s2,s2,1764 # 0x222e0
    8c04:	00006997          	auipc	s3,0x6
    8c08:	4fc98993          	addi	s3,s3,1276 # 0xf100
    8c0c:	00200a13          	li	s4,2
    8c10:	00006a97          	auipc	s5,0x6
    8c14:	538a8a93          	addi	s5,s5,1336 # 0xf148
    8c18:	00006b17          	auipc	s6,0x6
    8c1c:	538b0b13          	addi	s6,s6,1336 # 0xf150
    8c20:	00007b97          	auipc	s7,0x7
    8c24:	988b8b93          	addi	s7,s7,-1656 # 0xf5a8
    8c28:	00008c17          	auipc	s8,0x8
    8c2c:	cb0c0c13          	addi	s8,s8,-848 # 0x108d8
    8c30:	00100c93          	li	s9,1
    8c34:	00092703          	lw	a4,0(s2)
    8c38:	0004879b          	0x4879b
    8c3c:	04e7c063          	blt	a5,a4,0x8c7c
    8c40:	d9df70ef          	jal	ra,0x9dc
    8c44:	05813083          	0x5813083
    8c48:	05013403          	0x5013403
    8c4c:	04813483          	0x4813483
    8c50:	04013903          	0x4013903
    8c54:	03813983          	0x3813983
    8c58:	03013a03          	0x3013a03
    8c5c:	02813a83          	0x2813a83
    8c60:	02013b03          	0x2013b03
    8c64:	01813b83          	0x1813b83
    8c68:	01013c03          	0x1013c03
    8c6c:	00813c83          	0x813c83
    8c70:	00000513          	li	a0,0
    8c74:	06010113          	addi	sp,sp,96
    8c78:	00008067          	ret
    8c7c:	00893783          	0x893783
    8c80:	00349713          	slli	a4,s1,0x3
    8c84:	00e787b3          	add	a5,a5,a4
    8c88:	0007b403          	0x7b403
    8c8c:	08040c63          	beqz	s0,0x8d24
    8c90:	02043783          	0x2043783
    8c94:	08078863          	beqz	a5,0x8d24
    8c98:	0034859b          	0x34859b
    8c9c:	00098513          	mv	a0,s3
    8ca0:	968fa0ef          	jal	ra,0x2e08
    8ca4:	00245703          	lhu	a4,2(s0)
    8ca8:	00006597          	auipc	a1,0x6
    8cac:	46058593          	addi	a1,a1,1120 # 0xf108
    8cb0:	0007079b          	0x7079b
    8cb4:	03470e63          	beq	a4,s4,0x8cf0
    8cb8:	00006597          	auipc	a1,0x6
    8cbc:	46058593          	addi	a1,a1,1120 # 0xf118
    8cc0:	02070863          	beqz	a4,0x8cf0
    8cc4:	00006597          	auipc	a1,0x6
    8cc8:	45c58593          	addi	a1,a1,1116 # 0xf120
    8ccc:	03978263          	beq	a5,s9,0x8cf0
    8cd0:	00300713          	li	a4,3
    8cd4:	00006597          	auipc	a1,0x6
    8cd8:	45458593          	addi	a1,a1,1108 # 0xf128
    8cdc:	00e78a63          	beq	a5,a4,0x8cf0
    8ce0:	00400713          	li	a4,4
    8ce4:	04e79463          	bne	a5,a4,0x8d2c
    8ce8:	00006597          	auipc	a1,0x6
    8cec:	44858593          	addi	a1,a1,1096 # 0xf130
    8cf0:	00006517          	auipc	a0,0x6
    8cf4:	42050513          	addi	a0,a0,1056 # 0xf110
    8cf8:	910fa0ef          	jal	ra,0x2e08
    8cfc:	01042583          	lw	a1,16(s0)
    8d00:	000a8513          	mv	a0,s5
    8d04:	904fa0ef          	jal	ra,0x2e08
    8d08:	00045583          	lhu	a1,0(s0)
    8d0c:	000b0513          	mv	a0,s6
    8d10:	8f8fa0ef          	jal	ra,0x2e08
    8d14:	00843583          	0x843583
    8d18:	02058463          	beqz	a1,0x8d40
    8d1c:	000c0513          	mv	a0,s8
    8d20:	8e8fa0ef          	jal	ra,0x2e08
    8d24:	00148493          	addi	s1,s1,1
    8d28:	f0dff06f          	j	0x8c34
    8d2c:	00006597          	auipc	a1,0x6
    8d30:	40c58593          	addi	a1,a1,1036 # 0xf138
    8d34:	00006517          	auipc	a0,0x6
    8d38:	40c50513          	addi	a0,a0,1036 # 0xf140
    8d3c:	fbdff06f          	j	0x8cf8
    8d40:	000b8513          	mv	a0,s7
    8d44:	8c4fa0ef          	jal	ra,0x2e08
    8d48:	fddff06f          	j	0x8d24
    8d4c:	fe010113          	addi	sp,sp,-32
    8d50:	00813823          	0x813823
    8d54:	00010417          	auipc	s0,0x10
    8d58:	57c40413          	addi	s0,s0,1404 # 0x192d0
    8d5c:	00042783          	lw	a5,0(s0)
    8d60:	00113c23          	0x113c23
    8d64:	00913423          	0x913423
    8d68:	02078463          	beqz	a5,0x8d90
    8d6c:	00006517          	auipc	a0,0x6
    8d70:	3ec50513          	addi	a0,a0,1004 # 0xf158
    8d74:	894fa0ef          	jal	ra,0x2e08
    8d78:	01813083          	0x1813083
    8d7c:	01013403          	0x1013403
    8d80:	00813483          	0x813483
    8d84:	00000513          	li	a0,0
    8d88:	02010113          	addi	sp,sp,32
    8d8c:	00008067          	ret
    8d90:	01000613          	li	a2,16
    8d94:	00000593          	li	a1,0
    8d98:	00019517          	auipc	a0,0x19
    8d9c:	55850513          	addi	a0,a0,1368 # 0x222f0
    8da0:	835f70ef          	jal	ra,0x5d4
    8da4:	04000613          	li	a2,64
    8da8:	00000593          	li	a1,0
    8dac:	00019517          	auipc	a0,0x19
    8db0:	55450513          	addi	a0,a0,1364 # 0x22300
    8db4:	821f70ef          	jal	ra,0x5d4
    8db8:	01000613          	li	a2,16
    8dbc:	00000593          	li	a1,0
    8dc0:	00019517          	auipc	a0,0x19
    8dc4:	52050513          	addi	a0,a0,1312 # 0x222e0
    8dc8:	80df70ef          	jal	ra,0x5d4
    8dcc:	00000613          	li	a2,0
    8dd0:	00006597          	auipc	a1,0x6
    8dd4:	3a058593          	addi	a1,a1,928 # 0xf170
    8dd8:	00019517          	auipc	a0,0x19
    8ddc:	56850513          	addi	a0,a0,1384 # 0x22340
    8de0:	f55fb0ef          	jal	ra,0x4d34
    8de4:	00008497          	auipc	s1,0x8
    8de8:	2bc48493          	addi	s1,s1,700 # 0x110a0
    8dec:	10000613          	li	a2,256
    8df0:	00000593          	li	a1,0
    8df4:	00048513          	mv	a0,s1
    8df8:	fdcf70ef          	jal	ra,0x5d4
    8dfc:	02f00793          	li	a5,47
    8e00:	00f48023          	sb	a5,0(s1)
    8e04:	439000ef          	jal	ra,0x9a3c
    8e08:	00000713          	li	a4,0
    8e0c:	00000693          	li	a3,0
    8e10:	00006617          	auipc	a2,0x6
    8e14:	36860613          	addi	a2,a2,872 # 0xf178
    8e18:	00006597          	auipc	a1,0x6
    8e1c:	15058593          	addi	a1,a1,336 # 0xef68
    8e20:	00000513          	li	a0,0
    8e24:	f6cff0ef          	jal	ra,0x8590
    8e28:	00100793          	li	a5,1
    8e2c:	00f42023          	sw	a5,0(s0)
    8e30:	f49ff06f          	j	0x8d78
    8e34:	fe010113          	addi	sp,sp,-32
    8e38:	00813823          	0x813823
    8e3c:	00913423          	0x913423
    8e40:	00113c23          	0x113c23
    8e44:	00019497          	auipc	s1,0x19
    8e48:	4fc48493          	addi	s1,s1,1276 # 0x22340
    8e4c:	ff900413          	li	s0,-7
    8e50:	fff00593          	li	a1,-1
    8e54:	00048513          	mv	a0,s1
    8e58:	f5dfb0ef          	jal	ra,0x4db4
    8e5c:	fe850ae3          	beq	a0,s0,0x8e50
    8e60:	02050663          	beqz	a0,0x8e8c
    8e64:	01013403          	0x1013403
    8e68:	01813083          	0x1813083
    8e6c:	00813483          	0x813483
    8e70:	06b00613          	li	a2,107
    8e74:	00006597          	auipc	a1,0x6
    8e78:	37c58593          	addi	a1,a1,892 # 0xf1f0
    8e7c:	00004517          	auipc	a0,0x4
    8e80:	4a450513          	addi	a0,a0,1188 # 0xd320
    8e84:	02010113          	addi	sp,sp,32
    8e88:	90cfa06f          	j	0x2f94
    8e8c:	01813083          	0x1813083
    8e90:	01013403          	0x1013403
    8e94:	00813483          	0x813483
    8e98:	02010113          	addi	sp,sp,32
    8e9c:	00008067          	ret
    8ea0:	00019517          	auipc	a0,0x19
    8ea4:	4a050513          	addi	a0,a0,1184 # 0x22340
    8ea8:	938fc06f          	j	0x4fe0
    8eac:	fd010113          	addi	sp,sp,-48
    8eb0:	02813023          	0x2813023
    8eb4:	02113423          	0x2113423
    8eb8:	00019417          	auipc	s0,0x19
    8ebc:	42840413          	addi	s0,s0,1064 # 0x222e0
    8ec0:	00913c23          	0x913c23
    8ec4:	01213823          	0x1213823
    8ec8:	01313423          	0x1313423
    8ecc:	f69ff0ef          	jal	ra,0x8e34
    8ed0:	00042683          	lw	a3,0(s0)
    8ed4:	00843503          	0x843503
    8ed8:	00000793          	li	a5,0
    8edc:	0006861b          	0x6861b
    8ee0:	0007891b          	0x7891b
    8ee4:	02c95063          	bge	s2,a2,0x8f04
    8ee8:	00379713          	slli	a4,a5,0x3
    8eec:	00e50733          	add	a4,a0,a4
    8ef0:	00073703          	0x73703
    8ef4:	00070863          	beqz	a4,0x8f04
    8ef8:	01072703          	lw	a4,16(a4) # 0x4010
    8efc:	00178793          	addi	a5,a5,1
    8f00:	fe0710e3          	bnez	a4,0x8ee0
    8f04:	05269063          	bne	a3,s2,0x8f44
    8f08:	01f00793          	li	a5,31
    8f0c:	0327ec63          	bltu	a5,s2,0x8f44
    8f10:	0049071b          	0x49071b
    8f14:	02000793          	li	a5,32
    8f18:	00070493          	mv	s1,a4
    8f1c:	00e7d463          	bge	a5,a4,0x8f24
    8f20:	02000493          	li	s1,32
    8f24:	00349593          	slli	a1,s1,0x3
    8f28:	f40f80ef          	jal	ra,0x1668
    8f2c:	04050c63          	beqz	a0,0x8f84
    8f30:	00042783          	lw	a5,0(s0)
    8f34:	0007871b          	0x7871b
    8f38:	0a974063          	blt	a4,s1,0x8fd8
    8f3c:	00a43423          	0xa43423
    8f40:	00942023          	sw	s1,0(s0)
    8f44:	00042783          	lw	a5,0(s0)
    8f48:	02f95e63          	bge	s2,a5,0x8f84
    8f4c:	00843483          	0x843483
    8f50:	00391993          	slli	s3,s2,0x3
    8f54:	013484b3          	add	s1,s1,s3
    8f58:	0004b783          	0x4b783
    8f5c:	02079463          	bnez	a5,0x8f84
    8f60:	04800593          	li	a1,72
    8f64:	00100513          	li	a0,1
    8f68:	cb0f80ef          	jal	ra,0x1418
    8f6c:	00843783          	0x843783
    8f70:	00a4b023          	0xa4b023
    8f74:	013787b3          	add	a5,a5,s3
    8f78:	0007b783          	0x7b783
    8f7c:	00079463          	bnez	a5,0x8f84
    8f80:	00042903          	lw	s2,0(s0)
    8f84:	00042783          	lw	a5,0(s0)
    8f88:	07279263          	bne	a5,s2,0x8fec
    8f8c:	00006517          	auipc	a0,0x6
    8f90:	d6450513          	addi	a0,a0,-668 # 0xecf0
    8f94:	e75f90ef          	jal	ra,0x2e08
    8f98:	00006517          	auipc	a0,0x6
    8f9c:	1e850513          	addi	a0,a0,488 # 0xf180
    8fa0:	e69f90ef          	jal	ra,0x2e08
    8fa4:	00006517          	auipc	a0,0x6
    8fa8:	60450513          	addi	a0,a0,1540 # 0xf5a8
    8fac:	e5df90ef          	jal	ra,0x2e08
    8fb0:	ffc00913          	li	s2,-4
    8fb4:	eedff0ef          	jal	ra,0x8ea0
    8fb8:	02813083          	0x2813083
    8fbc:	02013403          	0x2013403
    8fc0:	01813483          	0x1813483
    8fc4:	00813983          	0x813983
    8fc8:	0039051b          	0x39051b
    8fcc:	01013903          	0x1013903
    8fd0:	03010113          	addi	sp,sp,48
    8fd4:	00008067          	ret
    8fd8:	00379713          	slli	a4,a5,0x3
    8fdc:	00e50733          	add	a4,a0,a4
    8fe0:	00073023          	0x73023
    8fe4:	00178793          	addi	a5,a5,1
    8fe8:	f4dff06f          	j	0x8f34
    8fec:	00843783          	0x843783
    8ff0:	00391713          	slli	a4,s2,0x3
    8ff4:	00e787b3          	add	a5,a5,a4
    8ff8:	0007b783          	0x7b783
    8ffc:	00100713          	li	a4,1
    9000:	00e7a823          	sw	a4,16(a5)
    9004:	dfd00713          	li	a4,-515
    9008:	00e79023          	sh	a4,0(a5)
    900c:	fa9ff06f          	j	0x8fb4
    9010:	fe010113          	addi	sp,sp,-32
    9014:	00913423          	0x913423
    9018:	00113c23          	0x113c23
    901c:	00813823          	0x813823
    9020:	01213023          	0x1213023
    9024:	ffd5049b          	0xffd5049b
    9028:	0404c263          	bltz	s1,0x906c
    902c:	00019917          	auipc	s2,0x19
    9030:	2b490913          	addi	s2,s2,692 # 0x222e0
    9034:	00092783          	lw	a5,0(s2)
    9038:	00000413          	li	s0,0
    903c:	04f4d463          	bge	s1,a5,0x9084
    9040:	df5ff0ef          	jal	ra,0x8e34
    9044:	00893503          	0x893503
    9048:	00349493          	slli	s1,s1,0x3
    904c:	009504b3          	add	s1,a0,s1
    9050:	0004b403          	0x4b403
    9054:	00040a63          	beqz	s0,0x9068
    9058:	00045703          	lhu	a4,0(s0)
    905c:	000107b7          	lui	a5,0x10
    9060:	dfd78793          	addi	a5,a5,-515 # 0xfdfd
    9064:	00f70863          	beq	a4,a5,0x9074
    9068:	e39ff0ef          	jal	ra,0x8ea0
    906c:	00000413          	li	s0,0
    9070:	0140006f          	j	0x9084
    9074:	01042783          	lw	a5,16(s0)
    9078:	0017879b          	0x17879b
    907c:	00f42823          	sw	a5,16(s0)
    9080:	e21ff0ef          	jal	ra,0x8ea0
    9084:	01813083          	0x1813083
    9088:	00040513          	mv	a0,s0
    908c:	01013403          	0x1013403
    9090:	00813483          	0x813483
    9094:	00013903          	0x13903
    9098:	02010113          	addi	sp,sp,32
    909c:	00008067          	ret
    90a0:	fe010113          	addi	sp,sp,-32
    90a4:	00813823          	0x813823
    90a8:	00113c23          	0x113c23
    90ac:	00913423          	0x913423
    90b0:	01213023          	0x1213023
    90b4:	00050413          	mv	s0,a0
    90b8:	00051e63          	bnez	a0,0x90d4
    90bc:	0fd00613          	li	a2,253
    90c0:	00008597          	auipc	a1,0x8
    90c4:	ea858593          	addi	a1,a1,-344 # 0x10f68
    90c8:	00006517          	auipc	a0,0x6
    90cc:	0f850513          	addi	a0,a0,248 # 0xf1c0
    90d0:	ec5f90ef          	jal	ra,0x2f94
    90d4:	d61ff0ef          	jal	ra,0x8e34
    90d8:	01042783          	lw	a5,16(s0)
    90dc:	fff7871b          	0xfff7871b
    90e0:	00e42823          	sw	a4,16(s0)
    90e4:	04071663          	bnez	a4,0x9130
    90e8:	00019797          	auipc	a5,0x19
    90ec:	1f878793          	addi	a5,a5,504 # 0x222e0
    90f0:	0007a603          	lw	a2,0(a5)
    90f4:	0087b583          	0x87b583
    90f8:	00078493          	mv	s1,a5
    90fc:	0007079b          	0x7079b
    9100:	02c7d863          	bge	a5,a2,0x9130
    9104:	00371913          	slli	s2,a4,0x3
    9108:	00890693          	addi	a3,s2,8
    910c:	00d586b3          	add	a3,a1,a3
    9110:	ff86b783          	0xff86b783
    9114:	00170713          	addi	a4,a4,1
    9118:	fe8792e3          	bne	a5,s0,0x90fc
    911c:	00040513          	mv	a0,s0
    9120:	b38f80ef          	jal	ra,0x1458
    9124:	0084b783          	0x84b783
    9128:	012787b3          	add	a5,a5,s2
    912c:	0007b023          	0x7b023
    9130:	01013403          	0x1013403
    9134:	01813083          	0x1813083
    9138:	00813483          	0x813483
    913c:	00013903          	0x13903
    9140:	02010113          	addi	sp,sp,32
    9144:	d5dff06f          	j	0x8ea0
    9148:	fe010113          	addi	sp,sp,-32
    914c:	00813823          	0x813823
    9150:	00913423          	0x913423
    9154:	00113c23          	0x113c23
    9158:	00058493          	mv	s1,a1
    915c:	c0cf70ef          	jal	ra,0x568
    9160:	00050413          	mv	s0,a0
    9164:	00048513          	mv	a0,s1
    9168:	c00f70ef          	jal	ra,0x568
    916c:	02a40863          	beq	s0,a0,0x919c
    9170:	00848533          	add	a0,s1,s0
    9174:	00054703          	lbu	a4,0(a0)
    9178:	02f00793          	li	a5,47
    917c:	00f70663          	beq	a4,a5,0x9188
    9180:	00a48463          	beq	s1,a0,0x9188
    9184:	fff50513          	addi	a0,a0,-1
    9188:	01813083          	0x1813083
    918c:	01013403          	0x1013403
    9190:	00813483          	0x813483
    9194:	02010113          	addi	sp,sp,32
    9198:	00008067          	ret
    919c:	00000513          	li	a0,0
    91a0:	fe9ff06f          	j	0x9188
    91a4:	fd010113          	addi	sp,sp,-48
    91a8:	00913c23          	0x913c23
    91ac:	01213823          	0x1213823
    91b0:	02113423          	0x2113423
    91b4:	02813023          	0x2813023
    91b8:	01313423          	0x1313423
    91bc:	00050913          	mv	s2,a0
    91c0:	00058493          	mv	s1,a1
    91c4:	00059e63          	bnez	a1,0x91e0
    91c8:	17c00613          	li	a2,380
    91cc:	00006597          	auipc	a1,0x6
    91d0:	03458593          	addi	a1,a1,52 # 0xf200
    91d4:	00006517          	auipc	a0,0x6
    91d8:	ffc50513          	addi	a0,a0,-4 # 0xf1d0
    91dc:	db9f90ef          	jal	ra,0x2f94
    91e0:	00091663          	bnez	s2,0x91ec
    91e4:	00008917          	auipc	s2,0x8
    91e8:	ebc90913          	addi	s2,s2,-324 # 0x110a0
    91ec:	0004c703          	lbu	a4,0(s1)
    91f0:	02f00793          	li	a5,47
    91f4:	0cf70c63          	beq	a4,a5,0x92cc
    91f8:	00090513          	mv	a0,s2
    91fc:	b6cf70ef          	jal	ra,0x568
    9200:	00050413          	mv	s0,a0
    9204:	00048513          	mv	a0,s1
    9208:	b60f70ef          	jal	ra,0x568
    920c:	00a40533          	add	a0,s0,a0
    9210:	00250513          	addi	a0,a0,2
    9214:	ef5f70ef          	jal	ra,0x1108
    9218:	00050413          	mv	s0,a0
    921c:	02051463          	bnez	a0,0x9244
    9220:	00000413          	li	s0,0
    9224:	02813083          	0x2813083
    9228:	00040513          	mv	a0,s0
    922c:	02013403          	0x2013403
    9230:	01813483          	0x1813483
    9234:	01013903          	0x1013903
    9238:	00813983          	0x813983
    923c:	03010113          	addi	sp,sp,48
    9240:	00008067          	ret
    9244:	00090513          	mv	a0,s2
    9248:	b20f70ef          	jal	ra,0x568
    924c:	00050993          	mv	s3,a0
    9250:	00048513          	mv	a0,s1
    9254:	b14f70ef          	jal	ra,0x568
    9258:	00a98533          	add	a0,s3,a0
    925c:	00250593          	addi	a1,a0,2
    9260:	00048713          	mv	a4,s1
    9264:	00090693          	mv	a3,s2
    9268:	00006617          	auipc	a2,0x6
    926c:	f8060613          	addi	a2,a2,-128 # 0xf1e8
    9270:	00040513          	mv	a0,s0
    9274:	a99f90ef          	jal	ra,0x2d0c
    9278:	00040713          	mv	a4,s0
    927c:	00040793          	mv	a5,s0
    9280:	02e00513          	li	a0,46
    9284:	02f00613          	li	a2,47
    9288:	00074683          	lbu	a3,0(a4)
    928c:	00a69863          	bne	a3,a0,0x929c
    9290:	00174683          	lbu	a3,1(a4)
    9294:	04069c63          	bnez	a3,0x92ec
    9298:	00170713          	addi	a4,a4,1
    929c:	00074683          	lbu	a3,0(a4)
    92a0:	00170713          	addi	a4,a4,1
    92a4:	00078593          	mv	a1,a5
    92a8:	0a068a63          	beqz	a3,0x935c
    92ac:	00178793          	addi	a5,a5,1
    92b0:	08c69863          	bne	a3,a2,0x9340
    92b4:	00c58023          	sb	a2,0(a1)
    92b8:	00070693          	mv	a3,a4
    92bc:	00074583          	lbu	a1,0(a4)
    92c0:	00170713          	addi	a4,a4,1
    92c4:	fec58ae3          	beq	a1,a2,0x92b8
    92c8:	01c0006f          	j	0x92e4
    92cc:	00048513          	mv	a0,s1
    92d0:	cd0f90ef          	jal	ra,0x27a0
    92d4:	00050413          	mv	s0,a0
    92d8:	fa0510e3          	bnez	a0,0x9278
    92dc:	f45ff06f          	j	0x9220
    92e0:	00040793          	mv	a5,s0
    92e4:	00068713          	mv	a4,a3
    92e8:	fa1ff06f          	j	0x9288
    92ec:	00c69c63          	bne	a3,a2,0x9304
    92f0:	00270693          	addi	a3,a4,2
    92f4:	0006c703          	lbu	a4,0(a3) # 0x4000000
    92f8:	fec716e3          	bne	a4,a2,0x92e4
    92fc:	00168693          	addi	a3,a3,1
    9300:	ff5ff06f          	j	0x92f4
    9304:	f8a69ce3          	bne	a3,a0,0x929c
    9308:	00274683          	lbu	a3,2(a4)
    930c:	00069e63          	bnez	a3,0x9328
    9310:	00270693          	addi	a3,a4,2
    9314:	fff78793          	addi	a5,a5,-1
    9318:	0287fa63          	bgeu	a5,s0,0x934c
    931c:	00040513          	mv	a0,s0
    9320:	938f80ef          	jal	ra,0x1458
    9324:	efdff06f          	j	0x9220
    9328:	f6c69ae3          	bne	a3,a2,0x929c
    932c:	00370693          	addi	a3,a4,3
    9330:	0006c703          	lbu	a4,0(a3)
    9334:	fec710e3          	bne	a4,a2,0x9314
    9338:	00168693          	addi	a3,a3,1
    933c:	ff5ff06f          	j	0x9330
    9340:	fed78fa3          	sb	a3,-1(a5)
    9344:	f59ff06f          	j	0x929c
    9348:	fff78793          	addi	a5,a5,-1
    934c:	f8f40ae3          	beq	s0,a5,0x92e0
    9350:	fff7c703          	lbu	a4,-1(a5)
    9354:	fec71ae3          	bne	a4,a2,0x9348
    9358:	f8dff06f          	j	0x92e4
    935c:	00078023          	sb	zero,0(a5)
    9360:	fff78713          	addi	a4,a5,-1
    9364:	00e40a63          	beq	s0,a4,0x9378
    9368:	fff7c683          	lbu	a3,-1(a5)
    936c:	02f00713          	li	a4,47
    9370:	00e69463          	bne	a3,a4,0x9378
    9374:	fe078fa3          	sb	zero,-1(a5)
    9378:	00044783          	lbu	a5,0(s0)
    937c:	ea0794e3          	bnez	a5,0x9224
    9380:	02f00793          	li	a5,47
    9384:	00f40023          	sb	a5,0(s0)
    9388:	000400a3          	sb	zero,1(s0)
    938c:	e99ff06f          	j	0x9224
    9390:	fc010113          	addi	sp,sp,-64
    9394:	00050593          	mv	a1,a0
    9398:	00000513          	li	a0,0
    939c:	02113c23          	0x2113c23
    93a0:	02813823          	0x2813823
    93a4:	02913423          	0x2913423
    93a8:	03213023          	0x3213023
    93ac:	01313c23          	0x1313c23
    93b0:	01413823          	0x1413823
    93b4:	01513423          	0x1513423
    93b8:	01613023          	0x1613023
    93bc:	de9ff0ef          	jal	ra,0x91a4
    93c0:	00050e63          	beqz	a0,0x93dc
    93c4:	00050413          	mv	s0,a0
    93c8:	8a0ff0ef          	jal	ra,0x8468
    93cc:	00050913          	mv	s2,a0
    93d0:	00051a63          	bnez	a0,0x93e4
    93d4:	00040513          	mv	a0,s0
    93d8:	880f80ef          	jal	ra,0x1458
    93dc:	fff00493          	li	s1,-1
    93e0:	0940006f          	j	0x9474
    93e4:	00853503          	0x853503
    93e8:	02f00793          	li	a5,47
    93ec:	00054703          	lbu	a4,0(a0)
    93f0:	00f71863          	bne	a4,a5,0x9400
    93f4:	00154783          	lbu	a5,1(a0)
    93f8:	00040a13          	mv	s4,s0
    93fc:	00078663          	beqz	a5,0x9408
    9400:	968f70ef          	jal	ra,0x568
    9404:	00a40a33          	add	s4,s0,a0
    9408:	a2dff0ef          	jal	ra,0x8e34
    940c:	00019797          	auipc	a5,0x19
    9410:	ed478793          	addi	a5,a5,-300 # 0x222e0
    9414:	0007aa83          	lw	s5,0(a5)
    9418:	0087bb03          	0x87bb03
    941c:	00000993          	li	s3,0
    9420:	0009879b          	0x9879b
    9424:	0157e663          	bltu	a5,s5,0x9430
    9428:	a79ff0ef          	jal	ra,0x8ea0
    942c:	fa9ff06f          	j	0x93d4
    9430:	00399793          	slli	a5,s3,0x3
    9434:	00fb07b3          	add	a5,s6,a5
    9438:	0007b783          	0x7b783
    943c:	06078263          	beqz	a5,0x94a0
    9440:	0207b703          	0x207b703
    9444:	04070e63          	beqz	a4,0x94a0
    9448:	0087b503          	0x87b503
    944c:	04050a63          	beqz	a0,0x94a0
    9450:	0187b783          	0x187b783
    9454:	05279663          	bne	a5,s2,0x94a0
    9458:	000a0593          	mv	a1,s4
    945c:	970f70ef          	jal	ra,0x5cc
    9460:	00050493          	mv	s1,a0
    9464:	02051e63          	bnez	a0,0x94a0
    9468:	00040513          	mv	a0,s0
    946c:	fedf70ef          	jal	ra,0x1458
    9470:	a31ff0ef          	jal	ra,0x8ea0
    9474:	03813083          	0x3813083
    9478:	03013403          	0x3013403
    947c:	02013903          	0x2013903
    9480:	01813983          	0x1813983
    9484:	01013a03          	0x1013a03
    9488:	00813a83          	0x813a83
    948c:	00013b03          	0x13b03
    9490:	00048513          	mv	a0,s1
    9494:	02813483          	0x2813483
    9498:	04010113          	addi	sp,sp,64
    949c:	00008067          	ret
    94a0:	00198993          	addi	s3,s3,1
    94a4:	f7dff06f          	j	0x9420
    94a8:	00000513          	li	a0,0
    94ac:	00008067          	ret
    94b0:	00000513          	li	a0,0
    94b4:	00008067          	ret
    94b8:	fe010113          	addi	sp,sp,-32
    94bc:	00813823          	0x813823
    94c0:	00913423          	0x913423
    94c4:	01213023          	0x1213023
    94c8:	00113c23          	0x113c23
    94cc:	00050413          	mv	s0,a0
    94d0:	00058493          	mv	s1,a1
    94d4:	00060913          	mv	s2,a2
    94d8:	00051e63          	bnez	a0,0x94f4
    94dc:	02500613          	li	a2,37
    94e0:	00006597          	auipc	a1,0x6
    94e4:	da058593          	addi	a1,a1,-608 # 0xf280
    94e8:	00006517          	auipc	a0,0x6
    94ec:	d5850513          	addi	a0,a0,-680 # 0xf240
    94f0:	aa5f90ef          	jal	ra,0x2f94
    94f4:	04043403          	0x4043403
    94f8:	00041e63          	bnez	s0,0x9514
    94fc:	02900613          	li	a2,41
    9500:	00006597          	auipc	a1,0x6
    9504:	d8058593          	addi	a1,a1,-640 # 0xf280
    9508:	00006517          	auipc	a0,0x6
    950c:	d4850513          	addi	a0,a0,-696 # 0xf250
    9510:	a85f90ef          	jal	ra,0x2f94
    9514:	00090613          	mv	a2,s2
    9518:	00048593          	mv	a1,s1
    951c:	00040513          	mv	a0,s0
    9520:	888fb0ef          	jal	ra,0x45a8
    9524:	01813083          	0x1813083
    9528:	01013403          	0x1013403
    952c:	00813483          	0x813483
    9530:	00013903          	0x13903
    9534:	0005051b          	0x5051b
    9538:	02010113          	addi	sp,sp,32
    953c:	00008067          	ret
    9540:	fd010113          	addi	sp,sp,-48
    9544:	02813023          	0x2813023
    9548:	00913c23          	0x913c23
    954c:	01213823          	0x1213823
    9550:	02113423          	0x2113423
    9554:	01313423          	0x1313423
    9558:	00050413          	mv	s0,a0
    955c:	00058493          	mv	s1,a1
    9560:	00060913          	mv	s2,a2
    9564:	00051e63          	bnez	a0,0x9580
    9568:	03800613          	li	a2,56
    956c:	00006597          	auipc	a1,0x6
    9570:	d2c58593          	addi	a1,a1,-724 # 0xf298
    9574:	00006517          	auipc	a0,0x6
    9578:	ccc50513          	addi	a0,a0,-820 # 0xf240
    957c:	a19f90ef          	jal	ra,0x2f94
    9580:	04043983          	0x4043983
    9584:	00099e63          	bnez	s3,0x95a0
    9588:	03c00613          	li	a2,60
    958c:	00006597          	auipc	a1,0x6
    9590:	d0c58593          	addi	a1,a1,-756 # 0xf298
    9594:	00006517          	auipc	a0,0x6
    9598:	cbc50513          	addi	a0,a0,-836 # 0xf250
    959c:	9f9f90ef          	jal	ra,0x2f94
    95a0:	03843583          	0x3843583
    95a4:	00090693          	mv	a3,s2
    95a8:	00048613          	mv	a2,s1
    95ac:	00098513          	mv	a0,s3
    95b0:	e51fa0ef          	jal	ra,0x4400
    95b4:	03843783          	0x3843783
    95b8:	0005051b          	0x5051b
    95bc:	02813083          	0x2813083
    95c0:	00a787b3          	add	a5,a5,a0
    95c4:	02f43c23          	0x2f43c23
    95c8:	02013403          	0x2013403
    95cc:	01813483          	0x1813483
    95d0:	01013903          	0x1013903
    95d4:	00813983          	0x813983
    95d8:	03010113          	addi	sp,sp,48
    95dc:	00008067          	ret
    95e0:	fd010113          	addi	sp,sp,-48
    95e4:	02813023          	0x2813023
    95e8:	00913c23          	0x913c23
    95ec:	01213823          	0x1213823
    95f0:	02113423          	0x2113423
    95f4:	01313423          	0x1313423
    95f8:	00050413          	mv	s0,a0
    95fc:	00058493          	mv	s1,a1
    9600:	00060913          	mv	s2,a2
    9604:	00051e63          	bnez	a0,0x9620
    9608:	04a00613          	li	a2,74
    960c:	00006597          	auipc	a1,0x6
    9610:	ca458593          	addi	a1,a1,-860 # 0xf2b0
    9614:	00006517          	auipc	a0,0x6
    9618:	c2c50513          	addi	a0,a0,-980 # 0xf240
    961c:	979f90ef          	jal	ra,0x2f94
    9620:	04043983          	0x4043983
    9624:	00099e63          	bnez	s3,0x9640
    9628:	04e00613          	li	a2,78
    962c:	00006597          	auipc	a1,0x6
    9630:	c8458593          	addi	a1,a1,-892 # 0xf2b0
    9634:	00006517          	auipc	a0,0x6
    9638:	c1c50513          	addi	a0,a0,-996 # 0xf250
    963c:	959f90ef          	jal	ra,0x2f94
    9640:	03843583          	0x3843583
    9644:	00090693          	mv	a3,s2
    9648:	00048613          	mv	a2,s1
    964c:	00098513          	mv	a0,s3
    9650:	e85fa0ef          	jal	ra,0x44d4
    9654:	03843783          	0x3843783
    9658:	0005051b          	0x5051b
    965c:	02813083          	0x2813083
    9660:	00a787b3          	add	a5,a5,a0
    9664:	02f43c23          	0x2f43c23
    9668:	02013403          	0x2013403
    966c:	01813483          	0x1813483
    9670:	01013903          	0x1013903
    9674:	00813983          	0x813983
    9678:	03010113          	addi	sp,sp,48
    967c:	00008067          	ret
    9680:	fc010113          	addi	sp,sp,-64
    9684:	03213023          	0x3213023
    9688:	04053903          	0x4053903
    968c:	02813823          	0x2813823
    9690:	02913423          	0x2913423
    9694:	02113c23          	0x2113c23
    9698:	01313c23          	0x1313c23
    969c:	01413823          	0x1413823
    96a0:	01513423          	0x1513423
    96a4:	01613023          	0x1613023
    96a8:	00058413          	mv	s0,a1
    96ac:	00060493          	mv	s1,a2
    96b0:	00091e63          	bnez	s2,0x96cc
    96b4:	10b00613          	li	a2,267
    96b8:	00006597          	auipc	a1,0x6
    96bc:	c4058593          	addi	a1,a1,-960 # 0xf2f8
    96c0:	00006517          	auipc	a0,0x6
    96c4:	ba850513          	addi	a0,a0,-1112 # 0xf268
    96c8:	8cdf90ef          	jal	ra,0x2f94
    96cc:	02049513          	slli	a0,s1,0x20
    96d0:	10400593          	li	a1,260
    96d4:	02055513          	srli	a0,a0,0x20
    96d8:	b15f60ef          	jal	ra,0x1ec
    96dc:	10300793          	li	a5,259
    96e0:	0005099b          	0x5099b
    96e4:	fea00513          	li	a0,-22
    96e8:	0497f063          	bgeu	a5,s1,0x9728
    96ec:	00440413          	addi	s0,s0,4
    96f0:	00000493          	li	s1,0
    96f4:	00100a13          	li	s4,1
    96f8:	01400a93          	li	s5,20
    96fc:	10400b13          	li	s6,260
    9700:	00895783          	lhu	a5,8(s2)
    9704:	009787bb          	0x9787bb
    9708:	01348863          	beq	s1,s3,0x9718
    970c:	00a95683          	lhu	a3,10(s2)
    9710:	0007871b          	0x7871b
    9714:	02d76e63          	bltu	a4,a3,0x9750
    9718:	0064951b          	0x64951b
    971c:	0095053b          	0x95053b
    9720:	00f91423          	sh	a5,8(s2)
    9724:	0025151b          	0x25151b
    9728:	03813083          	0x3813083
    972c:	03013403          	0x3013403
    9730:	02813483          	0x2813483
    9734:	02013903          	0x2013903
    9738:	01813983          	0x1813983
    973c:	01013a03          	0x1013a03
    9740:	00813a83          	0x813a83
    9744:	00013b03          	0x13b03
    9748:	04010113          	addi	sp,sp,64
    974c:	00008067          	ret
    9750:	00093703          	0x93703
    9754:	02079793          	slli	a5,a5,0x20
    9758:	0207d793          	srli	a5,a5,0x20
    975c:	00379793          	slli	a5,a5,0x3
    9760:	00f707b3          	add	a5,a4,a5
    9764:	0007b583          	0x7b583
    9768:	00040513          	mv	a0,s0
    976c:	ff440e23          	sb	s4,-4(s0)
    9770:	ff540ea3          	sb	s5,-3(s0)
    9774:	ff641f23          	sh	s6,-2(s0)
    9778:	01400613          	li	a2,20
    977c:	eddf80ef          	jal	ra,0x2658
    9780:	0014849b          	0x14849b
    9784:	10440413          	addi	s0,s0,260
    9788:	f79ff06f          	j	0x9700
    978c:	fe010113          	addi	sp,sp,-32
    9790:	00813823          	0x813823
    9794:	00113c23          	0x113c23
    9798:	00913423          	0x913423
    979c:	00050413          	mv	s0,a0
    97a0:	00051e63          	bnez	a0,0x97bc
    97a4:	05c00613          	li	a2,92
    97a8:	00006597          	auipc	a1,0x6
    97ac:	b2058593          	addi	a1,a1,-1248 # 0xf2c8
    97b0:	00006517          	auipc	a0,0x6
    97b4:	a9050513          	addi	a0,a0,-1392 # 0xf240
    97b8:	fdcf90ef          	jal	ra,0x2f94
    97bc:	00245703          	lhu	a4,2(s0)
    97c0:	00200793          	li	a5,2
    97c4:	04043483          	0x4043483
    97c8:	04f71263          	bne	a4,a5,0x980c
    97cc:	00049e63          	bnez	s1,0x97e8
    97d0:	06300613          	li	a2,99
    97d4:	00006597          	auipc	a1,0x6
    97d8:	af458593          	addi	a1,a1,-1292 # 0xf2c8
    97dc:	00006517          	auipc	a0,0x6
    97e0:	a8c50513          	addi	a0,a0,-1396 # 0xf268
    97e4:	fb0f90ef          	jal	ra,0x2f94
    97e8:	00048513          	mv	a0,s1
    97ec:	c6df70ef          	jal	ra,0x1458
    97f0:	00000793          	li	a5,0
    97f4:	01813083          	0x1813083
    97f8:	01013403          	0x1013403
    97fc:	00813483          	0x813483
    9800:	00078513          	mv	a0,a5
    9804:	02010113          	addi	sp,sp,32
    9808:	00008067          	ret
    980c:	00049e63          	bnez	s1,0x9828
    9810:	06c00613          	li	a2,108
    9814:	00006597          	auipc	a1,0x6
    9818:	ab458593          	addi	a1,a1,-1356 # 0xf2c8
    981c:	00006517          	auipc	a0,0x6
    9820:	a3450513          	addi	a0,a0,-1484 # 0xf250
    9824:	f70f90ef          	jal	ra,0x2f94
    9828:	00048513          	mv	a0,s1
    982c:	b29fa0ef          	jal	ra,0x4354
    9830:	ffb00793          	li	a5,-5
    9834:	fc0510e3          	bnez	a0,0x97f4
    9838:	04043023          	0x4043023
    983c:	fb5ff06f          	j	0x97f0
    9840:	0005c703          	lbu	a4,0(a1)
    9844:	ff010113          	addi	sp,sp,-16
    9848:	00813023          	0x813023
    984c:	00113423          	0x113423
    9850:	02f00793          	li	a5,47
    9854:	00060413          	mv	s0,a2
    9858:	02f71c63          	bne	a4,a5,0x9890
    985c:	0015c783          	lbu	a5,1(a1)
    9860:	02079863          	bnez	a5,0x9890
    9864:	000047b7          	lui	a5,0x4
    9868:	00063023          	0x63023
    986c:	1ff7879b          	0x1ff7879b
    9870:	00f42823          	sw	a5,16(s0)
    9874:	02043823          	0x2043823
    9878:	04043c23          	0x4043c23
    987c:	00000513          	li	a0,0
    9880:	00813083          	0x813083
    9884:	00013403          	0x13403
    9888:	01010113          	addi	sp,sp,16
    988c:	00008067          	ret
    9890:	00158513          	addi	a0,a1,1
    9894:	8e9fa0ef          	jal	ra,0x417c
    9898:	00050793          	mv	a5,a0
    989c:	ffe00513          	li	a0,-2
    98a0:	fe0780e3          	beqz	a5,0x9880
    98a4:	0287a783          	lw	a5,40(a5) # 0x4028
    98a8:	00043023          	0x43023
    98ac:	00079863          	bnez	a5,0x98bc
    98b0:	000027b7          	lui	a5,0x2
    98b4:	1b67879b          	0x1b67879b
    98b8:	fb9ff06f          	j	0x9870
    98bc:	00100713          	li	a4,1
    98c0:	00e79663          	bne	a5,a4,0x98cc
    98c4:	000067b7          	lui	a5,0x6
    98c8:	fedff06f          	j	0x98b4
    98cc:	00f00713          	li	a4,15
    98d0:	00e79663          	bne	a5,a4,0x98dc
    98d4:	000017b7          	lui	a5,0x1
    98d8:	fddff06f          	j	0x98b4
    98dc:	000087b7          	lui	a5,0x8
    98e0:	fd5ff06f          	j	0x98b4
    98e4:	fd010113          	addi	sp,sp,-48
    98e8:	02813023          	0x2813023
    98ec:	00050413          	mv	s0,a0
    98f0:	00853503          	0x853503
    98f4:	02113423          	0x2113423
    98f8:	00913c23          	0x913c23
    98fc:	01213823          	0x1213823
    9900:	01313423          	0x1313423
    9904:	01413023          	0x1413023
    9908:	00054703          	lbu	a4,0(a0)
    990c:	02f00793          	li	a5,47
    9910:	0ef71463          	bne	a4,a5,0x99f8
    9914:	00154783          	lbu	a5,1(a0)
    9918:	0e079063          	bnez	a5,0x99f8
    991c:	02842783          	lw	a5,40(s0)
    9920:	02f79713          	slli	a4,a5,0x2f
    9924:	0c075a63          	bgez	a4,0x99f8
    9928:	888f70ef          	jal	ra,0x9b0
    992c:	00900513          	li	a0,9
    9930:	b78fa0ef          	jal	ra,0x3ca8
    9934:	00050913          	mv	s2,a0
    9938:	00051e63          	bnez	a0,0x9954
    993c:	08e00613          	li	a2,142
    9940:	00006597          	auipc	a1,0x6
    9944:	9a058593          	addi	a1,a1,-1632 # 0xf2e0
    9948:	00004517          	auipc	a0,0x4
    994c:	2f050513          	addi	a0,a0,752 # 0xdc38
    9950:	e44f90ef          	jal	ra,0x2f94
    9954:	00893783          	0x893783
    9958:	00000993          	li	s3,0
    995c:	00890a13          	addi	s4,s2,8
    9960:	05479863          	bne	a5,s4,0x99b0
    9964:	02099513          	slli	a0,s3,0x20
    9968:	02055513          	srli	a0,a0,0x20
    996c:	00250513          	addi	a0,a0,2
    9970:	00351513          	slli	a0,a0,0x3
    9974:	f94f70ef          	jal	ra,0x1108
    9978:	00050493          	mv	s1,a0
    997c:	04051063          	bnez	a0,0x99bc
    9980:	85cf70ef          	jal	ra,0x9dc
    9984:	04943023          	0x4943023
    9988:	00000793          	li	a5,0
    998c:	02813083          	0x2813083
    9990:	02013403          	0x2013403
    9994:	01813483          	0x1813483
    9998:	01013903          	0x1013903
    999c:	00813983          	0x813983
    99a0:	00013a03          	0x13a03
    99a4:	00078513          	mv	a0,a5
    99a8:	03010113          	addi	sp,sp,48
    99ac:	00008067          	ret
    99b0:	0007b783          	0x7b783
    99b4:	0019899b          	0x19899b
    99b8:	fa9ff06f          	j	0x9960
    99bc:	00893703          	0x893703
    99c0:	01050613          	addi	a2,a0,16
    99c4:	00c53023          	0xc53023
    99c8:	00051423          	sh	zero,8(a0)
    99cc:	01351523          	sh	s3,10(a0)
    99d0:	00000693          	li	a3,0
    99d4:	faea06e3          	beq	s4,a4,0x9980
    99d8:	02069793          	slli	a5,a3,0x20
    99dc:	01d7d793          	srli	a5,a5,0x1d
    99e0:	fe870593          	addi	a1,a4,-24
    99e4:	00f607b3          	add	a5,a2,a5
    99e8:	00073703          	0x73703
    99ec:	00b7b023          	0xb7b023
    99f0:	0016869b          	0x16869b
    99f4:	fe1ff06f          	j	0x99d4
    99f8:	00150513          	addi	a0,a0,1
    99fc:	f80fa0ef          	jal	ra,0x417c
    9a00:	00050493          	mv	s1,a0
    9a04:	fed00793          	li	a5,-19
    9a08:	f80502e3          	beqz	a0,0x998c
    9a0c:	00300593          	li	a1,3
    9a10:	fecfa0ef          	jal	ra,0x41fc
    9a14:	00050663          	beqz	a0,0x9a20
    9a18:	ffa00793          	li	a5,-6
    9a1c:	00f51a63          	bne	a0,a5,0x9a30
    9a20:	00400793          	li	a5,4
    9a24:	04943023          	0x4943023
    9a28:	00f41123          	sh	a5,2(s0)
    9a2c:	f5dff06f          	j	0x9988
    9a30:	04043023          	0x4043023
    9a34:	ffb00793          	li	a5,-5
    9a38:	f55ff06f          	j	0x998c
    9a3c:	ff010113          	addi	sp,sp,-16
    9a40:	00006517          	auipc	a0,0x6
    9a44:	91850513          	addi	a0,a0,-1768 # 0xf358
    9a48:	00113423          	0x113423
    9a4c:	945fe0ef          	jal	ra,0x8390
    9a50:	00813083          	0x813083
    9a54:	00000513          	li	a0,0
    9a58:	01010113          	addi	sp,sp,16
    9a5c:	00008067          	ret
    9a60:	00060863          	beqz	a2,0x9a70
    9a64:	00c53c23          	0xc53c23
    9a68:	00000513          	li	a0,0
    9a6c:	00008067          	ret
    9a70:	ffb00513          	li	a0,-5
    9a74:	00008067          	ret
    9a78:	00000513          	li	a0,0
    9a7c:	00008067          	ret
    9a80:	ffb00513          	li	a0,-5
    9a84:	00008067          	ret
    9a88:	00052703          	lw	a4,0(a0)
    9a8c:	00100793          	li	a5,1
    9a90:	00e7ec63          	bltu	a5,a4,0x9aa8
    9a94:	01853503          	0x1853503
    9a98:	00150513          	addi	a0,a0,1
    9a9c:	00153513          	seqz	a0,a0
    9aa0:	40a00533          	neg	a0,a0
    9aa4:	00008067          	ret
    9aa8:	fff00513          	li	a0,-1
    9aac:	00008067          	ret
    9ab0:	03053783          	0x3053783
    9ab4:	00b7e863          	bltu	a5,a1,0x9ac4
    9ab8:	02b53c23          	0x2b53c23
    9abc:	0005851b          	0x5851b
    9ac0:	00008067          	ret
    9ac4:	ffb00513          	li	a0,-5
    9ac8:	00008067          	ret
    9acc:	04053023          	0x4053023
    9ad0:	00000513          	li	a0,0
    9ad4:	00008067          	ret
    9ad8:	fd010113          	addi	sp,sp,-48
    9adc:	01413023          	0x1413023
    9ae0:	04053a03          	0x4053a03
    9ae4:	00913c23          	0x913c23
    9ae8:	01213823          	0x1213823
    9aec:	01313423          	0x1313423
    9af0:	02113423          	0x2113423
    9af4:	02813023          	0x2813023
    9af8:	00050493          	mv	s1,a0
    9afc:	00058993          	mv	s3,a1
    9b00:	00060913          	mv	s2,a2
    9b04:	000a1e63          	bnez	s4,0x9b20
    9b08:	08900613          	li	a2,137
    9b0c:	00006597          	auipc	a1,0x6
    9b10:	8dc58593          	addi	a1,a1,-1828 # 0xf3e8
    9b14:	00006517          	auipc	a0,0x6
    9b18:	89450513          	addi	a0,a0,-1900 # 0xf3a8
    9b1c:	c78f90ef          	jal	ra,0x2f94
    9b20:	000a0513          	mv	a0,s4
    9b24:	f65ff0ef          	jal	ra,0x9a88
    9b28:	ffb00413          	li	s0,-5
    9b2c:	04051063          	bnez	a0,0x9b6c
    9b30:	0384b783          	0x384b783
    9b34:	0304b403          	0x304b403
    9b38:	40f40433          	sub	s0,s0,a5
    9b3c:	00897463          	bgeu	s2,s0,0x9b44
    9b40:	00090413          	mv	s0,s2
    9b44:	00040c63          	beqz	s0,0x9b5c
    9b48:	010a3583          	0x10a3583
    9b4c:	00040613          	mv	a2,s0
    9b50:	00098513          	mv	a0,s3
    9b54:	00f585b3          	add	a1,a1,a5
    9b58:	a81f60ef          	jal	ra,0x5d8
    9b5c:	0384b783          	0x384b783
    9b60:	008787b3          	add	a5,a5,s0
    9b64:	02f4bc23          	0x2f4bc23
    9b68:	0004041b          	0x4041b
    9b6c:	02813083          	0x2813083
    9b70:	00040513          	mv	a0,s0
    9b74:	02013403          	0x2013403
    9b78:	01813483          	0x1813483
    9b7c:	01013903          	0x1013903
    9b80:	00813983          	0x813983
    9b84:	00013a03          	0x13a03
    9b88:	03010113          	addi	sp,sp,48
    9b8c:	00008067          	ret
    9b90:	fa010113          	addi	sp,sp,-96
    9b94:	03313c23          	0x3313c23
    9b98:	04053983          	0x4053983
    9b9c:	04913423          	0x4913423
    9ba0:	00050493          	mv	s1,a0
    9ba4:	00098513          	mv	a0,s3
    9ba8:	04813823          	0x4813823
    9bac:	05213023          	0x5213023
    9bb0:	04113c23          	0x4113c23
    9bb4:	03413823          	0x3413823
    9bb8:	03513423          	0x3513423
    9bbc:	03613023          	0x3613023
    9bc0:	01713c23          	0x1713c23
    9bc4:	00058413          	mv	s0,a1
    9bc8:	00060913          	mv	s2,a2
    9bcc:	ebdff0ef          	jal	ra,0x9a88
    9bd0:	10051663          	bnez	a0,0x9cdc
    9bd4:	0009a703          	lw	a4,0(s3)
    9bd8:	00100793          	li	a5,1
    9bdc:	00f70e63          	beq	a4,a5,0x9bf8
    9be0:	0fd00613          	li	a2,253
    9be4:	00006597          	auipc	a1,0x6
    9be8:	81458593          	addi	a1,a1,-2028 # 0xf3f8
    9bec:	00005517          	auipc	a0,0x5
    9bf0:	7cc50513          	addi	a0,a0,1996 # 0xf3b8
    9bf4:	ba0f90ef          	jal	ra,0x2f94
    9bf8:	02091513          	slli	a0,s2,0x20
    9bfc:	10400593          	li	a1,260
    9c00:	02055513          	srli	a0,a0,0x20
    9c04:	de8f60ef          	jal	ra,0x1ec
    9c08:	10300793          	li	a5,259
    9c0c:	0109ba03          	0x109ba03
    9c10:	0005099b          	0x5099b
    9c14:	fea00513          	li	a0,-22
    9c18:	0327f863          	bgeu	a5,s2,0x9c48
    9c1c:	02099993          	slli	s3,s3,0x20
    9c20:	00440413          	addi	s0,s0,4
    9c24:	00000913          	li	s2,0
    9c28:	0209d993          	srli	s3,s3,0x20
    9c2c:	00100a93          	li	s5,1
    9c30:	00200b93          	li	s7,2
    9c34:	10400b13          	li	s6,260
    9c38:	05396263          	bltu	s2,s3,0x9c7c
    9c3c:	0069151b          	0x69151b
    9c40:	0125053b          	0x125053b
    9c44:	0025151b          	0x25151b
    9c48:	05813083          	0x5813083
    9c4c:	05013403          	0x5013403
    9c50:	04813483          	0x4813483
    9c54:	04013903          	0x4013903
    9c58:	03813983          	0x3813983
    9c5c:	03013a03          	0x3013a03
    9c60:	02813a83          	0x2813a83
    9c64:	02013b03          	0x2013b03
    9c68:	01813b83          	0x1813b83
    9c6c:	06010113          	addi	sp,sp,96
    9c70:	00008067          	ret
    9c74:	ff540e23          	sb	s5,-4(s0)
    9c78:	0280006f          	j	0x9ca0
    9c7c:	0384b783          	0x384b783
    9c80:	0304b703          	0x304b703
    9c84:	fae7fce3          	bgeu	a5,a4,0x9c3c
    9c88:	00579793          	slli	a5,a5,0x5
    9c8c:	00fa07b3          	add	a5,s4,a5
    9c90:	0087b583          	0x87b583
    9c94:	0007a783          	lw	a5,0(a5) # 0x8000
    9c98:	fd579ee3          	bne	a5,s5,0x9c74
    9c9c:	ff740e23          	sb	s7,-4(s0)
    9ca0:	00058513          	mv	a0,a1
    9ca4:	00b13423          	0xb13423
    9ca8:	a59f80ef          	jal	ra,0x2700
    9cac:	00813583          	0x813583
    9cb0:	fea40ea3          	sb	a0,-3(s0)
    9cb4:	ff641f23          	sh	s6,-2(s0)
    9cb8:	00040513          	mv	a0,s0
    9cbc:	10000613          	li	a2,256
    9cc0:	999f80ef          	jal	ra,0x2658
    9cc4:	0384b783          	0x384b783
    9cc8:	00190913          	addi	s2,s2,1
    9ccc:	10440413          	addi	s0,s0,260
    9cd0:	00178793          	addi	a5,a5,1
    9cd4:	02f4bc23          	0x2f4bc23
    9cd8:	f61ff06f          	j	0x9c38
    9cdc:	ffb00513          	li	a0,-5
    9ce0:	f69ff06f          	j	0x9c48
    9ce4:	ff010113          	addi	sp,sp,-16
    9ce8:	00005517          	auipc	a0,0x5
    9cec:	77050513          	addi	a0,a0,1904 # 0xf458
    9cf0:	00113423          	0x113423
    9cf4:	e9cfe0ef          	jal	ra,0x8390
    9cf8:	00813083          	0x813083
    9cfc:	00000513          	li	a0,0
    9d00:	01010113          	addi	sp,sp,16
    9d04:	00008067          	ret
    9d08:	fa010113          	addi	sp,sp,-96
    9d0c:	04813823          	0x4813823
    9d10:	03313c23          	0x3313c23
    9d14:	03513423          	0x3513423
    9d18:	04113c23          	0x4113c23
    9d1c:	04913423          	0x4913423
    9d20:	05213023          	0x5213023
    9d24:	03413823          	0x3413823
    9d28:	03613023          	0x3613023
    9d2c:	01713c23          	0x1713c23
    9d30:	01813823          	0x1813823
    9d34:	01913423          	0x1913423
    9d38:	00050993          	mv	s3,a0
    9d3c:	00058413          	mv	s0,a1
    9d40:	00060a93          	mv	s5,a2
    9d44:	d45ff0ef          	jal	ra,0x9a88
    9d48:	04050063          	beqz	a0,0x9d88
    9d4c:	00000993          	li	s3,0
    9d50:	05813083          	0x5813083
    9d54:	05013403          	0x5013403
    9d58:	04813483          	0x4813483
    9d5c:	04013903          	0x4013903
    9d60:	03013a03          	0x3013a03
    9d64:	02813a83          	0x2813a83
    9d68:	02013b03          	0x2013b03
    9d6c:	01813b83          	0x1813b83
    9d70:	01013c03          	0x1013c03
    9d74:	00813c83          	0x813c83
    9d78:	00098513          	mv	a0,s3
    9d7c:	03813983          	0x3813983
    9d80:	06010113          	addi	sp,sp,96
    9d84:	00008067          	ret
    9d88:	00044703          	lbu	a4,0(s0)
    9d8c:	02f00793          	li	a5,47
    9d90:	0189ba03          	0x189ba03
    9d94:	00f71a63          	bne	a4,a5,0x9da8
    9d98:	00144783          	lbu	a5,1(s0)
    9d9c:	00079663          	bnez	a5,0x9da8
    9da0:	014ab023          	0x14ab023
    9da4:	fadff06f          	j	0x9d50
    9da8:	0109b483          	0x109b483
    9dac:	02f00793          	li	a5,47
    9db0:	00044703          	lbu	a4,0(s0)
    9db4:	02f70263          	beq	a4,a5,0x9dd8
    9db8:	00040913          	mv	s2,s0
    9dbc:	02f00713          	li	a4,47
    9dc0:	00094783          	lbu	a5,0(s2)
    9dc4:	00e78463          	beq	a5,a4,0x9dcc
    9dc8:	00079c63          	bnez	a5,0x9de0
    9dcc:	02f00c13          	li	s8,47
    9dd0:	00100c93          	li	s9,1
    9dd4:	0900006f          	j	0x9e64
    9dd8:	00140413          	addi	s0,s0,1
    9ddc:	fd5ff06f          	j	0x9db0
    9de0:	00190913          	addi	s2,s2,1
    9de4:	fddff06f          	j	0x9dc0
    9de8:	00140413          	addi	s0,s0,1
    9dec:	0500006f          	j	0x9e3c
    9df0:	00190913          	addi	s2,s2,1
    9df4:	0540006f          	j	0x9e48
    9df8:	001b0b13          	addi	s6,s6,1
    9dfc:	02048493          	addi	s1,s1,32
    9e00:	f54b06e3          	beq	s6,s4,0x9d4c
    9e04:	00048513          	mv	a0,s1
    9e08:	00048993          	mv	s3,s1
    9e0c:	c7dff0ef          	jal	ra,0x9a88
    9e10:	f2051ee3          	bnez	a0,0x9d4c
    9e14:	0084b503          	0x84b503
    9e18:	8e9f80ef          	jal	ra,0x2700
    9e1c:	fd751ee3          	bne	a0,s7,0x9df8
    9e20:	0084b503          	0x84b503
    9e24:	000b8613          	mv	a2,s7
    9e28:	00040593          	mv	a1,s0
    9e2c:	871f80ef          	jal	ra,0x269c
    9e30:	fc0514e3          	bnez	a0,0x9df8
    9e34:	0184ba03          	0x184ba03
    9e38:	00090413          	mv	s0,s2
    9e3c:	00044783          	lbu	a5,0(s0)
    9e40:	fb8784e3          	beq	a5,s8,0x9de8
    9e44:	00040913          	mv	s2,s0
    9e48:	00094703          	lbu	a4,0(s2)
    9e4c:	01870463          	beq	a4,s8,0x9e54
    9e50:	fa0710e3          	bnez	a4,0x9df0
    9e54:	f40786e3          	beqz	a5,0x9da0
    9e58:	0004a783          	lw	a5,0(s1)
    9e5c:	ef9798e3          	bne	a5,s9,0x9d4c
    9e60:	0104b483          	0x104b483
    9e64:	ee0484e3          	beqz	s1,0x9d4c
    9e68:	00000b13          	li	s6,0
    9e6c:	40890bb3          	sub	s7,s2,s0
    9e70:	f91ff06f          	j	0x9e00
    9e74:	04053783          	0x4053783
    9e78:	fd010113          	addi	sp,sp,-48
    9e7c:	01213823          	0x1213823
    9e80:	0187b903          	0x187b903
    9e84:	00913c23          	0x913c23
    9e88:	00050493          	mv	s1,a0
    9e8c:	00090513          	mv	a0,s2
    9e90:	02813023          	0x2813023
    9e94:	02113423          	0x2113423
    9e98:	bf1ff0ef          	jal	ra,0x9a88
    9e9c:	ffb00413          	li	s0,-5
    9ea0:	06051263          	bnez	a0,0x9f04
    9ea4:	0284a783          	lw	a5,40(s1)
    9ea8:	fea00413          	li	s0,-22
    9eac:	6437f793          	andi	a5,a5,1603
    9eb0:	04079a63          	bnez	a5,0x9f04
    9eb4:	0084b583          	0x84b583
    9eb8:	00050413          	mv	s0,a0
    9ebc:	00810613          	addi	a2,sp,8
    9ec0:	00090513          	mv	a0,s2
    9ec4:	e45ff0ef          	jal	ra,0x9d08
    9ec8:	02050063          	beqz	a0,0x9ee8
    9ecc:	0284a783          	lw	a5,40(s1)
    9ed0:	00052683          	lw	a3,0(a0)
    9ed4:	00010737          	lui	a4,0x10
    9ed8:	00e7f7b3          	and	a5,a5,a4
    9edc:	00100713          	li	a4,1
    9ee0:	00e69863          	bne	a3,a4,0x9ef0
    9ee4:	00079863          	bnez	a5,0x9ef4
    9ee8:	ffe00413          	li	s0,-2
    9eec:	0180006f          	j	0x9f04
    9ef0:	fe079ce3          	bnez	a5,0x9ee8
    9ef4:	00813783          	0x813783
    9ef8:	04a4b023          	0x4a4b023
    9efc:	0204bc23          	0x204bc23
    9f00:	02f4b823          	0x2f4b823
    9f04:	02813083          	0x2813083
    9f08:	00040513          	mv	a0,s0
    9f0c:	02013403          	0x2013403
    9f10:	01813483          	0x1813483
    9f14:	01013903          	0x1013903
    9f18:	03010113          	addi	sp,sp,48
    9f1c:	00008067          	ret
    9f20:	01853503          	0x1853503
    9f24:	fe010113          	addi	sp,sp,-32
    9f28:	00813823          	0x813823
    9f2c:	00060413          	mv	s0,a2
    9f30:	00810613          	addi	a2,sp,8
    9f34:	00113c23          	0x113c23
    9f38:	dd1ff0ef          	jal	ra,0x9d08
    9f3c:	04050663          	beqz	a0,0x9f88
    9f40:	000087b7          	lui	a5,0x8
    9f44:	00052703          	lw	a4,0(a0)
    9f48:	1b67879b          	0x1b67879b
    9f4c:	00f42823          	sw	a5,16(s0)
    9f50:	00043023          	0x43023
    9f54:	00100793          	li	a5,1
    9f58:	00f71863          	bne	a4,a5,0x9f68
    9f5c:	000047b7          	lui	a5,0x4
    9f60:	1ff7879b          	0x1ff7879b
    9f64:	00f42823          	sw	a5,16(s0)
    9f68:	01853783          	0x1853783
    9f6c:	04043c23          	0x4043c23
    9f70:	00000513          	li	a0,0
    9f74:	02f43823          	0x2f43823
    9f78:	01813083          	0x1813083
    9f7c:	01013403          	0x1013403
    9f80:	02010113          	addi	sp,sp,32
    9f84:	00008067          	ret
    9f88:	ffe00513          	li	a0,-2
    9f8c:	fedff06f          	j	0x9f78
    9f90:	0000f797          	auipc	a5,0xf
    9f94:	37078793          	addi	a5,a5,880 # 0x19300
    9f98:	0007b703          	0x7b703
    9f9c:	ff010113          	addi	sp,sp,-16
    9fa0:	00813023          	0x813023
    9fa4:	00113423          	0x113423
    9fa8:	00078413          	mv	s0,a5
    9fac:	00071e63          	bnez	a4,0x9fc8
    9fb0:	0bf00613          	li	a2,191
    9fb4:	00005597          	auipc	a1,0x5
    9fb8:	5bc58593          	addi	a1,a1,1468 # 0xf570
    9fbc:	00005517          	auipc	a0,0x5
    9fc0:	4ec50513          	addi	a0,a0,1260 # 0xf4a8
    9fc4:	fd1f80ef          	jal	ra,0x2f94
    9fc8:	00043503          	0x43503
    9fcc:	c81fa0ef          	jal	ra,0x4c4c
    9fd0:	00813083          	0x813083
    9fd4:	00013403          	0x13403
    9fd8:	00000513          	li	a0,0
    9fdc:	01010113          	addi	sp,sp,16
    9fe0:	00008067          	ret
    9fe4:	0000f797          	auipc	a5,0xf
    9fe8:	31c7b783          	0x31c7b783
    9fec:	0447c783          	lbu	a5,68(a5) # 0x19028
    9ff0:	0027f793          	andi	a5,a5,2
    9ff4:	00079c63          	bnez	a5,0xa00c
    9ff8:	00018797          	auipc	a5,0x18
    9ffc:	38078823          	sb	zero,912(a5) # 0x22388
    a000:	00018517          	auipc	a0,0x18
    a004:	38850513          	addi	a0,a0,904 # 0x22388
    a008:	00008067          	ret
    a00c:	fe010113          	addi	sp,sp,-32
    a010:	00113c23          	0x113c23
    a014:	00813823          	0x813823
    a018:	00913423          	0x913423
    a01c:	0000f597          	auipc	a1,0xf
    a020:	2dc5b583          	0x2dc5b583
    a024:	02058863          	beqz	a1,0xa054
    a028:	10000613          	li	a2,256
    a02c:	00018517          	auipc	a0,0x18
    a030:	35c50513          	addi	a0,a0,860 # 0x22388
    a034:	d5cf60ef          	jal	ra,0x590
    a038:	01813083          	0x1813083
    a03c:	01013403          	0x1013403
    a040:	00813483          	0x813483
    a044:	00018517          	auipc	a0,0x18
    a048:	34450513          	addi	a0,a0,836 # 0x22388
    a04c:	02010113          	addi	sp,sp,32
    a050:	00008067          	ret
    a054:	0e1020ef          	jal	ra,0xc934
    a058:	00005597          	auipc	a1,0x5
    a05c:	46858593          	addi	a1,a1,1128 # 0xf4c0
    a060:	00051663          	bnez	a0,0xa06c
    a064:	00005597          	auipc	a1,0x5
    a068:	46458593          	addi	a1,a1,1124 # 0xf4c8
    a06c:	00018517          	auipc	a0,0x18
    a070:	31c50513          	addi	a0,a0,796 # 0x22388
    a074:	cf8f60ef          	jal	ra,0x56c
    a078:	00018417          	auipc	s0,0x18
    a07c:	31040413          	addi	s0,s0,784 # 0x22388
    a080:	00040513          	mv	a0,s0
    a084:	e7cf80ef          	jal	ra,0x2700
    a088:	00050493          	mv	s1,a0
    a08c:	00040513          	mv	a0,s0
    a090:	e70f80ef          	jal	ra,0x2700
    a094:	10000593          	li	a1,256
    a098:	40a585b3          	sub	a1,a1,a0
    a09c:	00940533          	add	a0,s0,s1
    a0a0:	aacfe0ef          	jal	ra,0x834c
    a0a4:	00005597          	auipc	a1,0x5
    a0a8:	42c58593          	addi	a1,a1,1068 # 0xf4d0
    a0ac:	00040513          	mv	a0,s0
    a0b0:	ce4f60ef          	jal	ra,0x594
    a0b4:	f85ff06f          	j	0xa038
    a0b8:	ff010113          	addi	sp,sp,-16
    a0bc:	00813023          	0x813023
    a0c0:	00050413          	mv	s0,a0
    a0c4:	00005517          	auipc	a0,0x5
    a0c8:	41450513          	addi	a0,a0,1044 # 0xf4d8
    a0cc:	00113423          	0x113423
    a0d0:	d39f80ef          	jal	ra,0x2e08
    a0d4:	f11ff0ef          	jal	ra,0x9fe4
    a0d8:	00050593          	mv	a1,a0
    a0dc:	1da40613          	addi	a2,s0,474
    a0e0:	00005517          	auipc	a0,0x5
    a0e4:	40050513          	addi	a0,a0,1024 # 0xf4e0
    a0e8:	d21f80ef          	jal	ra,0x2e08
    a0ec:	00813083          	0x813083
    a0f0:	00013403          	0x13403
    a0f4:	00000513          	li	a0,0
    a0f8:	01010113          	addi	sp,sp,16
    a0fc:	00008067          	ret
    a100:	0000f797          	auipc	a5,0xf
    a104:	20078793          	addi	a5,a5,512 # 0x19300
    a108:	0007b703          	0x7b703
    a10c:	fe010113          	addi	sp,sp,-32
    a110:	00813823          	0x813823
    a114:	00913423          	0x913423
    a118:	00113c23          	0x113c23
    a11c:	00050413          	mv	s0,a0
    a120:	00078493          	mv	s1,a5
    a124:	00071e63          	bnez	a4,0xa140
    a128:	0a300613          	li	a2,163
    a12c:	00005597          	auipc	a1,0x5
    a130:	41c58593          	addi	a1,a1,1052 # 0xf548
    a134:	00005517          	auipc	a0,0x5
    a138:	37450513          	addi	a0,a0,884 # 0xf4a8
    a13c:	e59f80ef          	jal	ra,0x2f94
    a140:	0004b703          	0x4b703
    a144:	00147413          	andi	s0,s0,1
    a148:	00141413          	slli	s0,s0,0x1
    a14c:	04474783          	lbu	a5,68(a4) # 0x10044
    a150:	01813083          	0x1813083
    a154:	00813483          	0x813483
    a158:	ffd7f793          	andi	a5,a5,-3
    a15c:	0087e433          	or	s0,a5,s0
    a160:	04870223          	sb	s0,68(a4)
    a164:	01013403          	0x1013403
    a168:	02010113          	addi	sp,sp,32
    a16c:	00008067          	ret
    a170:	00007797          	auipc	a5,0x7
    a174:	84078793          	addi	a5,a5,-1984 # 0x109b0
    a178:	0000f717          	auipc	a4,0xf
    a17c:	16f73023          	0x16f73023
    a180:	00007797          	auipc	a5,0x7
    a184:	da078793          	addi	a5,a5,-608 # 0x10f20
    a188:	0000f717          	auipc	a4,0xf
    a18c:	14f73c23          	0x14f73c23
    a190:	00007797          	auipc	a5,0x7
    a194:	d9078793          	addi	a5,a5,-624 # 0x10f20
    a198:	fe010113          	addi	sp,sp,-32
    a19c:	0000f717          	auipc	a4,0xf
    a1a0:	14f73623          	0x14f73623
    a1a4:	23800593          	li	a1,568
    a1a8:	00007797          	auipc	a5,0x7
    a1ac:	d7878793          	addi	a5,a5,-648 # 0x10f20
    a1b0:	00100513          	li	a0,1
    a1b4:	00913423          	0x913423
    a1b8:	00113c23          	0x113c23
    a1bc:	00813823          	0x813823
    a1c0:	0000f717          	auipc	a4,0xf
    a1c4:	12f73823          	0x12f73823
    a1c8:	0000f497          	auipc	s1,0xf
    a1cc:	13848493          	addi	s1,s1,312 # 0x19300
    a1d0:	a48f70ef          	jal	ra,0x1418
    a1d4:	00a4b023          	0xa4b023
    a1d8:	02051663          	bnez	a0,0xa204
    a1dc:	00005517          	auipc	a0,0x5
    a1e0:	30c50513          	addi	a0,a0,780 # 0xf4e8
    a1e4:	c25f80ef          	jal	ra,0x2e08
    a1e8:	fff00493          	li	s1,-1
    a1ec:	01813083          	0x1813083
    a1f0:	01013403          	0x1013403
    a1f4:	00048513          	mv	a0,s1
    a1f8:	00813483          	0x813483
    a1fc:	02010113          	addi	sp,sp,32
    a200:	00008067          	ret
    a204:	00a00793          	li	a5,10
    a208:	01400713          	li	a4,20
    a20c:	000016b7          	lui	a3,0x1
    a210:	00000613          	li	a2,0
    a214:	00000597          	auipc	a1,0x0
    a218:	15458593          	addi	a1,a1,340 # 0xa368
    a21c:	00005517          	auipc	a0,0x5
    a220:	2e450513          	addi	a0,a0,740 # 0xf500
    a224:	a4cf90ef          	jal	ra,0x3470
    a228:	00050413          	mv	s0,a0
    a22c:	0004b503          	0x4b503
    a230:	00000693          	li	a3,0
    a234:	00000613          	li	a2,0
    a238:	00005597          	auipc	a1,0x5
    a23c:	2d058593          	addi	a1,a1,720 # 0xf508
    a240:	fa4fa0ef          	jal	ra,0x49e4
    a244:	00100513          	li	a0,1
    a248:	eb9ff0ef          	jal	ra,0xa100
    a24c:	00000493          	li	s1,0
    a250:	f8040ee3          	beqz	s0,0xa1ec
    a254:	00040513          	mv	a0,s0
    a258:	e6cf90ef          	jal	ra,0x38c4
    a25c:	f91ff06f          	j	0xa1ec
    a260:	fe010113          	addi	sp,sp,-32
    a264:	00813823          	0x813823
    a268:	0000f417          	auipc	s0,0xf
    a26c:	09840413          	addi	s0,s0,152 # 0x19300
    a270:	00043783          	0x43783
    a274:	01213023          	0x1213023
    a278:	00113c23          	0x113c23
    a27c:	00913423          	0x913423
    a280:	00050913          	mv	s2,a0
    a284:	00079e63          	bnez	a5,0xa2a0
    a288:	0d200613          	li	a2,210
    a28c:	00005597          	auipc	a1,0x5
    a290:	2f458593          	addi	a1,a1,756 # 0xf580
    a294:	00005517          	auipc	a0,0x5
    a298:	21450513          	addi	a0,a0,532 # 0xf4a8
    a29c:	cf9f80ef          	jal	ra,0x2f94
    a2a0:	00090513          	mv	a0,s2
    a2a4:	ed9f90ef          	jal	ra,0x417c
    a2a8:	00050493          	mv	s1,a0
    a2ac:	02051463          	bnez	a0,0xa2d4
    a2b0:	01013403          	0x1013403
    a2b4:	01813083          	0x1813083
    a2b8:	00813483          	0x813483
    a2bc:	00090593          	mv	a1,s2
    a2c0:	00013903          	0x13903
    a2c4:	00005517          	auipc	a0,0x5
    a2c8:	24c50513          	addi	a0,a0,588 # 0xf510
    a2cc:	02010113          	addi	sp,sp,32
    a2d0:	b39f806f          	j	0x2e08
    a2d4:	00043783          	0x43783
    a2d8:	2307b783          	0x2307b783
    a2dc:	06a78a63          	beq	a5,a0,0xa350
    a2e0:	04300593          	li	a1,67
    a2e4:	f19f90ef          	jal	ra,0x41fc
    a2e8:	06051463          	bnez	a0,0xa350
    a2ec:	00043783          	0x43783
    a2f0:	2307b503          	0x2307b503
    a2f4:	00050c63          	beqz	a0,0xa30c
    a2f8:	85cfa0ef          	jal	ra,0x4354
    a2fc:	00043783          	0x43783
    a300:	00000593          	li	a1,0
    a304:	2307b503          	0x2307b503
    a308:	b4cfa0ef          	jal	ra,0x4654
    a30c:	00043503          	0x43503
    a310:	00000593          	li	a1,0
    a314:	05100613          	li	a2,81
    a318:	1da50513          	addi	a0,a0,474
    a31c:	ab8f60ef          	jal	ra,0x5d4
    a320:	00043783          	0x43783
    a324:	01013403          	0x1013403
    a328:	01813083          	0x1813083
    a32c:	00013903          	0x13903
    a330:	2297b823          	0x2297b823
    a334:	00048513          	mv	a0,s1
    a338:	00813483          	0x813483
    a33c:	2207a623          	sw	zero,556(a5)
    a340:	00000597          	auipc	a1,0x0
    a344:	c5058593          	addi	a1,a1,-944 # 0x9f90
    a348:	02010113          	addi	sp,sp,32
    a34c:	b08fa06f          	j	0x4654
    a350:	01813083          	0x1813083
    a354:	01013403          	0x1013403
    a358:	00813483          	0x813483
    a35c:	00013903          	0x13903
    a360:	02010113          	addi	sp,sp,32
    a364:	00008067          	ret
    a368:	f8010113          	addi	sp,sp,-128
    a36c:	06913423          	0x6913423
    a370:	0000f497          	auipc	s1,0xf
    a374:	f9048493          	addi	s1,s1,-112 # 0x19300
    a378:	0004b783          	0x4b783
    a37c:	06113c23          	0x6113c23
    a380:	06813823          	0x6813823
    a384:	0447c703          	lbu	a4,68(a5)
    a388:	07213023          	0x7213023
    a38c:	05313c23          	0x5313c23
    a390:	05413823          	0x5413823
    a394:	05513423          	0x5513423
    a398:	05613023          	0x5613023
    a39c:	03713c23          	0x3713c23
    a3a0:	03813823          	0x3813823
    a3a4:	03913423          	0x3913423
    a3a8:	03a13023          	0x3a13023
    a3ac:	01b13c23          	0x1b13c23
    a3b0:	00176713          	ori	a4,a4,1
    a3b4:	04e78223          	sb	a4,68(a5)
    a3b8:	2307b783          	0x2307b783
    a3bc:	00079863          	bnez	a5,0xa3cc
    a3c0:	9c9f80ef          	jal	ra,0x2d88
    a3c4:	00050463          	beqz	a0,0xa3cc
    a3c8:	e99ff0ef          	jal	ra,0xa260
    a3cc:	c19ff0ef          	jal	ra,0x9fe4
    a3d0:	a39f80ef          	jal	ra,0x2e08
    a3d4:	00005a17          	auipc	s4,0x5
    a3d8:	18ca0a13          	addi	s4,s4,396 # 0xf560
    a3dc:	00005a97          	auipc	s5,0x5
    a3e0:	0cca8a93          	addi	s5,s5,204 # 0xf4a8
    a3e4:	01b00993          	li	s3,27
    a3e8:	0fd00b13          	li	s6,253
    a3ec:	00900b93          	li	s7,9
    a3f0:	07f00c13          	li	s8,127
    a3f4:	00005917          	auipc	s2,0x5
    a3f8:	13c90913          	addi	s2,s2,316 # 0xf530
    a3fc:	0004b783          	0x4b783
    a400:	000107a3          	sb	zero,15(sp)
    a404:	00079a63          	bnez	a5,0xa418
    a408:	0af00613          	li	a2,175
    a40c:	000a0593          	mv	a1,s4
    a410:	000a8513          	mv	a0,s5
    a414:	b81f80ef          	jal	ra,0x2f94
    a418:	0004b783          	0x4b783
    a41c:	00100693          	li	a3,1
    a420:	00f10613          	addi	a2,sp,15
    a424:	2307b503          	0x2307b503
    a428:	fff00593          	li	a1,-1
    a42c:	fd5f90ef          	jal	ra,0x4400
    a430:	00100793          	li	a5,1
    a434:	00f51e63          	bne	a0,a5,0xa450
    a438:	00f14c83          	lbu	s9,15(sp)
    a43c:	0004b403          	0x4b403
    a440:	000c859b          	0xc859b
    a444:	013c9c63          	bne	s9,s3,0xa45c
    a448:	04a42023          	sw	a0,64(s0)
    a44c:	fb1ff06f          	j	0xa3fc
    a450:	01400513          	li	a0,20
    a454:	b7cf90ef          	jal	ra,0x37d0
    a458:	fc1ff06f          	j	0xa418
    a45c:	04042783          	lw	a5,64(s0)
    a460:	02a79a63          	bne	a5,a0,0xa494
    a464:	05b00793          	li	a5,91
    a468:	00f59863          	bne	a1,a5,0xa478
    a46c:	00200793          	li	a5,2
    a470:	04f42023          	sw	a5,64(s0)
    a474:	f89ff06f          	j	0xa3fc
    a478:	04042023          	sw	zero,64(s0)
    a47c:	fffc879b          	0xfffc879b
    a480:	0ff7f793          	andi	a5,a5,255
    a484:	f6fb6ce3          	bltu	s6,a5,0xa3fc
    a488:	19759863          	bne	a1,s7,0xa618
    a48c:	00000c93          	li	s9,0
    a490:	1200006f          	j	0xa5b0
    a494:	00200713          	li	a4,2
    a498:	fee792e3          	bne	a5,a4,0xa47c
    a49c:	04042023          	sw	zero,64(s0)
    a4a0:	04100793          	li	a5,65
    a4a4:	06f59263          	bne	a1,a5,0xa508
    a4a8:	04645583          	lhu	a1,70(s0)
    a4ac:	f40588e3          	beqz	a1,0xa3fc
    a4b0:	fff5859b          	0xfff5859b
    a4b4:	03059593          	slli	a1,a1,0x30
    a4b8:	0305d593          	srli	a1,a1,0x30
    a4bc:	04b41323          	sh	a1,70(s0)
    a4c0:	00259793          	slli	a5,a1,0x2
    a4c4:	00f585b3          	add	a1,a1,a5
    a4c8:	00459593          	slli	a1,a1,0x4
    a4cc:	04a58593          	addi	a1,a1,74
    a4d0:	00b405b3          	add	a1,s0,a1
    a4d4:	05000613          	li	a2,80
    a4d8:	1da40513          	addi	a0,s0,474
    a4dc:	8fcf60ef          	jal	ra,0x5d8
    a4e0:	0004b403          	0x4b403
    a4e4:	1da40513          	addi	a0,s0,474
    a4e8:	880f60ef          	jal	ra,0x568
    a4ec:	03051513          	slli	a0,a0,0x30
    a4f0:	03055513          	srli	a0,a0,0x30
    a4f4:	22a41623          	sh	a0,556(s0)
    a4f8:	22a41723          	sh	a0,558(s0)
    a4fc:	00040513          	mv	a0,s0
    a500:	bb9ff0ef          	jal	ra,0xa0b8
    a504:	ef9ff06f          	j	0xa3fc
    a508:	04200793          	li	a5,66
    a50c:	02f59a63          	bne	a1,a5,0xa540
    a510:	04845683          	lhu	a3,72(s0)
    a514:	04645783          	lhu	a5,70(s0)
    a518:	fff6861b          	0xfff6861b
    a51c:	00c7dc63          	bge	a5,a2,0xa534
    a520:	0017879b          	0x17879b
    a524:	04f41323          	sh	a5,70(s0)
    a528:	04645783          	lhu	a5,70(s0)
    a52c:	00279593          	slli	a1,a5,0x2
    a530:	f95ff06f          	j	0xa4c4
    a534:	ec0684e3          	beqz	a3,0xa3fc
    a538:	04c41323          	sh	a2,70(s0)
    a53c:	fedff06f          	j	0xa528
    a540:	04400793          	li	a5,68
    a544:	02f59463          	bne	a1,a5,0xa56c
    a548:	22e45783          	lhu	a5,558(s0)
    a54c:	ea0788e3          	beqz	a5,0xa3fc
    a550:	00090513          	mv	a0,s2
    a554:	8b5f80ef          	jal	ra,0x2e08
    a558:	0004b703          	0x4b703
    a55c:	22e75783          	lhu	a5,558(a4) # 0x193ee
    a560:	fff7879b          	0xfff7879b
    a564:	22f71723          	sh	a5,558(a4)
    a568:	e95ff06f          	j	0xa3fc
    a56c:	04300793          	li	a5,67
    a570:	f0f596e3          	bne	a1,a5,0xa47c
    a574:	22c45703          	lhu	a4,556(s0)
    a578:	22e45783          	lhu	a5,558(s0)
    a57c:	e8e7f0e3          	bgeu	a5,a4,0xa3fc
    a580:	00f40433          	add	s0,s0,a5
    a584:	1da44583          	lbu	a1,474(s0)
    a588:	00003517          	auipc	a0,0x3
    a58c:	c9850513          	addi	a0,a0,-872 # 0xd220
    a590:	879f80ef          	jal	ra,0x2e08
    a594:	0004b703          	0x4b703
    a598:	22e75783          	lhu	a5,558(a4)
    a59c:	0017879b          	0x17879b
    a5a0:	fc5ff06f          	j	0xa564
    a5a4:	00090513          	mv	a0,s2
    a5a8:	861f80ef          	jal	ra,0x2e08
    a5ac:	001c8c9b          	0x1c8c9b
    a5b0:	0004b403          	0x4b403
    a5b4:	22e45783          	lhu	a5,558(s0)
    a5b8:	fefcc6e3          	blt	s9,a5,0xa5a4
    a5bc:	00005517          	auipc	a0,0x5
    a5c0:	fec50513          	addi	a0,a0,-20 # 0xf5a8
    a5c4:	845f80ef          	jal	ra,0x2e08
    a5c8:	36c020ef          	jal	ra,0xc934
    a5cc:	00100793          	li	a5,1
    a5d0:	1da40413          	addi	s0,s0,474
    a5d4:	00f51663          	bne	a0,a5,0xa5e0
    a5d8:	00040513          	mv	a0,s0
    a5dc:	079020ef          	jal	ra,0xce54
    a5e0:	a05ff0ef          	jal	ra,0x9fe4
    a5e4:	00050593          	mv	a1,a0
    a5e8:	00040613          	mv	a2,s0
    a5ec:	00005517          	auipc	a0,0x5
    a5f0:	ef450513          	addi	a0,a0,-268 # 0xf4e0
    a5f4:	815f80ef          	jal	ra,0x2e08
    a5f8:	0004b403          	0x4b403
    a5fc:	1da40513          	addi	a0,s0,474
    a600:	f69f50ef          	jal	ra,0x568
    a604:	03051513          	slli	a0,a0,0x30
    a608:	03055513          	srli	a0,a0,0x30
    a60c:	22a41623          	sh	a0,556(s0)
    a610:	22a41723          	sh	a0,558(s0)
    a614:	de9ff06f          	j	0xa3fc
    a618:	01858663          	beq	a1,s8,0xa624
    a61c:	00800793          	li	a5,8
    a620:	0af59e63          	bne	a1,a5,0xa6dc
    a624:	22e45503          	lhu	a0,558(s0)
    a628:	dc050ae3          	beqz	a0,0xa3fc
    a62c:	22c45783          	lhu	a5,556(s0)
    a630:	fff5051b          	0xfff5051b
    a634:	03051513          	slli	a0,a0,0x30
    a638:	fff7879b          	0xfff7879b
    a63c:	03079793          	slli	a5,a5,0x30
    a640:	03055513          	srli	a0,a0,0x30
    a644:	0307d793          	srli	a5,a5,0x30
    a648:	22f41623          	sh	a5,556(s0)
    a64c:	22a41723          	sh	a0,558(s0)
    a650:	0005061b          	0x5061b
    a654:	06f57463          	bgeu	a0,a5,0xa6bc
    a658:	1db60593          	addi	a1,a2,475
    a65c:	1da50513          	addi	a0,a0,474
    a660:	40c7863b          	0x40c7863b
    a664:	00b405b3          	add	a1,s0,a1
    a668:	00a40533          	add	a0,s0,a0
    a66c:	f5df70ef          	jal	ra,0x25c8
    a670:	0004b783          	0x4b783
    a674:	00005517          	auipc	a0,0x5
    a678:	ec450513          	addi	a0,a0,-316 # 0xf538
    a67c:	22c7d703          	lhu	a4,556(a5)
    a680:	00e78733          	add	a4,a5,a4
    a684:	1c070d23          	sb	zero,474(a4)
    a688:	22e7d583          	lhu	a1,558(a5)
    a68c:	1da58593          	addi	a1,a1,474
    a690:	00b785b3          	add	a1,a5,a1
    a694:	f74f80ef          	jal	ra,0x2e08
    a698:	0004b783          	0x4b783
    a69c:	22e7d403          	lhu	s0,558(a5)
    a6a0:	0004b783          	0x4b783
    a6a4:	22c7d783          	lhu	a5,556(a5)
    a6a8:	d487cae3          	blt	a5,s0,0xa3fc
    a6ac:	00090513          	mv	a0,s2
    a6b0:	f58f80ef          	jal	ra,0x2e08
    a6b4:	0014041b          	0x14041b
    a6b8:	fe9ff06f          	j	0xa6a0
    a6bc:	00005517          	auipc	a0,0x5
    a6c0:	e8450513          	addi	a0,a0,-380 # 0xf540
    a6c4:	f44f80ef          	jal	ra,0x2e08
    a6c8:	0004b783          	0x4b783
    a6cc:	22c7d703          	lhu	a4,556(a5)
    a6d0:	00e787b3          	add	a5,a5,a4
    a6d4:	1c078d23          	sb	zero,474(a5)
    a6d8:	d25ff06f          	j	0xa3fc
    a6dc:	00d00713          	li	a4,13
    a6e0:	22c45783          	lhu	a5,556(s0)
    a6e4:	00e58663          	beq	a1,a4,0xa6f0
    a6e8:	00a00713          	li	a4,10
    a6ec:	16e59063          	bne	a1,a4,0xa84c
    a6f0:	06078a63          	beqz	a5,0xa764
    a6f4:	04845d03          	lhu	s10,72(s0)
    a6f8:	00400793          	li	a5,4
    a6fc:	1da40c93          	addi	s9,s0,474
    a700:	000d051b          	0xd051b
    a704:	0da7f463          	bgeu	a5,s10,0xa7cc
    a708:	18a40d93          	addi	s11,s0,394
    a70c:	05000613          	li	a2,80
    a710:	000c8593          	mv	a1,s9
    a714:	000d8513          	mv	a0,s11
    a718:	ec5f50ef          	jal	ra,0x5dc
    a71c:	04050463          	beqz	a0,0xa764
    a720:	04a40d13          	addi	s10,s0,74
    a724:	000d0513          	mv	a0,s10
    a728:	050d0d13          	addi	s10,s10,80
    a72c:	05000613          	li	a2,80
    a730:	000d0593          	mv	a1,s10
    a734:	ea5f50ef          	jal	ra,0x5d8
    a738:	ffad96e3          	bne	s11,s10,0xa724
    a73c:	05000613          	li	a2,80
    a740:	00000593          	li	a1,0
    a744:	000d8513          	mv	a0,s11
    a748:	e8df50ef          	jal	ra,0x5d4
    a74c:	22c45603          	lhu	a2,556(s0)
    a750:	000c8593          	mv	a1,s9
    a754:	000d8513          	mv	a0,s11
    a758:	e81f50ef          	jal	ra,0x5d8
    a75c:	00500793          	li	a5,5
    a760:	04f41423          	sh	a5,72(s0)
    a764:	04845783          	lhu	a5,72(s0)
    a768:	04f41323          	sh	a5,70(s0)
    a76c:	1c8020ef          	jal	ra,0xc934
    a770:	00100793          	li	a5,1
    a774:	02f51863          	bne	a0,a5,0xa7a4
    a778:	0004b783          	0x4b783
    a77c:	0447c783          	lbu	a5,68(a5)
    a780:	0017f793          	andi	a5,a5,1
    a784:	00078863          	beqz	a5,0xa794
    a788:	00005517          	auipc	a0,0x5
    a78c:	e2050513          	addi	a0,a0,-480 # 0xf5a8
    a790:	e78f80ef          	jal	ra,0x2e08
    a794:	0004b503          	0x4b503
    a798:	22c55583          	lhu	a1,556(a0)
    a79c:	1da50513          	addi	a0,a0,474
    a7a0:	19c020ef          	jal	ra,0xc93c
    a7a4:	841ff0ef          	jal	ra,0x9fe4
    a7a8:	e60f80ef          	jal	ra,0x2e08
    a7ac:	0004b503          	0x4b503
    a7b0:	05100613          	li	a2,81
    a7b4:	00000593          	li	a1,0
    a7b8:	1da50513          	addi	a0,a0,474
    a7bc:	e19f50ef          	jal	ra,0x5d4
    a7c0:	0004b783          	0x4b783
    a7c4:	2207a623          	sw	zero,556(a5)
    a7c8:	c35ff06f          	j	0xa3fc
    a7cc:	020d0663          	beqz	s10,0xa7f8
    a7d0:	fff5079b          	0xfff5079b
    a7d4:	00279513          	slli	a0,a5,0x2
    a7d8:	00f50533          	add	a0,a0,a5
    a7dc:	00451513          	slli	a0,a0,0x4
    a7e0:	04a50513          	addi	a0,a0,74
    a7e4:	05000613          	li	a2,80
    a7e8:	000c8593          	mv	a1,s9
    a7ec:	00a40533          	add	a0,s0,a0
    a7f0:	dedf50ef          	jal	ra,0x5dc
    a7f4:	f60508e3          	beqz	a0,0xa764
    a7f8:	002d1513          	slli	a0,s10,0x2
    a7fc:	01a50533          	add	a0,a0,s10
    a800:	00451513          	slli	a0,a0,0x4
    a804:	04a50513          	addi	a0,a0,74
    a808:	05000613          	li	a2,80
    a80c:	00000593          	li	a1,0
    a810:	05a41323          	sh	s10,70(s0)
    a814:	00a40533          	add	a0,s0,a0
    a818:	dbdf50ef          	jal	ra,0x5d4
    a81c:	04845783          	lhu	a5,72(s0)
    a820:	22c45603          	lhu	a2,556(s0)
    a824:	000c8593          	mv	a1,s9
    a828:	00279513          	slli	a0,a5,0x2
    a82c:	00f50533          	add	a0,a0,a5
    a830:	00451513          	slli	a0,a0,0x4
    a834:	04a50513          	addi	a0,a0,74
    a838:	00a40533          	add	a0,s0,a0
    a83c:	d9df50ef          	jal	ra,0x5d8
    a840:	04845783          	lhu	a5,72(s0)
    a844:	0017879b          	0x17879b
    a848:	f19ff06f          	j	0xa760
    a84c:	04f00713          	li	a4,79
    a850:	00f77463          	bgeu	a4,a5,0xa858
    a854:	22041623          	sh	zero,556(s0)
    a858:	22e45703          	lhu	a4,558(s0)
    a85c:	22c45783          	lhu	a5,556(s0)
    a860:	0007061b          	0x7061b
    a864:	0af77263          	bgeu	a4,a5,0xa908
    a868:	1da70593          	addi	a1,a4,474
    a86c:	1db60513          	addi	a0,a2,475
    a870:	00b405b3          	add	a1,s0,a1
    a874:	40c7863b          	0x40c7863b
    a878:	00a40533          	add	a0,s0,a0
    a87c:	d4df70ef          	jal	ra,0x25c8
    a880:	0004b583          	0x4b583
    a884:	22e5d783          	lhu	a5,558(a1)
    a888:	00f58733          	add	a4,a1,a5
    a88c:	1d970d23          	sb	s9,474(a4)
    a890:	0445c703          	lbu	a4,68(a1)
    a894:	00177713          	andi	a4,a4,1
    a898:	00070c63          	beqz	a4,0xa8b0
    a89c:	1da78793          	addi	a5,a5,474
    a8a0:	00f585b3          	add	a1,a1,a5
    a8a4:	00004517          	auipc	a0,0x4
    a8a8:	3cc50513          	addi	a0,a0,972 # 0xec70
    a8ac:	d5cf80ef          	jal	ra,0x2e08
    a8b0:	0004b783          	0x4b783
    a8b4:	22e7d403          	lhu	s0,558(a5)
    a8b8:	0004b783          	0x4b783
    a8bc:	22c7d783          	lhu	a5,556(a5)
    a8c0:	02f44c63          	blt	s0,a5,0xa8f8
    a8c4:	0004b703          	0x4b703
    a8c8:	22c75783          	lhu	a5,556(a4)
    a8cc:	22e75683          	lhu	a3,558(a4)
    a8d0:	0017879b          	0x17879b
    a8d4:	03079793          	slli	a5,a5,0x30
    a8d8:	0016869b          	0x16869b
    a8dc:	0307d793          	srli	a5,a5,0x30
    a8e0:	22d71723          	sh	a3,558(a4)
    a8e4:	22f71623          	sh	a5,556(a4)
    a8e8:	04f00693          	li	a3,79
    a8ec:	b0f6f8e3          	bgeu	a3,a5,0xa3fc
    a8f0:	22072623          	sw	zero,556(a4)
    a8f4:	b09ff06f          	j	0xa3fc
    a8f8:	00090513          	mv	a0,s2
    a8fc:	d0cf80ef          	jal	ra,0x2e08
    a900:	0014041b          	0x14041b
    a904:	fb5ff06f          	j	0xa8b8
    a908:	00f407b3          	add	a5,s0,a5
    a90c:	1d978d23          	sb	s9,474(a5)
    a910:	04444783          	lbu	a5,68(s0)
    a914:	0017f793          	andi	a5,a5,1
    a918:	fa0786e3          	beqz	a5,0xa8c4
    a91c:	00003517          	auipc	a0,0x3
    a920:	90450513          	addi	a0,a0,-1788 # 0xd220
    a924:	ce4f80ef          	jal	ra,0x2e08
    a928:	f9dff06f          	j	0xa8c4
    a92c:	00050793          	mv	a5,a0
    a930:	00050713          	mv	a4,a0
    a934:	00000513          	li	a0,0
    a938:	00073703          	0x73703
    a93c:	00f71463          	bne	a4,a5,0xa944
    a940:	00008067          	ret
    a944:	0015051b          	0x15051b
    a948:	ff1ff06f          	j	0xa938
    a94c:	ff010113          	addi	sp,sp,-16
    a950:	00005517          	auipc	a0,0x5
    a954:	c4850513          	addi	a0,a0,-952 # 0xf598
    a958:	00113423          	0x113423
    a95c:	cacf80ef          	jal	ra,0x2e08
    a960:	00813083          	0x813083
    a964:	00000513          	li	a0,0
    a968:	01010113          	addi	sp,sp,16
    a96c:	00008067          	ret
    a970:	ff010113          	addi	sp,sp,-16
    a974:	00005517          	auipc	a0,0x5
    a978:	c3c50513          	addi	a0,a0,-964 # 0xf5b0
    a97c:	00113423          	0x113423
    a980:	c88f80ef          	jal	ra,0x2e08
    a984:	00813083          	0x813083
    a988:	00000513          	li	a0,0
    a98c:	01010113          	addi	sp,sp,16
    a990:	00008067          	ret
    a994:	fd010113          	addi	sp,sp,-48
    a998:	00913c23          	0x913c23
    a99c:	00053483          	0x53483
    a9a0:	02813023          	0x2813023
    a9a4:	01213823          	0x1213823
    a9a8:	01313423          	0x1313423
    a9ac:	02113423          	0x2113423
    a9b0:	00050413          	mv	s0,a0
    a9b4:	00004917          	auipc	s2,0x4
    a9b8:	2bc90913          	addi	s2,s2,700 # 0xec70
    a9bc:	00004997          	auipc	s3,0x4
    a9c0:	29c98993          	addi	s3,s3,668 # 0xec58
    a9c4:	02849063          	bne	s1,s0,0xa9e4
    a9c8:	02813083          	0x2813083
    a9cc:	02013403          	0x2013403
    a9d0:	01813483          	0x1813483
    a9d4:	01013903          	0x1013903
    a9d8:	00813983          	0x813983
    a9dc:	03010113          	addi	sp,sp,48
    a9e0:	00008067          	ret
    a9e4:	fd848593          	addi	a1,s1,-40
    a9e8:	00090513          	mv	a0,s2
    a9ec:	c1cf80ef          	jal	ra,0x2e08
    a9f0:	0004b783          	0x4b783
    a9f4:	00878663          	beq	a5,s0,0xaa00
    a9f8:	00098513          	mv	a0,s3
    a9fc:	c0cf80ef          	jal	ra,0x2e08
    aa00:	0004b483          	0x4b483
    aa04:	fc1ff06f          	j	0xa9c4
    aa08:	ff010113          	addi	sp,sp,-16
    aa0c:	00113423          	0x113423
    aa10:	cacf80ef          	jal	ra,0x2ebc
    aa14:	00813083          	0x813083
    aa18:	00000513          	li	a0,0
    aa1c:	01010113          	addi	sp,sp,16
    aa20:	00008067          	ret
    aa24:	fd010113          	addi	sp,sp,-48
    aa28:	00005517          	auipc	a0,0x5
    aa2c:	b9050513          	addi	a0,a0,-1136 # 0xf5b8
    aa30:	02813023          	0x2813023
    aa34:	01213823          	0x1213823
    aa38:	01313423          	0x1313423
    aa3c:	01413023          	0x1413023
    aa40:	02113423          	0x2113423
    aa44:	00913c23          	0x913c23
    aa48:	0000f917          	auipc	s2,0xf
    aa4c:	89890913          	addi	s2,s2,-1896 # 0x192e0
    aa50:	bb8f80ef          	jal	ra,0x2e08
    aa54:	00005997          	auipc	s3,0x5
    aa58:	b7c98993          	addi	s3,s3,-1156 # 0xf5d0
    aa5c:	0000f417          	auipc	s0,0xf
    aa60:	87c43403          	0x87c43403
    aa64:	00005a17          	auipc	s4,0x5
    aa68:	b74a0a13          	addi	s4,s4,-1164 # 0xf5d8
    aa6c:	00093783          	0x93783
    aa70:	02f46463          	bltu	s0,a5,0xaa98
    aa74:	02813083          	0x2813083
    aa78:	02013403          	0x2013403
    aa7c:	01813483          	0x1813483
    aa80:	01013903          	0x1013903
    aa84:	00813983          	0x813983
    aa88:	00013a03          	0x13a03
    aa8c:	00000513          	li	a0,0
    aa90:	03010113          	addi	sp,sp,48
    aa94:	00008067          	ret
    aa98:	00043483          	0x43483
    aa9c:	00200613          	li	a2,2
    aaa0:	00098593          	mv	a1,s3
    aaa4:	00048513          	mv	a0,s1
    aaa8:	b29f50ef          	jal	ra,0x5d0
    aaac:	00050a63          	beqz	a0,0xaac0
    aab0:	00843603          	0x843603
    aab4:	00048593          	mv	a1,s1
    aab8:	000a0513          	mv	a0,s4
    aabc:	b4cf80ef          	jal	ra,0x2e08
    aac0:	01840413          	addi	s0,s0,24 # 0x19a74
    aac4:	fa9ff06f          	j	0xaa6c
    aac8:	0145a783          	lw	a5,20(a1)
    aacc:	0005ac23          	sw	zero,24(a1)
    aad0:	0c078863          	beqz	a5,0xaba0
    aad4:	0105c783          	lbu	a5,16(a1)
    aad8:	fd010113          	addi	sp,sp,-48
    aadc:	02813023          	0x2813023
    aae0:	00913c23          	0x913c23
    aae4:	02113423          	0x2113423
    aae8:	01213823          	0x1213823
    aaec:	01313423          	0x1313423
    aaf0:	00050413          	mv	s0,a0
    aaf4:	00058493          	mv	s1,a1
    aaf8:	00000513          	li	a0,0
    aafc:	02078e63          	beqz	a5,0xab38
    ab00:	0005b983          	0x5b983
    ab04:	00000913          	li	s2,0
    ab08:	00041663          	bnez	s0,0xab14
    ab0c:	00098413          	mv	s0,s3
    ab10:	00100913          	li	s2,1
    ab14:	d3cf50ef          	jal	ra,0x50
    ab18:	00050713          	mv	a4,a0
    ab1c:	02091c63          	bnez	s2,0xab54
    ab20:	ffc44783          	lbu	a5,-4(s0)
    ab24:	0104c683          	lbu	a3,16(s1)
    ab28:	07f7f793          	andi	a5,a5,127
    ab2c:	02f68463          	beq	a3,a5,0xab54
    ab30:	d28f50ef          	jal	ra,0x58
    ab34:	00000513          	li	a0,0
    ab38:	02813083          	0x2813083
    ab3c:	02013403          	0x2013403
    ab40:	01813483          	0x1813483
    ab44:	01013903          	0x1013903
    ab48:	00813983          	0x813983
    ab4c:	03010113          	addi	sp,sp,48
    ab50:	00008067          	ret
    ab54:	0084b603          	0x84b603
    ab58:	00000793          	li	a5,0
    ab5c:	00043403          	0x43403
    ab60:	0007891b          	0x7891b
    ab64:	02898a63          	beq	s3,s0,0xab98
    ab68:	00379693          	slli	a3,a5,0x3
    ab6c:	0144a903          	lw	s2,20(s1)
    ab70:	00d606b3          	add	a3,a2,a3
    ab74:	00178793          	addi	a5,a5,1
    ab78:	0086b023          	0x86b023
    ab7c:	0007869b          	0x7869b
    ab80:	fcd91ee3          	bne	s2,a3,0xab5c
    ab84:	00070513          	mv	a0,a4
    ab88:	cd0f50ef          	jal	ra,0x58
    ab8c:	00040513          	mv	a0,s0
    ab90:	0124ac23          	sw	s2,24(s1)
    ab94:	fa5ff06f          	j	0xab38
    ab98:	00000413          	li	s0,0
    ab9c:	fe9ff06f          	j	0xab84
    aba0:	00000513          	li	a0,0
    aba4:	00008067          	ret
    aba8:	fe010113          	addi	sp,sp,-32
    abac:	00813823          	0x813823
    abb0:	00913423          	0x913423
    abb4:	00113c23          	0x113c23
    abb8:	01500413          	li	s0,21
    abbc:	00005497          	auipc	s1,0x5
    abc0:	a2c48493          	addi	s1,s1,-1492 # 0xf5e8
    abc4:	fff4041b          	0xfff4041b
    abc8:	00041c63          	bnez	s0,0xabe0
    abcc:	01813083          	0x1813083
    abd0:	01013403          	0x1013403
    abd4:	00813483          	0x813483
    abd8:	02010113          	addi	sp,sp,32
    abdc:	00008067          	ret
    abe0:	00048513          	mv	a0,s1
    abe4:	a24f80ef          	jal	ra,0x2e08
    abe8:	fddff06f          	j	0xabc4
    abec:	e2010113          	addi	sp,sp,-480
    abf0:	00100513          	li	a0,1
    abf4:	1c113c23          	0x1c113c23
    abf8:	1c913423          	0x1c913423
    abfc:	1b413823          	0x1b413823
    ac00:	1b513423          	0x1b513423
    ac04:	1b613023          	0x1b613023
    ac08:	19713c23          	0x19713c23
    ac0c:	1c813823          	0x1c813823
    ac10:	1d213023          	0x1d213023
    ac14:	1b313c23          	0x1b313c23
    ac18:	19813823          	0x19813823
    ac1c:	19913423          	0x19913423
    ac20:	19a13023          	0x19a13023
    ac24:	17b13c23          	0x17b13c23
    ac28:	880f90ef          	jal	ra,0x3ca8
    ac2c:	00850513          	addi	a0,a0,8
    ac30:	00100793          	li	a5,1
    ac34:	00005617          	auipc	a2,0x5
    ac38:	9bc60613          	addi	a2,a2,-1604 # 0xf5f0
    ac3c:	01400593          	li	a1,20
    ac40:	02a13423          	0x2a13423
    ac44:	02f10c23          	sb	a5,56(sp)
    ac48:	00005517          	auipc	a0,0x5
    ac4c:	9b050513          	addi	a0,a0,-1616 # 0xf5f8
    ac50:	00800793          	li	a5,8
    ac54:	04810a13          	addi	s4,sp,72
    ac58:	02f12e23          	sw	a5,60(sp)
    ac5c:	03413823          	0x3413823
    ac60:	04012023          	sw	zero,64(sp)
    ac64:	9a4f80ef          	jal	ra,0x2e08
    ac68:	f41ff0ef          	jal	ra,0xaba8
    ac6c:	00005517          	auipc	a0,0x5
    ac70:	9d450513          	addi	a0,a0,-1580 # 0xf640
    ac74:	994f80ef          	jal	ra,0x2e08
    ac78:	00000493          	li	s1,0
    ac7c:	00005a97          	auipc	s5,0x5
    ac80:	a04a8a93          	addi	s5,s5,-1532 # 0xf680
    ac84:	00100b13          	li	s6,1
    ac88:	00005b97          	auipc	s7,0x5
    ac8c:	a58b8b93          	addi	s7,s7,-1448 # 0xf6e0
    ac90:	00048513          	mv	a0,s1
    ac94:	02810593          	addi	a1,sp,40
    ac98:	e31ff0ef          	jal	ra,0xaac8
    ac9c:	00050493          	mv	s1,a0
    aca0:	000a0993          	mv	s3,s4
    aca4:	00000913          	li	s2,0
    aca8:	02300c13          	li	s8,35
    acac:	00200c93          	li	s9,2
    acb0:	00400d13          	li	s10,4
    acb4:	00300d93          	li	s11,3
    acb8:	04012783          	lw	a5,64(sp)
    acbc:	04f94463          	blt	s2,a5,0xad04
    acc0:	fc0498e3          	bnez	s1,0xac90
    acc4:	1d813083          	0x1d813083
    acc8:	1d013403          	0x1d013403
    accc:	1c813483          	0x1c813483
    acd0:	1c013903          	0x1c013903
    acd4:	1b813983          	0x1b813983
    acd8:	1b013a03          	0x1b013a03
    acdc:	1a813a83          	0x1a813a83
    ace0:	1a013b03          	0x1a013b03
    ace4:	19813b83          	0x19813b83
    ace8:	19013c03          	0x19013c03
    acec:	18813c83          	0x18813c83
    acf0:	18013d03          	0x18013d03
    acf4:	17813d83          	0x17813d83
    acf8:	00000513          	li	a0,0
    acfc:	1e010113          	addi	sp,sp,480
    ad00:	00008067          	ret
    ad04:	0009b403          	0x9b403
    ad08:	b48f50ef          	jal	ra,0x50
    ad0c:	03814683          	lbu	a3,56(sp)
    ad10:	ffc44703          	lbu	a4,-4(s0)
    ad14:	07f77713          	andi	a4,a4,127
    ad18:	00e68a63          	beq	a3,a4,0xad2c
    ad1c:	b3cf50ef          	jal	ra,0x58
    ad20:	0019091b          	0x19091b
    ad24:	00898993          	addi	s3,s3,8
    ad28:	f91ff06f          	j	0xacb8
    ad2c:	fe840693          	addi	a3,s0,-24
    ad30:	00068593          	mv	a1,a3
    ad34:	0e800613          	li	a2,232
    ad38:	00a13423          	0xa13423
    ad3c:	08810513          	addi	a0,sp,136
    ad40:	00d13023          	0xd13023
    ad44:	895f50ef          	jal	ra,0x5d8
    ad48:	00813783          	0x813783
    ad4c:	00078513          	mv	a0,a5
    ad50:	b08f50ef          	jal	ra,0x58
    ad54:	05144703          	lbu	a4,81(s0)
    ad58:	00013683          	0x13683
    ad5c:	000a8513          	mv	a0,s5
    ad60:	01400613          	li	a2,20
    ad64:	01400593          	li	a1,20
    ad68:	8a0f80ef          	jal	ra,0x2e08
    ad6c:	05044783          	lbu	a5,80(s0)
    ad70:	00005517          	auipc	a0,0x5
    ad74:	92050513          	addi	a0,a0,-1760 # 0xf690
    ad78:	0077f793          	andi	a5,a5,7
    ad7c:	03678a63          	beq	a5,s6,0xadb0
    ad80:	00005517          	auipc	a0,0x5
    ad84:	92050513          	addi	a0,a0,-1760 # 0xf6a0
    ad88:	03978463          	beq	a5,s9,0xadb0
    ad8c:	00005517          	auipc	a0,0x5
    ad90:	92450513          	addi	a0,a0,-1756 # 0xf6b0
    ad94:	00078e63          	beqz	a5,0xadb0
    ad98:	00005517          	auipc	a0,0x5
    ad9c:	92850513          	addi	a0,a0,-1752 # 0xf6c0
    ada0:	01a78863          	beq	a5,s10,0xadb0
    ada4:	01b79863          	bne	a5,s11,0xadb4
    ada8:	00005517          	auipc	a0,0x5
    adac:	92850513          	addi	a0,a0,-1752 # 0xf6d0
    adb0:	858f80ef          	jal	ra,0x2e08
    adb4:	03843803          	0x3843803
    adb8:	00080513          	mv	a0,a6
    adbc:	00054783          	lbu	a5,0(a0)
    adc0:	07878863          	beq	a5,s8,0xae30
    adc4:	04042603          	lw	a2,64(s0)
    adc8:	04843783          	0x4843783
    adcc:	06843703          	0x6843703
    add0:	02061593          	slli	a1,a2,0x20
    add4:	0205d593          	srli	a1,a1,0x20
    add8:	00b80833          	add	a6,a6,a1
    addc:	40a80533          	sub	a0,a6,a0
    ade0:	00151693          	slli	a3,a0,0x1
    ade4:	00a686b3          	add	a3,a3,a0
    ade8:	00369693          	slli	a3,a3,0x3
    adec:	00a68533          	add	a0,a3,a0
    adf0:	00251513          	slli	a0,a0,0x2
    adf4:	00c13c23          	0xc13c23
    adf8:	00f13823          	0xf13823
    adfc:	00e13423          	0xe13423
    ae00:	01013023          	0x1013023
    ae04:	be8f50ef          	jal	ra,0x1ec
    ae08:	02043583          	0x2043583
    ae0c:	00013803          	0x13803
    ae10:	01013783          	0x1013783
    ae14:	00813703          	0x813703
    ae18:	01813603          	0x1813603
    ae1c:	00050693          	mv	a3,a0
    ae20:	40b805b3          	sub	a1,a6,a1
    ae24:	000b8513          	mv	a0,s7
    ae28:	fe1f70ef          	jal	ra,0x2e08
    ae2c:	ef5ff06f          	j	0xad20
    ae30:	00150513          	addi	a0,a0,1
    ae34:	f89ff06f          	j	0xadbc
    ae38:	f5010113          	addi	sp,sp,-176
    ae3c:	00900513          	li	a0,9
    ae40:	0a113423          	0xa113423
    ae44:	0a813023          	0xa813023
    ae48:	09313423          	0x9313423
    ae4c:	09413023          	0x9413023
    ae50:	07513c23          	0x7513c23
    ae54:	07613823          	0x7613823
    ae58:	07713423          	0x7713423
    ae5c:	08913c23          	0x8913c23
    ae60:	09213823          	0x9213823
    ae64:	07813023          	0x7813023
    ae68:	e41f80ef          	jal	ra,0x3ca8
    ae6c:	00850513          	addi	a0,a0,8
    ae70:	00900793          	li	a5,9
    ae74:	00004617          	auipc	a2,0x4
    ae78:	2bc60613          	addi	a2,a2,700 # 0xf130
    ae7c:	01400593          	li	a1,20
    ae80:	00a13023          	0xa13023
    ae84:	00f10823          	sb	a5,16(sp)
    ae88:	00005517          	auipc	a0,0x5
    ae8c:	88850513          	addi	a0,a0,-1912 # 0xf710
    ae90:	00800793          	li	a5,8
    ae94:	02010993          	addi	s3,sp,32
    ae98:	00f12a23          	sw	a5,20(sp)
    ae9c:	01313423          	0x1313423
    aea0:	00012c23          	sw	zero,24(sp)
    aea4:	f65f70ef          	jal	ra,0x2e08
    aea8:	d01ff0ef          	jal	ra,0xaba8
    aeac:	00005517          	auipc	a0,0x5
    aeb0:	88c50513          	addi	a0,a0,-1908 # 0xf738
    aeb4:	f55f70ef          	jal	ra,0x2e08
    aeb8:	00000413          	li	s0,0
    aebc:	01600a13          	li	s4,22
    aec0:	00005a97          	auipc	s5,0x5
    aec4:	848a8a93          	addi	s5,s5,-1976 # 0xf708
    aec8:	00005b17          	auipc	s6,0x5
    aecc:	898b0b13          	addi	s6,s6,-1896 # 0xf760
    aed0:	00005b97          	auipc	s7,0x5
    aed4:	d90b8b93          	addi	s7,s7,-624 # 0xfc60
    aed8:	00040513          	mv	a0,s0
    aedc:	00010593          	mv	a1,sp
    aee0:	be9ff0ef          	jal	ra,0xaac8
    aee4:	00050413          	mv	s0,a0
    aee8:	00098913          	mv	s2,s3
    aeec:	00000493          	li	s1,0
    aef0:	01812783          	lw	a5,24(sp)
    aef4:	02f4ce63          	blt	s1,a5,0xaf30
    aef8:	fe0410e3          	bnez	s0,0xaed8
    aefc:	0a813083          	0xa813083
    af00:	0a013403          	0xa013403
    af04:	09813483          	0x9813483
    af08:	09013903          	0x9013903
    af0c:	08813983          	0x8813983
    af10:	08013a03          	0x8013a03
    af14:	07813a83          	0x7813a83
    af18:	07013b03          	0x7013b03
    af1c:	06813b83          	0x6813b83
    af20:	06013c03          	0x6013c03
    af24:	00000513          	li	a0,0
    af28:	0b010113          	addi	sp,sp,176
    af2c:	00008067          	ret
    af30:	00093c03          	0x93c03
    af34:	91cf50ef          	jal	ra,0x50
    af38:	01014703          	lbu	a4,16(sp)
    af3c:	ffcc4783          	lbu	a5,-4(s8)
    af40:	07f7f793          	andi	a5,a5,127
    af44:	00f70a63          	beq	a4,a5,0xaf58
    af48:	910f50ef          	jal	ra,0x58
    af4c:	0014849b          	0x14849b
    af50:	00890913          	addi	s2,s2,8
    af54:	f9dff06f          	j	0xaef0
    af58:	900f50ef          	jal	ra,0x58
    af5c:	010c2783          	lw	a5,16(s8)
    af60:	fe8c0693          	addi	a3,s8,-24
    af64:	000a8713          	mv	a4,s5
    af68:	00fa6a63          	bltu	s4,a5,0xaf7c
    af6c:	02079793          	slli	a5,a5,0x20
    af70:	01d7d793          	srli	a5,a5,0x1d
    af74:	00fb87b3          	add	a5,s7,a5
    af78:	0007b703          	0x7b703
    af7c:	018c4783          	lbu	a5,24(s8)
    af80:	01400613          	li	a2,20
    af84:	01400593          	li	a1,20
    af88:	000b0513          	mv	a0,s6
    af8c:	e7df70ef          	jal	ra,0x2e08
    af90:	fbdff06f          	j	0xaf4c
    af94:	f5010113          	addi	sp,sp,-176
    af98:	00300513          	li	a0,3
    af9c:	0a113423          	0xa113423
    afa0:	0a813023          	0xa813023
    afa4:	09413023          	0x9413023
    afa8:	07513c23          	0x7513c23
    afac:	08913c23          	0x8913c23
    afb0:	09213823          	0x9213823
    afb4:	09313423          	0x9313423
    afb8:	cf1f80ef          	jal	ra,0x3ca8
    afbc:	00850513          	addi	a0,a0,8
    afc0:	00300793          	li	a5,3
    afc4:	00004617          	auipc	a2,0x4
    afc8:	7b460613          	addi	a2,a2,1972 # 0xf778
    afcc:	01400593          	li	a1,20
    afd0:	00a13823          	0xa13823
    afd4:	02f10023          	sb	a5,32(sp)
    afd8:	00004517          	auipc	a0,0x4
    afdc:	7a850513          	addi	a0,a0,1960 # 0xf780
    afe0:	00800793          	li	a5,8
    afe4:	03010a13          	addi	s4,sp,48
    afe8:	02f12223          	sw	a5,36(sp)
    afec:	01413c23          	0x1413c23
    aff0:	02012423          	sw	zero,40(sp)
    aff4:	e15f70ef          	jal	ra,0x2e08
    aff8:	bb1ff0ef          	jal	ra,0xaba8
    affc:	00004517          	auipc	a0,0x4
    b000:	7ac50513          	addi	a0,a0,1964 # 0xf7a8
    b004:	e05f70ef          	jal	ra,0x2e08
    b008:	00000413          	li	s0,0
    b00c:	00004a97          	auipc	s5,0x4
    b010:	7bca8a93          	addi	s5,s5,1980 # 0xf7c8
    b014:	00040513          	mv	a0,s0
    b018:	01010593          	addi	a1,sp,16
    b01c:	aadff0ef          	jal	ra,0xaac8
    b020:	00050413          	mv	s0,a0
    b024:	000a0993          	mv	s3,s4
    b028:	00000913          	li	s2,0
    b02c:	02812783          	lw	a5,40(sp)
    b030:	02f94863          	blt	s2,a5,0xb060
    b034:	fe0410e3          	bnez	s0,0xb014
    b038:	0a813083          	0xa813083
    b03c:	0a013403          	0xa013403
    b040:	09813483          	0x9813483
    b044:	09013903          	0x9013903
    b048:	08813983          	0x8813983
    b04c:	08013a03          	0x8013a03
    b050:	07813a83          	0x7813a83
    b054:	00000513          	li	a0,0
    b058:	0b010113          	addi	sp,sp,176
    b05c:	00008067          	ret
    b060:	0009b483          	0x9b483
    b064:	fedf40ef          	jal	ra,0x50
    b068:	02014703          	lbu	a4,32(sp)
    b06c:	ffc4c783          	lbu	a5,-4(s1)
    b070:	07f7f793          	andi	a5,a5,127
    b074:	00f70a63          	beq	a4,a5,0xb088
    b078:	fe1f40ef          	jal	ra,0x58
    b07c:	0019091b          	0x19091b
    b080:	00898993          	addi	s3,s3,8
    b084:	fa9ff06f          	j	0xb02c
    b088:	fd1f40ef          	jal	ra,0x58
    b08c:	fe848693          	addi	a3,s1,-24
    b090:	01048513          	addi	a0,s1,16
    b094:	00d13423          	0xd13423
    b098:	895ff0ef          	jal	ra,0xa92c
    b09c:	0234c803          	lbu	a6,35(s1)
    b0a0:	0284b783          	0x284b783
    b0a4:	00813683          	0x813683
    b0a8:	0005089b          	0x5089b
    b0ac:	01400713          	li	a4,20
    b0b0:	01400613          	li	a2,20
    b0b4:	01400593          	li	a1,20
    b0b8:	000a8513          	mv	a0,s5
    b0bc:	d4df70ef          	jal	ra,0x2e08
    b0c0:	fbdff06f          	j	0xb07c
    b0c4:	f5010113          	addi	sp,sp,-176
    b0c8:	00a00513          	li	a0,10
    b0cc:	0a113423          	0xa113423
    b0d0:	0a813023          	0xa813023
    b0d4:	09413023          	0x9413023
    b0d8:	07513c23          	0x7513c23
    b0dc:	07613823          	0x7613823
    b0e0:	07713423          	0x7713423
    b0e4:	08913c23          	0x8913c23
    b0e8:	09213823          	0x9213823
    b0ec:	09313423          	0x9313423
    b0f0:	bb9f80ef          	jal	ra,0x3ca8
    b0f4:	00850513          	addi	a0,a0,8
    b0f8:	00a00793          	li	a5,10
    b0fc:	00002617          	auipc	a2,0x2
    b100:	5f460613          	addi	a2,a2,1524 # 0xd6f0
    b104:	01400593          	li	a1,20
    b108:	00a13023          	0xa13023
    b10c:	00f10823          	sb	a5,16(sp)
    b110:	00004517          	auipc	a0,0x4
    b114:	6d050513          	addi	a0,a0,1744 # 0xf7e0
    b118:	00800793          	li	a5,8
    b11c:	02010a13          	addi	s4,sp,32
    b120:	00f12a23          	sw	a5,20(sp)
    b124:	01413423          	0x1413423
    b128:	00012c23          	sw	zero,24(sp)
    b12c:	cddf70ef          	jal	ra,0x2e08
    b130:	a79ff0ef          	jal	ra,0xaba8
    b134:	00004517          	auipc	a0,0x4
    b138:	6d450513          	addi	a0,a0,1748 # 0xf808
    b13c:	ccdf70ef          	jal	ra,0x2e08
    b140:	00000413          	li	s0,0
    b144:	00004a97          	auipc	s5,0x4
    b148:	6eca8a93          	addi	s5,s5,1772 # 0xf830
    b14c:	00004b17          	auipc	s6,0x4
    b150:	70cb0b13          	addi	s6,s6,1804 # 0xf858
    b154:	00004b97          	auipc	s7,0x4
    b158:	6f4b8b93          	addi	s7,s7,1780 # 0xf848
    b15c:	00040513          	mv	a0,s0
    b160:	00010593          	mv	a1,sp
    b164:	965ff0ef          	jal	ra,0xaac8
    b168:	00050413          	mv	s0,a0
    b16c:	000a0993          	mv	s3,s4
    b170:	00000913          	li	s2,0
    b174:	01812783          	lw	a5,24(sp)
    b178:	04f94663          	blt	s2,a5,0xb1c4
    b17c:	fe0410e3          	bnez	s0,0xb15c
    b180:	8c5f50ef          	jal	ra,0xa44
    b184:	0005059b          	0x5059b
    b188:	00004517          	auipc	a0,0x4
    b18c:	6e050513          	addi	a0,a0,1760 # 0xf868
    b190:	c79f70ef          	jal	ra,0x2e08
    b194:	0a813083          	0xa813083
    b198:	0a013403          	0xa013403
    b19c:	09813483          	0x9813483
    b1a0:	09013903          	0x9013903
    b1a4:	08813983          	0x8813983
    b1a8:	08013a03          	0x8013a03
    b1ac:	07813a83          	0x7813a83
    b1b0:	07013b03          	0x7013b03
    b1b4:	06813b83          	0x6813b83
    b1b8:	00000513          	li	a0,0
    b1bc:	0b010113          	addi	sp,sp,176
    b1c0:	00008067          	ret
    b1c4:	0009b483          	0x9b483
    b1c8:	e89f40ef          	jal	ra,0x50
    b1cc:	01014703          	lbu	a4,16(sp)
    b1d0:	ffc4c783          	lbu	a5,-4(s1)
    b1d4:	07f7f793          	andi	a5,a5,127
    b1d8:	00f70a63          	beq	a4,a5,0xb1ec
    b1dc:	e7df40ef          	jal	ra,0x58
    b1e0:	0019091b          	0x19091b
    b1e4:	00898993          	addi	s3,s3,8
    b1e8:	f8dff06f          	j	0xb174
    b1ec:	e6df40ef          	jal	ra,0x58
    b1f0:	0344a783          	lw	a5,52(s1)
    b1f4:	0304a703          	lw	a4,48(s1)
    b1f8:	000a8513          	mv	a0,s5
    b1fc:	fe848693          	addi	a3,s1,-24
    b200:	01400613          	li	a2,20
    b204:	01400593          	li	a1,20
    b208:	c01f70ef          	jal	ra,0x2e08
    b20c:	ffd4c783          	lbu	a5,-3(s1)
    b210:	000b8513          	mv	a0,s7
    b214:	0017f793          	andi	a5,a5,1
    b218:	00079463          	bnez	a5,0xb220
    b21c:	000b0513          	mv	a0,s6
    b220:	be9f70ef          	jal	ra,0x2e08
    b224:	fbdff06f          	j	0xb1e0
    b228:	f4010113          	addi	sp,sp,-192
    b22c:	00400513          	li	a0,4
    b230:	0a113c23          	0xa113c23
    b234:	0a913423          	0xa913423
    b238:	09513423          	0x9513423
    b23c:	09613023          	0x9613023
    b240:	07713c23          	0x7713c23
    b244:	07813823          	0x7813823
    b248:	0a813823          	0xa813823
    b24c:	0b213023          	0xb213023
    b250:	09313c23          	0x9313c23
    b254:	09413823          	0x9413823
    b258:	a51f80ef          	jal	ra,0x3ca8
    b25c:	00850513          	addi	a0,a0,8
    b260:	00400793          	li	a5,4
    b264:	00004617          	auipc	a2,0x4
    b268:	61c60613          	addi	a2,a2,1564 # 0xf880
    b26c:	01400593          	li	a1,20
    b270:	00a13823          	0xa13823
    b274:	02f10023          	sb	a5,32(sp)
    b278:	00004517          	auipc	a0,0x4
    b27c:	61050513          	addi	a0,a0,1552 # 0xf888
    b280:	00800793          	li	a5,8
    b284:	03010a93          	addi	s5,sp,48
    b288:	02f12223          	sw	a5,36(sp)
    b28c:	01513c23          	0x1513c23
    b290:	02012423          	sw	zero,40(sp)
    b294:	b75f70ef          	jal	ra,0x2e08
    b298:	911ff0ef          	jal	ra,0xaba8
    b29c:	00004517          	auipc	a0,0x4
    b2a0:	61450513          	addi	a0,a0,1556 # 0xf8b0
    b2a4:	b65f70ef          	jal	ra,0x2e08
    b2a8:	00000493          	li	s1,0
    b2ac:	00004b17          	auipc	s6,0x4
    b2b0:	63cb0b13          	addi	s6,s6,1596 # 0xf8e8
    b2b4:	00004b97          	auipc	s7,0x4
    b2b8:	61cb8b93          	addi	s7,s7,1564 # 0xf8d0
    b2bc:	00004c17          	auipc	s8,0x4
    b2c0:	2ecc0c13          	addi	s8,s8,748 # 0xf5a8
    b2c4:	00048513          	mv	a0,s1
    b2c8:	01010593          	addi	a1,sp,16
    b2cc:	ffcff0ef          	jal	ra,0xaac8
    b2d0:	00050493          	mv	s1,a0
    b2d4:	000a8993          	mv	s3,s5
    b2d8:	00000913          	li	s2,0
    b2dc:	02812783          	lw	a5,40(sp)
    b2e0:	02f94e63          	blt	s2,a5,0xb31c
    b2e4:	fe0490e3          	bnez	s1,0xb2c4
    b2e8:	0b813083          	0xb813083
    b2ec:	0b013403          	0xb013403
    b2f0:	0a813483          	0xa813483
    b2f4:	0a013903          	0xa013903
    b2f8:	09813983          	0x9813983
    b2fc:	09013a03          	0x9013a03
    b300:	08813a83          	0x8813a83
    b304:	08013b03          	0x8013b03
    b308:	07813b83          	0x7813b83
    b30c:	07013c03          	0x7013c03
    b310:	00000513          	li	a0,0
    b314:	0c010113          	addi	sp,sp,192
    b318:	00008067          	ret
    b31c:	0009b403          	0x9b403
    b320:	d31f40ef          	jal	ra,0x50
    b324:	02014703          	lbu	a4,32(sp)
    b328:	ffc44783          	lbu	a5,-4(s0)
    b32c:	07f7f793          	andi	a5,a5,127
    b330:	00f70a63          	beq	a4,a5,0xb344
    b334:	d25f40ef          	jal	ra,0x58
    b338:	0019091b          	0x19091b
    b33c:	00898993          	addi	s3,s3,8
    b340:	f9dff06f          	j	0xb2dc
    b344:	d15f40ef          	jal	ra,0x58
    b348:	01043783          	0x1043783
    b34c:	01040a13          	addi	s4,s0,16
    b350:	fe840693          	addi	a3,s0,-24
    b354:	04fa0063          	beq	s4,a5,0xb394
    b358:	000a0513          	mv	a0,s4
    b35c:	00d13423          	0xd13423
    b360:	dccff0ef          	jal	ra,0xa92c
    b364:	02042703          	lw	a4,32(s0)
    b368:	00813683          	0x813683
    b36c:	0005079b          	0x5079b
    b370:	01400613          	li	a2,20
    b374:	01400593          	li	a1,20
    b378:	000b8513          	mv	a0,s7
    b37c:	a8df70ef          	jal	ra,0x2e08
    b380:	000a0513          	mv	a0,s4
    b384:	e10ff0ef          	jal	ra,0xa994
    b388:	000c0513          	mv	a0,s8
    b38c:	a7df70ef          	jal	ra,0x2e08
    b390:	fa9ff06f          	j	0xb338
    b394:	02042703          	lw	a4,32(s0)
    b398:	01400613          	li	a2,20
    b39c:	01400593          	li	a1,20
    b3a0:	000b0513          	mv	a0,s6
    b3a4:	a65f70ef          	jal	ra,0x2e08
    b3a8:	f91ff06f          	j	0xb338
    b3ac:	f4010113          	addi	sp,sp,-192
    b3b0:	00600513          	li	a0,6
    b3b4:	0a113c23          	0xa113c23
    b3b8:	0a913423          	0xa913423
    b3bc:	09513423          	0x9513423
    b3c0:	09613023          	0x9613023
    b3c4:	07713c23          	0x7713c23
    b3c8:	07813823          	0x7813823
    b3cc:	0a813823          	0xa813823
    b3d0:	0b213023          	0xb213023
    b3d4:	09313c23          	0x9313c23
    b3d8:	09413823          	0x9413823
    b3dc:	8cdf80ef          	jal	ra,0x3ca8
    b3e0:	00850513          	addi	a0,a0,8
    b3e4:	00600793          	li	a5,6
    b3e8:	00004617          	auipc	a2,0x4
    b3ec:	51860613          	addi	a2,a2,1304 # 0xf900
    b3f0:	01400593          	li	a1,20
    b3f4:	00a13823          	0xa13823
    b3f8:	02f10023          	sb	a5,32(sp)
    b3fc:	00004517          	auipc	a0,0x4
    b400:	51450513          	addi	a0,a0,1300 # 0xf910
    b404:	00800793          	li	a5,8
    b408:	03010a93          	addi	s5,sp,48
    b40c:	02f12223          	sw	a5,36(sp)
    b410:	01513c23          	0x1513c23
    b414:	02012423          	sw	zero,40(sp)
    b418:	9f1f70ef          	jal	ra,0x2e08
    b41c:	f8cff0ef          	jal	ra,0xaba8
    b420:	00004517          	auipc	a0,0x4
    b424:	51050513          	addi	a0,a0,1296 # 0xf930
    b428:	9e1f70ef          	jal	ra,0x2e08
    b42c:	00000493          	li	s1,0
    b430:	00004b17          	auipc	s6,0x4
    b434:	530b0b13          	addi	s6,s6,1328 # 0xf960
    b438:	00004b97          	auipc	s7,0x4
    b43c:	510b8b93          	addi	s7,s7,1296 # 0xf948
    b440:	00004c17          	auipc	s8,0x4
    b444:	168c0c13          	addi	s8,s8,360 # 0xf5a8
    b448:	00048513          	mv	a0,s1
    b44c:	01010593          	addi	a1,sp,16
    b450:	e78ff0ef          	jal	ra,0xaac8
    b454:	00050493          	mv	s1,a0
    b458:	000a8a13          	mv	s4,s5
    b45c:	00000993          	li	s3,0
    b460:	02812783          	lw	a5,40(sp)
    b464:	02f9ce63          	blt	s3,a5,0xb4a0
    b468:	fe0490e3          	bnez	s1,0xb448
    b46c:	0b813083          	0xb813083
    b470:	0b013403          	0xb013403
    b474:	0a813483          	0xa813483
    b478:	0a013903          	0xa013903
    b47c:	09813983          	0x9813983
    b480:	09013a03          	0x9013a03
    b484:	08813a83          	0x8813a83
    b488:	08013b03          	0x8013b03
    b48c:	07813b83          	0x7813b83
    b490:	07013c03          	0x7013c03
    b494:	00000513          	li	a0,0
    b498:	0c010113          	addi	sp,sp,192
    b49c:	00008067          	ret
    b4a0:	000a3403          	0xa3403
    b4a4:	badf40ef          	jal	ra,0x50
    b4a8:	02014703          	lbu	a4,32(sp)
    b4ac:	ffc44783          	lbu	a5,-4(s0)
    b4b0:	07f7f793          	andi	a5,a5,127
    b4b4:	00f70a63          	beq	a4,a5,0xb4c8
    b4b8:	ba1f40ef          	jal	ra,0x58
    b4bc:	0019899b          	0x19899b
    b4c0:	008a0a13          	addi	s4,s4,8
    b4c4:	f9dff06f          	j	0xb460
    b4c8:	b91f40ef          	jal	ra,0x58
    b4cc:	01043783          	0x1043783
    b4d0:	fe840693          	addi	a3,s0,-24
    b4d4:	01040913          	addi	s2,s0,16
    b4d8:	00d13423          	0xd13423
    b4dc:	00090513          	mv	a0,s2
    b4e0:	02f90c63          	beq	s2,a5,0xb518
    b4e4:	c48ff0ef          	jal	ra,0xa92c
    b4e8:	02c45703          	lhu	a4,44(s0)
    b4ec:	00813683          	0x813683
    b4f0:	0005079b          	0x5079b
    b4f4:	01400613          	li	a2,20
    b4f8:	01400593          	li	a1,20
    b4fc:	000b8513          	mv	a0,s7
    b500:	909f70ef          	jal	ra,0x2e08
    b504:	00090513          	mv	a0,s2
    b508:	c8cff0ef          	jal	ra,0xa994
    b50c:	000c0513          	mv	a0,s8
    b510:	8f9f70ef          	jal	ra,0x2e08
    b514:	fa9ff06f          	j	0xb4bc
    b518:	c14ff0ef          	jal	ra,0xa92c
    b51c:	02c45703          	lhu	a4,44(s0)
    b520:	00813683          	0x813683
    b524:	0005079b          	0x5079b
    b528:	01400613          	li	a2,20
    b52c:	01400593          	li	a1,20
    b530:	000b0513          	mv	a0,s6
    b534:	8d5f70ef          	jal	ra,0x2e08
    b538:	f85ff06f          	j	0xb4bc
    b53c:	f4010113          	addi	sp,sp,-192
    b540:	00200513          	li	a0,2
    b544:	0a113c23          	0xa113c23
    b548:	0a913423          	0xa913423
    b54c:	09513423          	0x9513423
    b550:	09613023          	0x9613023
    b554:	07713c23          	0x7713c23
    b558:	07813823          	0x7813823
    b55c:	0a813823          	0xa813823
    b560:	0b213023          	0xb213023
    b564:	09313c23          	0x9313c23
    b568:	09413823          	0x9413823
    b56c:	f3cf80ef          	jal	ra,0x3ca8
    b570:	00850513          	addi	a0,a0,8
    b574:	00200793          	li	a5,2
    b578:	00004617          	auipc	a2,0x4
    b57c:	40060613          	addi	a2,a2,1024 # 0xf978
    b580:	01400593          	li	a1,20
    b584:	00a13823          	0xa13823
    b588:	02f10023          	sb	a5,32(sp)
    b58c:	00004517          	auipc	a0,0x4
    b590:	3fc50513          	addi	a0,a0,1020 # 0xf988
    b594:	00800793          	li	a5,8
    b598:	03010a93          	addi	s5,sp,48
    b59c:	02f12223          	sw	a5,36(sp)
    b5a0:	01513c23          	0x1513c23
    b5a4:	02012423          	sw	zero,40(sp)
    b5a8:	861f70ef          	jal	ra,0x2e08
    b5ac:	dfcff0ef          	jal	ra,0xaba8
    b5b0:	00004517          	auipc	a0,0x4
    b5b4:	3f850513          	addi	a0,a0,1016 # 0xf9a8
    b5b8:	851f70ef          	jal	ra,0x2e08
    b5bc:	00000493          	li	s1,0
    b5c0:	00004b17          	auipc	s6,0x4
    b5c4:	410b0b13          	addi	s6,s6,1040 # 0xf9d0
    b5c8:	00004b97          	auipc	s7,0x4
    b5cc:	3f8b8b93          	addi	s7,s7,1016 # 0xf9c0
    b5d0:	00004c17          	auipc	s8,0x4
    b5d4:	fd8c0c13          	addi	s8,s8,-40 # 0xf5a8
    b5d8:	00048513          	mv	a0,s1
    b5dc:	01010593          	addi	a1,sp,16
    b5e0:	ce8ff0ef          	jal	ra,0xaac8
    b5e4:	00050493          	mv	s1,a0
    b5e8:	000a8a13          	mv	s4,s5
    b5ec:	00000993          	li	s3,0
    b5f0:	02812783          	lw	a5,40(sp)
    b5f4:	02f9ce63          	blt	s3,a5,0xb630
    b5f8:	fe0490e3          	bnez	s1,0xb5d8
    b5fc:	0b813083          	0xb813083
    b600:	0b013403          	0xb013403
    b604:	0a813483          	0xa813483
    b608:	0a013903          	0xa013903
    b60c:	09813983          	0x9813983
    b610:	09013a03          	0x9013a03
    b614:	08813a83          	0x8813a83
    b618:	08013b03          	0x8013b03
    b61c:	07813b83          	0x7813b83
    b620:	07013c03          	0x7013c03
    b624:	00000513          	li	a0,0
    b628:	0c010113          	addi	sp,sp,192
    b62c:	00008067          	ret
    b630:	000a3403          	0xa3403
    b634:	a1df40ef          	jal	ra,0x50
    b638:	02014703          	lbu	a4,32(sp)
    b63c:	ffc44783          	lbu	a5,-4(s0)
    b640:	07f7f793          	andi	a5,a5,127
    b644:	00f70a63          	beq	a4,a5,0xb658
    b648:	a11f40ef          	jal	ra,0x58
    b64c:	0019899b          	0x19899b
    b650:	008a0a13          	addi	s4,s4,8
    b654:	f9dff06f          	j	0xb5f0
    b658:	a01f40ef          	jal	ra,0x58
    b65c:	01043783          	0x1043783
    b660:	fe840693          	addi	a3,s0,-24
    b664:	01040913          	addi	s2,s0,16
    b668:	00d13423          	0xd13423
    b66c:	00090513          	mv	a0,s2
    b670:	02f90c63          	beq	s2,a5,0xb6a8
    b674:	ab8ff0ef          	jal	ra,0xa92c
    b678:	02045703          	lhu	a4,32(s0)
    b67c:	00813683          	0x813683
    b680:	0005079b          	0x5079b
    b684:	01400613          	li	a2,20
    b688:	01400593          	li	a1,20
    b68c:	000b8513          	mv	a0,s7
    b690:	f78f70ef          	jal	ra,0x2e08
    b694:	00090513          	mv	a0,s2
    b698:	afcff0ef          	jal	ra,0xa994
    b69c:	000c0513          	mv	a0,s8
    b6a0:	f68f70ef          	jal	ra,0x2e08
    b6a4:	fa9ff06f          	j	0xb64c
    b6a8:	a84ff0ef          	jal	ra,0xa92c
    b6ac:	02045703          	lhu	a4,32(s0)
    b6b0:	00813683          	0x813683
    b6b4:	0005079b          	0x5079b
    b6b8:	01400613          	li	a2,20
    b6bc:	01400593          	li	a1,20
    b6c0:	000b0513          	mv	a0,s6
    b6c4:	f44f70ef          	jal	ra,0x2e08
    b6c8:	f85ff06f          	j	0xb64c
    b6cc:	f4010113          	addi	sp,sp,-192
    b6d0:	00500513          	li	a0,5
    b6d4:	0a113c23          	0xa113c23
    b6d8:	0a913423          	0xa913423
    b6dc:	09513423          	0x9513423
    b6e0:	09613023          	0x9613023
    b6e4:	07713c23          	0x7713c23
    b6e8:	07813823          	0x7813823
    b6ec:	0a813823          	0xa813823
    b6f0:	0b213023          	0xb213023
    b6f4:	09313c23          	0x9313c23
    b6f8:	09413823          	0x9413823
    b6fc:	dacf80ef          	jal	ra,0x3ca8
    b700:	00850513          	addi	a0,a0,8
    b704:	00500793          	li	a5,5
    b708:	00004617          	auipc	a2,0x4
    b70c:	2d860613          	addi	a2,a2,728 # 0xf9e0
    b710:	01400593          	li	a1,20
    b714:	00a13823          	0xa13823
    b718:	02f10023          	sb	a5,32(sp)
    b71c:	00004517          	auipc	a0,0x4
    b720:	2cc50513          	addi	a0,a0,716 # 0xf9e8
    b724:	00800793          	li	a5,8
    b728:	03010a93          	addi	s5,sp,48
    b72c:	02f12223          	sw	a5,36(sp)
    b730:	01513c23          	0x1513c23
    b734:	02012423          	sw	zero,40(sp)
    b738:	ed0f70ef          	jal	ra,0x2e08
    b73c:	c6cff0ef          	jal	ra,0xaba8
    b740:	00004517          	auipc	a0,0x4
    b744:	2d050513          	addi	a0,a0,720 # 0xfa10
    b748:	ec0f70ef          	jal	ra,0x2e08
    b74c:	00000493          	li	s1,0
    b750:	00004b17          	auipc	s6,0x4
    b754:	2f8b0b13          	addi	s6,s6,760 # 0xfa48
    b758:	00004b97          	auipc	s7,0x4
    b75c:	2d8b8b93          	addi	s7,s7,728 # 0xfa30
    b760:	00004c17          	auipc	s8,0x4
    b764:	e48c0c13          	addi	s8,s8,-440 # 0xf5a8
    b768:	00048513          	mv	a0,s1
    b76c:	01010593          	addi	a1,sp,16
    b770:	b58ff0ef          	jal	ra,0xaac8
    b774:	00050493          	mv	s1,a0
    b778:	000a8a13          	mv	s4,s5
    b77c:	00000993          	li	s3,0
    b780:	02812783          	lw	a5,40(sp)
    b784:	02f9ce63          	blt	s3,a5,0xb7c0
    b788:	fe0490e3          	bnez	s1,0xb768
    b78c:	0b813083          	0xb813083
    b790:	0b013403          	0xb013403
    b794:	0a813483          	0xa813483
    b798:	0a013903          	0xa013903
    b79c:	09813983          	0x9813983
    b7a0:	09013a03          	0x9013a03
    b7a4:	08813a83          	0x8813a83
    b7a8:	08013b03          	0x8013b03
    b7ac:	07813b83          	0x7813b83
    b7b0:	07013c03          	0x7013c03
    b7b4:	00000513          	li	a0,0
    b7b8:	0c010113          	addi	sp,sp,192
    b7bc:	00008067          	ret
    b7c0:	000a3403          	0xa3403
    b7c4:	88df40ef          	jal	ra,0x50
    b7c8:	02014703          	lbu	a4,32(sp)
    b7cc:	ffc44783          	lbu	a5,-4(s0)
    b7d0:	07f7f793          	andi	a5,a5,127
    b7d4:	00f70a63          	beq	a4,a5,0xb7e8
    b7d8:	881f40ef          	jal	ra,0x58
    b7dc:	0019899b          	0x19899b
    b7e0:	008a0a13          	addi	s4,s4,8
    b7e4:	f9dff06f          	j	0xb780
    b7e8:	871f40ef          	jal	ra,0x58
    b7ec:	01043783          	0x1043783
    b7f0:	fe840693          	addi	a3,s0,-24
    b7f4:	01040913          	addi	s2,s0,16
    b7f8:	00d13423          	0xd13423
    b7fc:	00090513          	mv	a0,s2
    b800:	02f90e63          	beq	s2,a5,0xb83c
    b804:	928ff0ef          	jal	ra,0xa92c
    b808:	02845783          	lhu	a5,40(s0)
    b80c:	02a45703          	lhu	a4,42(s0)
    b810:	00813683          	0x813683
    b814:	0005081b          	0x5081b
    b818:	01400613          	li	a2,20
    b81c:	01400593          	li	a1,20
    b820:	000b8513          	mv	a0,s7
    b824:	de4f70ef          	jal	ra,0x2e08
    b828:	00090513          	mv	a0,s2
    b82c:	968ff0ef          	jal	ra,0xa994
    b830:	000c0513          	mv	a0,s8
    b834:	dd4f70ef          	jal	ra,0x2e08
    b838:	fa5ff06f          	j	0xb7dc
    b83c:	8f0ff0ef          	jal	ra,0xa92c
    b840:	02845783          	lhu	a5,40(s0)
    b844:	02a45703          	lhu	a4,42(s0)
    b848:	00813683          	0x813683
    b84c:	0005081b          	0x5081b
    b850:	01400613          	li	a2,20
    b854:	01400593          	li	a1,20
    b858:	000b0513          	mv	a0,s6
    b85c:	dacf70ef          	jal	ra,0x2e08
    b860:	f7dff06f          	j	0xb7dc
    b864:	f5010113          	addi	sp,sp,-176
    b868:	00800513          	li	a0,8
    b86c:	0a113423          	0xa113423
    b870:	08913c23          	0x8913c23
    b874:	07513c23          	0x7513c23
    b878:	07613823          	0x7613823
    b87c:	07713423          	0x7713423
    b880:	07813023          	0x7813023
    b884:	0a813023          	0xa813023
    b888:	09213823          	0x9213823
    b88c:	09313423          	0x9313423
    b890:	09413023          	0x9413023
    b894:	c14f80ef          	jal	ra,0x3ca8
    b898:	00850513          	addi	a0,a0,8
    b89c:	00800793          	li	a5,8
    b8a0:	00004617          	auipc	a2,0x4
    b8a4:	1c060613          	addi	a2,a2,448 # 0xfa60
    b8a8:	01400593          	li	a1,20
    b8ac:	00a13023          	0xa13023
    b8b0:	00f10823          	sb	a5,16(sp)
    b8b4:	00004517          	auipc	a0,0x4
    b8b8:	1b450513          	addi	a0,a0,436 # 0xfa68
    b8bc:	00800793          	li	a5,8
    b8c0:	02010a93          	addi	s5,sp,32
    b8c4:	00f12a23          	sw	a5,20(sp)
    b8c8:	01513423          	0x1513423
    b8cc:	00012c23          	sw	zero,24(sp)
    b8d0:	d38f70ef          	jal	ra,0x2e08
    b8d4:	ad4ff0ef          	jal	ra,0xaba8
    b8d8:	00004517          	auipc	a0,0x4
    b8dc:	1b850513          	addi	a0,a0,440 # 0xfa90
    b8e0:	d28f70ef          	jal	ra,0x2e08
    b8e4:	00000493          	li	s1,0
    b8e8:	00004b17          	auipc	s6,0x4
    b8ec:	1f0b0b13          	addi	s6,s6,496 # 0xfad8
    b8f0:	00004b97          	auipc	s7,0x4
    b8f4:	1c8b8b93          	addi	s7,s7,456 # 0xfab8
    b8f8:	00004c17          	auipc	s8,0x4
    b8fc:	cb0c0c13          	addi	s8,s8,-848 # 0xf5a8
    b900:	00048513          	mv	a0,s1
    b904:	00010593          	mv	a1,sp
    b908:	9c0ff0ef          	jal	ra,0xaac8
    b90c:	00050493          	mv	s1,a0
    b910:	000a8a13          	mv	s4,s5
    b914:	00000993          	li	s3,0
    b918:	01812783          	lw	a5,24(sp)
    b91c:	02f9ce63          	blt	s3,a5,0xb958
    b920:	fe0490e3          	bnez	s1,0xb900
    b924:	0a813083          	0xa813083
    b928:	0a013403          	0xa013403
    b92c:	09813483          	0x9813483
    b930:	09013903          	0x9013903
    b934:	08813983          	0x8813983
    b938:	08013a03          	0x8013a03
    b93c:	07813a83          	0x7813a83
    b940:	07013b03          	0x7013b03
    b944:	06813b83          	0x6813b83
    b948:	06013c03          	0x6013c03
    b94c:	00000513          	li	a0,0
    b950:	0b010113          	addi	sp,sp,176
    b954:	00008067          	ret
    b958:	000a3403          	0xa3403
    b95c:	ef4f40ef          	jal	ra,0x50
    b960:	01014703          	lbu	a4,16(sp)
    b964:	ffc44783          	lbu	a5,-4(s0)
    b968:	07f7f793          	andi	a5,a5,127
    b96c:	00f70a63          	beq	a4,a5,0xb980
    b970:	ee8f40ef          	jal	ra,0x58
    b974:	0019899b          	0x19899b
    b978:	008a0a13          	addi	s4,s4,8
    b97c:	f9dff06f          	j	0xb918
    b980:	ed8f40ef          	jal	ra,0x58
    b984:	04043903          	0x4043903
    b988:	00000893          	li	a7,0
    b98c:	fe840693          	addi	a3,s0,-24
    b990:	04040793          	addi	a5,s0,64
    b994:	02f91c63          	bne	s2,a5,0xb9cc
    b998:	02043703          	0x2043703
    b99c:	03043783          	0x3043783
    b9a0:	03843803          	0x3843803
    b9a4:	02088a63          	beqz	a7,0xb9d8
    b9a8:	01400613          	li	a2,20
    b9ac:	01400593          	li	a1,20
    b9b0:	000b8513          	mv	a0,s7
    b9b4:	c54f70ef          	jal	ra,0x2e08
    b9b8:	00090513          	mv	a0,s2
    b9bc:	fd9fe0ef          	jal	ra,0xa994
    b9c0:	000c0513          	mv	a0,s8
    b9c4:	c44f70ef          	jal	ra,0x2e08
    b9c8:	fadff06f          	j	0xb974
    b9cc:	00093903          	0x93903
    b9d0:	0018889b          	0x18889b
    b9d4:	fc1ff06f          	j	0xb994
    b9d8:	00000893          	li	a7,0
    b9dc:	01400613          	li	a2,20
    b9e0:	01400593          	li	a1,20
    b9e4:	000b0513          	mv	a0,s6
    b9e8:	c20f70ef          	jal	ra,0x2e08
    b9ec:	f89ff06f          	j	0xb974
    b9f0:	ff010113          	addi	sp,sp,-16
    b9f4:	00113423          	0x113423
    b9f8:	00100793          	li	a5,1
    b9fc:	02f51063          	bne	a0,a5,0xba1c
    ba00:	00005517          	auipc	a0,0x5
    ba04:	6a050513          	addi	a0,a0,1696 # 0x110a0
    ba08:	c51fb0ef          	jal	ra,0x7658
    ba0c:	00813083          	0x813083
    ba10:	00000513          	li	a0,0
    ba14:	01010113          	addi	sp,sp,16
    ba18:	00008067          	ret
    ba1c:	0085b503          	0x85b503
    ba20:	fe9ff06f          	j	0xba08
    ba24:	ff010113          	addi	sp,sp,-16
    ba28:	00005517          	auipc	a0,0x5
    ba2c:	eb050513          	addi	a0,a0,-336 # 0x108d8
    ba30:	00005597          	auipc	a1,0x5
    ba34:	67058593          	addi	a1,a1,1648 # 0x110a0
    ba38:	00113423          	0x113423
    ba3c:	bccf70ef          	jal	ra,0x2e08
    ba40:	00813083          	0x813083
    ba44:	00000513          	li	a0,0
    ba48:	01010113          	addi	sp,sp,16
    ba4c:	00008067          	ret
    ba50:	24050063          	beqz	a0,0xbc90
    ba54:	f8010113          	addi	sp,sp,-128
    ba58:	06913423          	0x6913423
    ba5c:	00050493          	mv	s1,a0
    ba60:	10000513          	li	a0,256
    ba64:	06813823          	0x6813823
    ba68:	07213023          	0x7213023
    ba6c:	05313c23          	0x5313c23
    ba70:	06113c23          	0x6113c23
    ba74:	05413823          	0x5413823
    ba78:	05513423          	0x5513423
    ba7c:	05613023          	0x5613023
    ba80:	03713c23          	0x3713c23
    ba84:	03813823          	0x3813823
    ba88:	03913423          	0x3913423
    ba8c:	03a13023          	0x3a13023
    ba90:	01b13c23          	0x1b13c23
    ba94:	00058913          	mv	s2,a1
    ba98:	00060993          	mv	s3,a2
    ba9c:	e6cf50ef          	jal	ra,0x1108
    baa0:	00050413          	mv	s0,a0
    baa4:	1a050863          	beqz	a0,0xbc54
    baa8:	00048513          	mv	a0,s1
    baac:	d78fc0ef          	jal	ra,0x8024
    bab0:	00050a13          	mv	s4,a0
    bab4:	0a050463          	beqz	a0,0xbb5c
    bab8:	00003b17          	auipc	s6,0x3
    babc:	310b0b13          	addi	s6,s6,784 # 0xedc8
    bac0:	00003b97          	auipc	s7,0x3
    bac4:	728b8b93          	addi	s7,s7,1832 # 0xf1e8
    bac8:	00100c13          	li	s8,1
    bacc:	00200c93          	li	s9,2
    bad0:	00004d17          	auipc	s10,0x4
    bad4:	690d0d13          	addi	s10,s10,1680 # 0x10160
    bad8:	00004d97          	auipc	s11,0x4
    badc:	670d8d93          	addi	s11,s11,1648 # 0x10148
    bae0:	000a0513          	mv	a0,s4
    bae4:	e04fc0ef          	jal	ra,0x80e8
    bae8:	00050a93          	mv	s5,a0
    baec:	0e050663          	beqz	a0,0xbbd8
    baf0:	00450693          	addi	a3,a0,4
    baf4:	00068593          	mv	a1,a3
    baf8:	00003517          	auipc	a0,0x3
    bafc:	4a850513          	addi	a0,a0,1192 # 0xefa0
    bb00:	00d13423          	0xd13423
    bb04:	bd9f60ef          	jal	ra,0x26dc
    bb08:	00813683          	0x813683
    bb0c:	fc050ae3          	beqz	a0,0xbae0
    bb10:	00068593          	mv	a1,a3
    bb14:	000b0513          	mv	a0,s6
    bb18:	bc5f60ef          	jal	ra,0x26dc
    bb1c:	00813683          	0x813683
    bb20:	fc0500e3          	beqz	a0,0xbae0
    bb24:	00048613          	mv	a2,s1
    bb28:	000b8593          	mv	a1,s7
    bb2c:	00040513          	mv	a0,s0
    bb30:	a20f70ef          	jal	ra,0x2d50
    bb34:	000ac783          	lbu	a5,0(s5)
    bb38:	09879463          	bne	a5,s8,0xbbc0
    bb3c:	00040513          	mv	a0,s0
    bb40:	c8cfc0ef          	jal	ra,0x7fcc
    bb44:	06050663          	beqz	a0,0xbbb0
    bb48:	f8091ce3          	bnez	s2,0xbae0
    bb4c:	00040593          	mv	a1,s0
    bb50:	000d8513          	mv	a0,s11
    bb54:	ab4f70ef          	jal	ra,0x2e08
    bb58:	f89ff06f          	j	0xbae0
    bb5c:	00091a63          	bnez	s2,0xbb70
    bb60:	00048593          	mv	a1,s1
    bb64:	00004517          	auipc	a0,0x4
    bb68:	5e450513          	addi	a0,a0,1508 # 0x10148
    bb6c:	a9cf70ef          	jal	ra,0x2e08
    bb70:	00040513          	mv	a0,s0
    bb74:	07013403          	0x7013403
    bb78:	07813083          	0x7813083
    bb7c:	06813483          	0x6813483
    bb80:	06013903          	0x6013903
    bb84:	05813983          	0x5813983
    bb88:	05013a03          	0x5013a03
    bb8c:	04813a83          	0x4813a83
    bb90:	04013b03          	0x4013b03
    bb94:	03813b83          	0x3813b83
    bb98:	03013c03          	0x3013c03
    bb9c:	02813c83          	0x2813c83
    bba0:	02013d03          	0x2013d03
    bba4:	01813d83          	0x1813d83
    bba8:	08010113          	addi	sp,sp,128
    bbac:	8adf506f          	j	0x1458
    bbb0:	f20988e3          	beqz	s3,0xbae0
    bbb4:	00040593          	mv	a1,s0
    bbb8:	000d0513          	mv	a0,s10
    bbbc:	f99ff06f          	j	0xbb54
    bbc0:	f39790e3          	bne	a5,s9,0xbae0
    bbc4:	00098613          	mv	a2,s3
    bbc8:	00090593          	mv	a1,s2
    bbcc:	00040513          	mv	a0,s0
    bbd0:	e81ff0ef          	jal	ra,0xba50
    bbd4:	f0dff06f          	j	0xbae0
    bbd8:	000a0513          	mv	a0,s4
    bbdc:	e3cfc0ef          	jal	ra,0x8218
    bbe0:	00040513          	mv	a0,s0
    bbe4:	875f50ef          	jal	ra,0x1458
    bbe8:	00048513          	mv	a0,s1
    bbec:	be0fc0ef          	jal	ra,0x7fcc
    bbf0:	04050863          	beqz	a0,0xbc40
    bbf4:	06091063          	bnez	s2,0xbc54
    bbf8:	00048593          	mv	a1,s1
    bbfc:	00004517          	auipc	a0,0x4
    bc00:	54c50513          	addi	a0,a0,1356 # 0x10148
    bc04:	07013403          	0x7013403
    bc08:	07813083          	0x7813083
    bc0c:	06813483          	0x6813483
    bc10:	06013903          	0x6013903
    bc14:	05813983          	0x5813983
    bc18:	05013a03          	0x5013a03
    bc1c:	04813a83          	0x4813a83
    bc20:	04013b03          	0x4013b03
    bc24:	03813b83          	0x3813b83
    bc28:	03013c03          	0x3013c03
    bc2c:	02813c83          	0x2813c83
    bc30:	02013d03          	0x2013d03
    bc34:	01813d83          	0x1813d83
    bc38:	08010113          	addi	sp,sp,128
    bc3c:	9ccf706f          	j	0x2e08
    bc40:	00098a63          	beqz	s3,0xbc54
    bc44:	00048593          	mv	a1,s1
    bc48:	00004517          	auipc	a0,0x4
    bc4c:	52850513          	addi	a0,a0,1320 # 0x10170
    bc50:	fb5ff06f          	j	0xbc04
    bc54:	07813083          	0x7813083
    bc58:	07013403          	0x7013403
    bc5c:	06813483          	0x6813483
    bc60:	06013903          	0x6013903
    bc64:	05813983          	0x5813983
    bc68:	05013a03          	0x5013a03
    bc6c:	04813a83          	0x4813a83
    bc70:	04013b03          	0x4013b03
    bc74:	03813b83          	0x3813b83
    bc78:	03013c03          	0x3013c03
    bc7c:	02813c83          	0x2813c83
    bc80:	02013d03          	0x2013d03
    bc84:	01813d83          	0x1813d83
    bc88:	08010113          	addi	sp,sp,128
    bc8c:	00008067          	ret
    bc90:	00008067          	ret
    bc94:	f1010113          	addi	sp,sp,-240
    bc98:	0e113423          	0xe113423
    bc9c:	0e813023          	0xe813023
    bca0:	0c913c23          	0xc913c23
    bca4:	0d213823          	0xd213823
    bca8:	0d313423          	0xd313423
    bcac:	0d413023          	0xd413023
    bcb0:	0b513c23          	0xb513c23
    bcb4:	0b613823          	0xb613823
    bcb8:	0b713423          	0xb713423
    bcbc:	0b813023          	0xb813023
    bcc0:	09913c23          	0x9913c23
    bcc4:	09a13823          	0x9a13823
    bcc8:	09b13423          	0x9b13423
    bccc:	00100793          	li	a5,1
    bcd0:	04f51e63          	bne	a0,a5,0xbd2c
    bcd4:	00004517          	auipc	a0,0x4
    bcd8:	4b450513          	addi	a0,a0,1204 # 0x10188
    bcdc:	92cf70ef          	jal	ra,0x2e08
    bce0:	00004517          	auipc	a0,0x4
    bce4:	4c850513          	addi	a0,a0,1224 # 0x101a8
    bce8:	920f70ef          	jal	ra,0x2e08
    bcec:	0e813083          	0xe813083
    bcf0:	0e013403          	0xe013403
    bcf4:	0d813483          	0xd813483
    bcf8:	0d013903          	0xd013903
    bcfc:	0c813983          	0xc813983
    bd00:	0c013a03          	0xc013a03
    bd04:	0b813a83          	0xb813a83
    bd08:	0b013b03          	0xb013b03
    bd0c:	0a813b83          	0xa813b83
    bd10:	0a013c03          	0xa013c03
    bd14:	09813c83          	0x9813c83
    bd18:	09013d03          	0x9013d03
    bd1c:	08813d83          	0x8813d83
    bd20:	00000513          	li	a0,0
    bd24:	0f010113          	addi	sp,sp,240
    bd28:	00008067          	ret
    bd2c:	0085b783          	0x85b783
    bd30:	02d00713          	li	a4,45
    bd34:	00050493          	mv	s1,a0
    bd38:	0007c683          	lbu	a3,0(a5)
    bd3c:	00058413          	mv	s0,a1
    bd40:	00000993          	li	s3,0
    bd44:	00000a93          	li	s5,0
    bd48:	00000913          	li	s2,0
    bd4c:	02e69263          	bne	a3,a4,0xbd70
    bd50:	07200713          	li	a4,114
    bd54:	07600693          	li	a3,118
    bd58:	02d00613          	li	a2,45
    bd5c:	06600513          	li	a0,102
    bd60:	0007c583          	lbu	a1,0(a5)
    bd64:	06059c63          	bnez	a1,0xbddc
    bd68:	fff4849b          	0xfff4849b
    bd6c:	00840413          	addi	s0,s0,8
    bd70:	00840413          	addi	s0,s0,8
    bd74:	00100a13          	li	s4,1
    bd78:	00004b17          	auipc	s6,0x4
    bd7c:	490b0b13          	addi	s6,s6,1168 # 0x10208
    bd80:	00004bb7          	lui	s7,0x4
    bd84:	00008c37          	lui	s8,0x8
    bd88:	00004c97          	auipc	s9,0x4
    bd8c:	3d8c8c93          	addi	s9,s9,984 # 0x10160
    bd90:	00004d17          	auipc	s10,0x4
    bd94:	3b8d0d13          	addi	s10,s10,952 # 0x10148
    bd98:	00004d97          	auipc	s11,0x4
    bd9c:	448d8d93          	addi	s11,s11,1096 # 0x101e0
    bda0:	f49a56e3          	bge	s4,s1,0xbcec
    bda4:	00043503          	0x43503
    bda8:	00010593          	mv	a1,sp
    bdac:	a4cfc0ef          	jal	ra,0x7ff8
    bdb0:	0a051e63          	bnez	a0,0xbe6c
    bdb4:	01012783          	lw	a5,16(sp)
    bdb8:	0177f733          	and	a4,a5,s7
    bdbc:	0007071b          	0x7071b
    bdc0:	06070a63          	beqz	a4,0xbe34
    bdc4:	00043503          	0x43503
    bdc8:	040a9a63          	bnez	s5,0xbe1c
    bdcc:	00050593          	mv	a1,a0
    bdd0:	000d8513          	mv	a0,s11
    bdd4:	834f70ef          	jal	ra,0x2e08
    bdd8:	0500006f          	j	0xbe28
    bddc:	02e58663          	beq	a1,a4,0xbe08
    bde0:	00b76e63          	bltu	a4,a1,0xbdfc
    bde4:	02c58463          	beq	a1,a2,0xbe0c
    bde8:	02a58663          	beq	a1,a0,0xbe14
    bdec:	00004517          	auipc	a0,0x4
    bdf0:	3dc50513          	addi	a0,a0,988 # 0x101c8
    bdf4:	814f70ef          	jal	ra,0x2e08
    bdf8:	ef5ff06f          	j	0xbcec
    bdfc:	fed598e3          	bne	a1,a3,0xbdec
    be00:	00100993          	li	s3,1
    be04:	0080006f          	j	0xbe0c
    be08:	00100a93          	li	s5,1
    be0c:	00178793          	addi	a5,a5,1
    be10:	f51ff06f          	j	0xbd60
    be14:	00100913          	li	s2,1
    be18:	ff5ff06f          	j	0xbe0c
    be1c:	00098613          	mv	a2,s3
    be20:	00090593          	mv	a1,s2
    be24:	c2dff0ef          	jal	ra,0xba50
    be28:	001a0a1b          	0x1a0a1b
    be2c:	00840413          	addi	s0,s0,8
    be30:	f71ff06f          	j	0xbda0
    be34:	0187f7b3          	and	a5,a5,s8
    be38:	0007879b          	0x7879b
    be3c:	fe0786e3          	beqz	a5,0xbe28
    be40:	00043503          	0x43503
    be44:	988fc0ef          	jal	ra,0x7fcc
    be48:	00050a63          	beqz	a0,0xbe5c
    be4c:	fc091ee3          	bnez	s2,0xbe28
    be50:	00043583          	0x43583
    be54:	000d0513          	mv	a0,s10
    be58:	f7dff06f          	j	0xbdd4
    be5c:	fc0986e3          	beqz	s3,0xbe28
    be60:	00043583          	0x43583
    be64:	000c8513          	mv	a0,s9
    be68:	f6dff06f          	j	0xbdd4
    be6c:	fa091ee3          	bnez	s2,0xbe28
    be70:	00043583          	0x43583
    be74:	000b0513          	mv	a0,s6
    be78:	f5dff06f          	j	0xbdd4
    be7c:	ff010113          	addi	sp,sp,-16
    be80:	00813023          	0x813023
    be84:	00113423          	0x113423
    be88:	00200793          	li	a5,2
    be8c:	00058413          	mv	s0,a1
    be90:	02f51663          	bne	a0,a5,0xbebc
    be94:	0085b583          	0x85b583
    be98:	00004517          	auipc	a0,0x4
    be9c:	3a050513          	addi	a0,a0,928 # 0x10238
    bea0:	a61fc0ef          	jal	ra,0x8900
    bea4:	00050593          	mv	a1,a0
    bea8:	04050463          	beqz	a0,0xbef0
    beac:	00004517          	auipc	a0,0x4
    beb0:	3bc50513          	addi	a0,a0,956 # 0x10268
    beb4:	f55f60ef          	jal	ra,0x2e08
    beb8:	0380006f          	j	0xbef0
    bebc:	00400793          	li	a5,4
    bec0:	02f51263          	bne	a0,a5,0xbee4
    bec4:	00843503          	0x843503
    bec8:	00004597          	auipc	a1,0x4
    becc:	37858593          	addi	a1,a1,888 # 0x10240
    bed0:	efcf40ef          	jal	ra,0x5cc
    bed4:	00051e63          	bnez	a0,0xbef0
    bed8:	01843583          	0x1843583
    bedc:	01043503          	0x1043503
    bee0:	fc1ff06f          	j	0xbea0
    bee4:	00004517          	auipc	a0,0x4
    bee8:	36450513          	addi	a0,a0,868 # 0x10248
    beec:	f1df60ef          	jal	ra,0x2e08
    bef0:	00813083          	0x813083
    bef4:	00013403          	0x13403
    bef8:	00000513          	li	a0,0
    befc:	01010113          	addi	sp,sp,16
    bf00:	00008067          	ret
    bf04:	ff010113          	addi	sp,sp,-16
    bf08:	00813023          	0x813023
    bf0c:	00113423          	0x113423
    bf10:	00200793          	li	a5,2
    bf14:	0085b403          	0x85b403
    bf18:	02f50263          	beq	a0,a5,0xbf3c
    bf1c:	00004517          	auipc	a0,0x4
    bf20:	36450513          	addi	a0,a0,868 # 0x10280
    bf24:	ee5f60ef          	jal	ra,0x2e08
    bf28:	fff00513          	li	a0,-1
    bf2c:	00813083          	0x813083
    bf30:	00013403          	0x13403
    bf34:	01010113          	addi	sp,sp,16
    bf38:	00008067          	ret
    bf3c:	00004517          	auipc	a0,0x4
    bf40:	36450513          	addi	a0,a0,868 # 0x102a0
    bf44:	00040593          	mv	a1,s0
    bf48:	ec1f60ef          	jal	ra,0x2e08
    bf4c:	00040513          	mv	a0,s0
    bf50:	8c1fc0ef          	jal	ra,0x8810
    bf54:	00055863          	bgez	a0,0xbf64
    bf58:	00004517          	auipc	a0,0x4
    bf5c:	35850513          	addi	a0,a0,856 # 0x102b0
    bf60:	fc5ff06f          	j	0xbf24
    bf64:	00004517          	auipc	a0,0x4
    bf68:	35c50513          	addi	a0,a0,860 # 0x102c0
    bf6c:	e9df60ef          	jal	ra,0x2e08
    bf70:	00000513          	li	a0,0
    bf74:	fb9ff06f          	j	0xbf2c
    bf78:	fc010113          	addi	sp,sp,-64
    bf7c:	02113c23          	0x2113c23
    bf80:	02813823          	0x2813823
    bf84:	02913423          	0x2913423
    bf88:	03213023          	0x3213023
    bf8c:	01313c23          	0x1313c23
    bf90:	01413823          	0x1413823
    bf94:	000107a3          	sb	zero,15(sp)
    bf98:	00100713          	li	a4,1
    bf9c:	02a74a63          	blt	a4,a0,0xbfd0
    bfa0:	00004517          	auipc	a0,0x4
    bfa4:	33050513          	addi	a0,a0,816 # 0x102d0
    bfa8:	e61f60ef          	jal	ra,0x2e08
    bfac:	fff00513          	li	a0,-1
    bfb0:	03813083          	0x3813083
    bfb4:	03013403          	0x3013403
    bfb8:	02813483          	0x2813483
    bfbc:	02013903          	0x2013903
    bfc0:	01813983          	0x1813983
    bfc4:	01013a03          	0x1013a03
    bfc8:	04010113          	addi	sp,sp,64
    bfcc:	00008067          	ret
    bfd0:	00050793          	mv	a5,a0
    bfd4:	00200713          	li	a4,2
    bfd8:	0085b503          	0x85b503
    bfdc:	00058413          	mv	s0,a1
    bfe0:	06e78663          	beq	a5,a4,0xc04c
    bfe4:	00004597          	auipc	a1,0x4
    bfe8:	31458593          	addi	a1,a1,788 # 0x102f8
    bfec:	ef0f60ef          	jal	ra,0x26dc
    bff0:	fa0518e3          	bnez	a0,0xbfa0
    bff4:	01043503          	0x1043503
    bff8:	02b00793          	li	a5,43
    bffc:	00054703          	lbu	a4,0(a0)
    c000:	02f70c63          	beq	a4,a5,0xc038
    c004:	e0cf40ef          	jal	ra,0x610
    c008:	0005091b          	0x5091b
    c00c:	00000993          	li	s3,0
    c010:	01843503          	0x1843503
    c014:	00000593          	li	a1,0
    c018:	cd9fb0ef          	jal	ra,0x7cf0
    c01c:	00050413          	mv	s0,a0
    c020:	00000493          	li	s1,0
    c024:	00a00a13          	li	s4,10
    c028:	02055e63          	bgez	a0,0xc064
    c02c:	00004517          	auipc	a0,0x4
    c030:	2d450513          	addi	a0,a0,724 # 0x10300
    c034:	f75ff06f          	j	0xbfa8
    c038:	00150513          	addi	a0,a0,1
    c03c:	dd4f40ef          	jal	ra,0x610
    c040:	0005099b          	0x5099b
    c044:	00000913          	li	s2,0
    c048:	fc9ff06f          	j	0xc010
    c04c:	00000993          	li	s3,0
    c050:	00a00913          	li	s2,10
    c054:	fc1ff06f          	j	0xc014
    c058:	00f14783          	lbu	a5,15(sp)
    c05c:	01479463          	bne	a5,s4,0xc064
    c060:	0014849b          	0x14849b
    c064:	00100613          	li	a2,1
    c068:	00f10593          	addi	a1,sp,15
    c06c:	00040513          	mv	a0,s0
    c070:	d95fb0ef          	jal	ra,0x7e04
    c074:	fea042e3          	bgtz	a0,0xc058
    c078:	00048593          	mv	a1,s1
    c07c:	00004517          	auipc	a0,0x4
    c080:	29c50513          	addi	a0,a0,668 # 0x10318
    c084:	d85f60ef          	jal	ra,0x2e08
    c088:	00098663          	beqz	s3,0xc094
    c08c:	0099f663          	bgeu	s3,s1,0xc098
    c090:	4134893b          	0x4134893b
    c094:	0124fe63          	bgeu	s1,s2,0xc0b0
    c098:	00004517          	auipc	a0,0x4
    c09c:	2a050513          	addi	a0,a0,672 # 0x10338
    c0a0:	d69f60ef          	jal	ra,0x2e08
    c0a4:	00040513          	mv	a0,s0
    c0a8:	cf5fb0ef          	jal	ra,0x7d9c
    c0ac:	f01ff06f          	j	0xbfac
    c0b0:	00090593          	mv	a1,s2
    c0b4:	00004517          	auipc	a0,0x4
    c0b8:	2c450513          	addi	a0,a0,708 # 0x10378
    c0bc:	d4df60ef          	jal	ra,0x2e08
    c0c0:	00000613          	li	a2,0
    c0c4:	00000593          	li	a1,0
    c0c8:	00040513          	mv	a0,s0
    c0cc:	412484bb          	0x412484bb
    c0d0:	e1dfb0ef          	jal	ra,0x7eec
    c0d4:	00000913          	li	s2,0
    c0d8:	00a00993          	li	s3,10
    c0dc:	00001a17          	auipc	s4,0x1
    c0e0:	144a0a13          	addi	s4,s4,324 # 0xd220
    c0e4:	00100613          	li	a2,1
    c0e8:	00f10593          	addi	a1,sp,15
    c0ec:	00040513          	mv	a0,s0
    c0f0:	d15fb0ef          	jal	ra,0x7e04
    c0f4:	02a04063          	bgtz	a0,0xc114
    c0f8:	00003517          	auipc	a0,0x3
    c0fc:	4b050513          	addi	a0,a0,1200 # 0xf5a8
    c100:	d09f60ef          	jal	ra,0x2e08
    c104:	00040513          	mv	a0,s0
    c108:	c95fb0ef          	jal	ra,0x7d9c
    c10c:	00000513          	li	a0,0
    c110:	ea1ff06f          	j	0xbfb0
    c114:	00f14583          	lbu	a1,15(sp)
    c118:	01359463          	bne	a1,s3,0xc120
    c11c:	0019091b          	0x19091b
    c120:	fd24f2e3          	bgeu	s1,s2,0xc0e4
    c124:	000a0513          	mv	a0,s4
    c128:	ce1f60ef          	jal	ra,0x2e08
    c12c:	fb9ff06f          	j	0xc0e4
    c130:	ff010113          	addi	sp,sp,-16
    c134:	00113423          	0x113423
    c138:	00300713          	li	a4,3
    c13c:	02e50663          	beq	a0,a4,0xc168
    c140:	00004517          	auipc	a0,0x4
    c144:	25850513          	addi	a0,a0,600 # 0x10398
    c148:	cc1f60ef          	jal	ra,0x2e08
    c14c:	00004517          	auipc	a0,0x4
    c150:	26450513          	addi	a0,a0,612 # 0x103b0
    c154:	cb5f60ef          	jal	ra,0x2e08
    c158:	00813083          	0x813083
    c15c:	00000513          	li	a0,0
    c160:	01010113          	addi	sp,sp,16
    c164:	00008067          	ret
    c168:	00058793          	mv	a5,a1
    c16c:	0087b503          	0x87b503
    c170:	0105b583          	0x105b583
    c174:	851fb0ef          	jal	ra,0x79c4
    c178:	fe1ff06f          	j	0xc158
    c17c:	fe010113          	addi	sp,sp,-32
    c180:	00113c23          	0x113c23
    c184:	00813823          	0x813823
    c188:	00913423          	0x913423
    c18c:	01213023          	0x1213023
    c190:	00300793          	li	a5,3
    c194:	02f50e63          	beq	a0,a5,0xc1d0
    c198:	00004517          	auipc	a0,0x4
    c19c:	23050513          	addi	a0,a0,560 # 0x103c8
    c1a0:	c69f60ef          	jal	ra,0x2e08
    c1a4:	00004517          	auipc	a0,0x4
    c1a8:	23c50513          	addi	a0,a0,572 # 0x103e0
    c1ac:	c5df60ef          	jal	ra,0x2e08
    c1b0:	00000913          	li	s2,0
    c1b4:	01813083          	0x1813083
    c1b8:	01013403          	0x1013403
    c1bc:	00813483          	0x813483
    c1c0:	00090513          	mv	a0,s2
    c1c4:	00013903          	0x13903
    c1c8:	02010113          	addi	sp,sp,32
    c1cc:	00008067          	ret
    c1d0:	0105b603          	0x105b603
    c1d4:	00058413          	mv	s0,a1
    c1d8:	0085b583          	0x85b583
    c1dc:	00004517          	auipc	a0,0x4
    c1e0:	23c50513          	addi	a0,a0,572 # 0x10418
    c1e4:	c25f60ef          	jal	ra,0x2e08
    c1e8:	01043503          	0x1043503
    c1ec:	00000613          	li	a2,0
    c1f0:	000105b7          	lui	a1,0x10
    c1f4:	afdfb0ef          	jal	ra,0x7cf0
    c1f8:	08054c63          	bltz	a0,0xc290
    c1fc:	ba1fb0ef          	jal	ra,0x7d9c
    c200:	10000513          	li	a0,256
    c204:	f05f40ef          	jal	ra,0x1108
    c208:	00050493          	mv	s1,a0
    c20c:	00051c63          	bnez	a0,0xc224
    c210:	00003517          	auipc	a0,0x3
    c214:	a8050513          	addi	a0,a0,-1408 # 0xec90
    c218:	bf1f60ef          	jal	ra,0x2e08
    c21c:	ffb00913          	li	s2,-5
    c220:	f95ff06f          	j	0xc1b4
    c224:	00843903          	0x843903
    c228:	00090513          	mv	a0,s2
    c22c:	cd4f60ef          	jal	ra,0x2700
    c230:	00843783          	0x843783
    c234:	00a90733          	add	a4,s2,a0
    c238:	02f00693          	li	a3,47
    c23c:	00f70663          	beq	a4,a5,0xc248
    c240:	00074603          	lbu	a2,0(a4)
    c244:	04d61263          	bne	a2,a3,0xc288
    c248:	01043683          	0x1043683
    c24c:	00003617          	auipc	a2,0x3
    c250:	f9c60613          	addi	a2,a2,-100 # 0xf1e8
    c254:	0ff00593          	li	a1,255
    c258:	00048513          	mv	a0,s1
    c25c:	ab1f60ef          	jal	ra,0x2d0c
    c260:	00843503          	0x843503
    c264:	00048593          	mv	a1,s1
    c268:	00000913          	li	s2,0
    c26c:	d35fb0ef          	jal	ra,0x7fa0
    c270:	f40482e3          	beqz	s1,0xc1b4
    c274:	01043783          	0x1043783
    c278:	f2f48ee3          	beq	s1,a5,0xc1b4
    c27c:	00048513          	mv	a0,s1
    c280:	9d8f50ef          	jal	ra,0x1458
    c284:	f31ff06f          	j	0xc1b4
    c288:	fff70713          	addi	a4,a4,-1
    c28c:	fb1ff06f          	j	0xc23c
    c290:	01043503          	0x1043503
    c294:	00000613          	li	a2,0
    c298:	00000593          	li	a1,0
    c29c:	a55fb0ef          	jal	ra,0x7cf0
    c2a0:	00054863          	bltz	a0,0xc2b0
    c2a4:	af9fb0ef          	jal	ra,0x7d9c
    c2a8:	01043503          	0x1043503
    c2ac:	d21fb0ef          	jal	ra,0x7fcc
    c2b0:	01043483          	0x1043483
    c2b4:	fadff06f          	j	0xc260
    c2b8:	fe010113          	addi	sp,sp,-32
    c2bc:	00113c23          	0x113c23
    c2c0:	00813823          	0x813823
    c2c4:	00913423          	0x913423
    c2c8:	01213023          	0x1213023
    c2cc:	00100793          	li	a5,1
    c2d0:	04f51c63          	bne	a0,a5,0xc328
    c2d4:	00004517          	auipc	a0,0x4
    c2d8:	15450513          	addi	a0,a0,340 # 0x10428
    c2dc:	b2df60ef          	jal	ra,0x2e08
    c2e0:	00004517          	auipc	a0,0x4
    c2e4:	16050513          	addi	a0,a0,352 # 0x10440
    c2e8:	b21f60ef          	jal	ra,0x2e08
    c2ec:	01813083          	0x1813083
    c2f0:	01013403          	0x1013403
    c2f4:	00813483          	0x813483
    c2f8:	00013903          	0x13903
    c2fc:	00000513          	li	a0,0
    c300:	02010113          	addi	sp,sp,32
    c304:	00008067          	ret
    c308:	00349793          	slli	a5,s1,0x3
    c30c:	00f907b3          	add	a5,s2,a5
    c310:	0007b503          	0x7b503
    c314:	e59fa0ef          	jal	ra,0x716c
    c318:	00148493          	addi	s1,s1,1
    c31c:	0004879b          	0x4879b
    c320:	fe87c4e3          	blt	a5,s0,0xc308
    c324:	fc9ff06f          	j	0xc2ec
    c328:	00050413          	mv	s0,a0
    c32c:	00058913          	mv	s2,a1
    c330:	00000493          	li	s1,0
    c334:	fe5ff06f          	j	0xc318
    c338:	ff010113          	addi	sp,sp,-16
    c33c:	00113423          	0x113423
    c340:	00813023          	0x813023
    c344:	00100793          	li	a5,1
    c348:	02f51663          	bne	a0,a5,0xc374
    c34c:	00005597          	auipc	a1,0x5
    c350:	d5458593          	addi	a1,a1,-684 # 0x110a0
    c354:	00004517          	auipc	a0,0x4
    c358:	58450513          	addi	a0,a0,1412 # 0x108d8
    c35c:	aadf60ef          	jal	ra,0x2e08
    c360:	00813083          	0x813083
    c364:	00013403          	0x13403
    c368:	00000513          	li	a0,0
    c36c:	01010113          	addi	sp,sp,16
    c370:	00008067          	ret
    c374:	00200793          	li	a5,2
    c378:	fef514e3          	bne	a0,a5,0xc360
    c37c:	0085b503          	0x85b503
    c380:	00058413          	mv	s0,a1
    c384:	f11fb0ef          	jal	ra,0x8294
    c388:	fc050ce3          	beqz	a0,0xc360
    c38c:	00843583          	0x843583
    c390:	00004517          	auipc	a0,0x4
    c394:	0c850513          	addi	a0,a0,200 # 0x10458
    c398:	fc5ff06f          	j	0xc35c
    c39c:	ff010113          	addi	sp,sp,-16
    c3a0:	00113423          	0x113423
    c3a4:	00100713          	li	a4,1
    c3a8:	02e51663          	bne	a0,a4,0xc3d4
    c3ac:	00004517          	auipc	a0,0x4
    c3b0:	0c450513          	addi	a0,a0,196 # 0x10470
    c3b4:	a55f60ef          	jal	ra,0x2e08
    c3b8:	00004517          	auipc	a0,0x4
    c3bc:	0e050513          	addi	a0,a0,224 # 0x10498
    c3c0:	a49f60ef          	jal	ra,0x2e08
    c3c4:	00813083          	0x813083
    c3c8:	00000513          	li	a0,0
    c3cc:	01010113          	addi	sp,sp,16
    c3d0:	00008067          	ret
    c3d4:	00058793          	mv	a5,a1
    c3d8:	0087b503          	0x87b503
    c3dc:	00000593          	li	a1,0
    c3e0:	871fb0ef          	jal	ra,0x7c50
    c3e4:	fe1ff06f          	j	0xc3c4
    c3e8:	fd010113          	addi	sp,sp,-48
    c3ec:	02113423          	0x2113423
    c3f0:	02813023          	0x2813023
    c3f4:	00913c23          	0x913c23
    c3f8:	01213823          	0x1213823
    c3fc:	00100793          	li	a5,1
    c400:	06f51c63          	bne	a0,a5,0xc478
    c404:	00004517          	auipc	a0,0x4
    c408:	0cc50513          	addi	a0,a0,204 # 0x104d0
    c40c:	9fdf60ef          	jal	ra,0x2e08
    c410:	00004517          	auipc	a0,0x4
    c414:	0e050513          	addi	a0,a0,224 # 0x104f0
    c418:	9f1f60ef          	jal	ra,0x2e08
    c41c:	00016417          	auipc	s0,0x16
    c420:	ee440413          	addi	s0,s0,-284 # 0x22300
    c424:	00004917          	auipc	s2,0x4
    c428:	0ec90913          	addi	s2,s2,236 # 0x10510
    c42c:	00016497          	auipc	s1,0x16
    c430:	f1448493          	addi	s1,s1,-236 # 0x22340
    c434:	00843683          	0x843683
    c438:	00068c63          	beqz	a3,0xc450
    c43c:	01043783          	0x1043783
    c440:	00043603          	0x43603
    c444:	00090513          	mv	a0,s2
    c448:	0007b583          	0x7b583
    c44c:	9bdf60ef          	jal	ra,0x2e08
    c450:	02040413          	addi	s0,s0,32
    c454:	fe9410e3          	bne	s0,s1,0xc434
    c458:	00000413          	li	s0,0
    c45c:	02813083          	0x2813083
    c460:	00040513          	mv	a0,s0
    c464:	02013403          	0x2013403
    c468:	01813483          	0x1813483
    c46c:	01013903          	0x1013903
    c470:	03010113          	addi	sp,sp,48
    c474:	00008067          	ret
    c478:	00400793          	li	a5,4
    c47c:	06f51663          	bne	a0,a5,0xc4e8
    c480:	0085b403          	0x85b403
    c484:	0105b483          	0x105b483
    c488:	0185b603          	0x185b603
    c48c:	00004517          	auipc	a0,0x4
    c490:	09c50513          	addi	a0,a0,156 # 0x10528
    c494:	00040593          	mv	a1,s0
    c498:	00048693          	mv	a3,s1
    c49c:	00c13423          	0xc13423
    c4a0:	969f60ef          	jal	ra,0x2e08
    c4a4:	00813603          	0x813603
    c4a8:	00040513          	mv	a0,s0
    c4ac:	00000713          	li	a4,0
    c4b0:	00000693          	li	a3,0
    c4b4:	00048593          	mv	a1,s1
    c4b8:	8d8fc0ef          	jal	ra,0x8590
    c4bc:	00050413          	mv	s0,a0
    c4c0:	00051a63          	bnez	a0,0xc4d4
    c4c4:	00004517          	auipc	a0,0x4
    c4c8:	dfc50513          	addi	a0,a0,-516 # 0x102c0
    c4cc:	93df60ef          	jal	ra,0x2e08
    c4d0:	f8dff06f          	j	0xc45c
    c4d4:	00004517          	auipc	a0,0x4
    c4d8:	ddc50513          	addi	a0,a0,-548 # 0x102b0
    c4dc:	92df60ef          	jal	ra,0x2e08
    c4e0:	fff00413          	li	s0,-1
    c4e4:	f79ff06f          	j	0xc45c
    c4e8:	00004517          	auipc	a0,0x4
    c4ec:	06850513          	addi	a0,a0,104 # 0x10550
    c4f0:	fedff06f          	j	0xc4dc
    c4f4:	ff010113          	addi	sp,sp,-16
    c4f8:	00113423          	0x113423
    c4fc:	00813023          	0x813023
    c500:	00200793          	li	a5,2
    c504:	00f50a63          	beq	a0,a5,0xc518
    c508:	00002517          	auipc	a0,0x2
    c50c:	75050513          	addi	a0,a0,1872 # 0xec58
    c510:	d90fc0ef          	jal	ra,0x8aa0
    c514:	03c0006f          	j	0xc550
    c518:	0085b403          	0x85b403
    c51c:	00004597          	auipc	a1,0x4
    c520:	06458593          	addi	a1,a1,100 # 0x10580
    c524:	00040513          	mv	a0,s0
    c528:	8a4f40ef          	jal	ra,0x5cc
    c52c:	00050c63          	beqz	a0,0xc544
    c530:	00004597          	auipc	a1,0x4
    c534:	05858593          	addi	a1,a1,88 # 0x10588
    c538:	00040513          	mv	a0,s0
    c53c:	890f40ef          	jal	ra,0x5cc
    c540:	02051263          	bnez	a0,0xc564
    c544:	00004517          	auipc	a0,0x4
    c548:	04c50513          	addi	a0,a0,76 # 0x10590
    c54c:	8bdf60ef          	jal	ra,0x2e08
    c550:	00813083          	0x813083
    c554:	00013403          	0x13403
    c558:	00000513          	li	a0,0
    c55c:	01010113          	addi	sp,sp,16
    c560:	00008067          	ret
    c564:	00040513          	mv	a0,s0
    c568:	fa9ff06f          	j	0xc510
    c56c:	fd010113          	addi	sp,sp,-48
    c570:	02813023          	0x2813023
    c574:	02113423          	0x2113423
    c578:	00913c23          	0x913c23
    c57c:	00200793          	li	a5,2
    c580:	00058413          	mv	s0,a1
    c584:	00f51c63          	bne	a0,a5,0xc59c
    c588:	0085b583          	0x85b583
    c58c:	00004517          	auipc	a0,0x4
    c590:	34c50513          	addi	a0,a0,844 # 0x108d8
    c594:	875f60ef          	jal	ra,0x2e08
    c598:	04c0006f          	j	0xc5e4
    c59c:	00300793          	li	a5,3
    c5a0:	06f51663          	bne	a0,a5,0xc60c
    c5a4:	01043503          	0x1043503
    c5a8:	00000613          	li	a2,0
    c5ac:	44200593          	li	a1,1090
    c5b0:	f40fb0ef          	jal	ra,0x7cf0
    c5b4:	00050493          	mv	s1,a0
    c5b8:	04054263          	bltz	a0,0xc5fc
    c5bc:	00843583          	0x843583
    c5c0:	00058513          	mv	a0,a1
    c5c4:	00b13423          	0xb13423
    c5c8:	fa1f30ef          	jal	ra,0x568
    c5cc:	00813583          	0x813583
    c5d0:	00050613          	mv	a2,a0
    c5d4:	00048513          	mv	a0,s1
    c5d8:	8a1fb0ef          	jal	ra,0x7e78
    c5dc:	00048513          	mv	a0,s1
    c5e0:	fbcfb0ef          	jal	ra,0x7d9c
    c5e4:	02813083          	0x2813083
    c5e8:	02013403          	0x2013403
    c5ec:	01813483          	0x1813483
    c5f0:	00000513          	li	a0,0
    c5f4:	03010113          	addi	sp,sp,48
    c5f8:	00008067          	ret
    c5fc:	01043583          	0x1043583
    c600:	00004517          	auipc	a0,0x4
    c604:	fa050513          	addi	a0,a0,-96 # 0x105a0
    c608:	f8dff06f          	j	0xc594
    c60c:	00004517          	auipc	a0,0x4
    c610:	fac50513          	addi	a0,a0,-84 # 0x105b8
    c614:	ff4f60ef          	jal	ra,0x2e08
    c618:	fcdff06f          	j	0xc5e4
    c61c:	22058263          	beqz	a1,0xc840
    c620:	fa010113          	addi	sp,sp,-96
    c624:	04813823          	0x4813823
    c628:	05213023          	0x5213023
    c62c:	04113c23          	0x4113c23
    c630:	04913423          	0x4913423
    c634:	03313c23          	0x3313c23
    c638:	03413823          	0x3413823
    c63c:	03513423          	0x3513423
    c640:	03613023          	0x3613023
    c644:	01713c23          	0x1713c23
    c648:	00050913          	mv	s2,a0
    c64c:	00000413          	li	s0,0
    c650:	02000713          	li	a4,32
    c654:	00900693          	li	a3,9
    c658:	008907b3          	add	a5,s2,s0
    c65c:	0007c783          	lbu	a5,0(a5)
    c660:	0004099b          	0x4099b
    c664:	00e78663          	beq	a5,a4,0xc670
    c668:	00d78463          	beq	a5,a3,0xc670
    c66c:	12b9c863          	blt	s3,a1,0xc79c
    c670:	0209851b          	0x209851b
    c674:	a95f40ef          	jal	ra,0x1108
    c678:	00050493          	mv	s1,a0
    c67c:	ffb00793          	li	a5,-5
    c680:	12050863          	beqz	a0,0xc7b0
    c684:	00040613          	mv	a2,s0
    c688:	00090593          	mv	a1,s2
    c68c:	f4df30ef          	jal	ra,0x5d8
    c690:	00848433          	add	s0,s1,s0
    c694:	00040023          	sb	zero,0(s0)
    c698:	00004597          	auipc	a1,0x4
    c69c:	f4858593          	addi	a1,a1,-184 # 0x105e0
    c6a0:	00048513          	mv	a0,s1
    c6a4:	f3df30ef          	jal	ra,0x5e0
    c6a8:	00051e63          	bnez	a0,0xc6c4
    c6ac:	00004597          	auipc	a1,0x4
    c6b0:	f3c58593          	addi	a1,a1,-196 # 0x105e8
    c6b4:	00048513          	mv	a0,s1
    c6b8:	f29f30ef          	jal	ra,0x5e0
    c6bc:	fff00413          	li	s0,-1
    c6c0:	04050663          	beqz	a0,0xc70c
    c6c4:	00000613          	li	a2,0
    c6c8:	00000593          	li	a1,0
    c6cc:	00048513          	mv	a0,s1
    c6d0:	e20fb0ef          	jal	ra,0x7cf0
    c6d4:	00050413          	mv	s0,a0
    c6d8:	02055a63          	bgez	a0,0xc70c
    c6dc:	00090713          	mv	a4,s2
    c6e0:	00098693          	mv	a3,s3
    c6e4:	00004617          	auipc	a2,0x4
    c6e8:	f0c60613          	addi	a2,a2,-244 # 0x105f0
    c6ec:	01f9859b          	0x1f9859b
    c6f0:	00048513          	mv	a0,s1
    c6f4:	e18f60ef          	jal	ra,0x2d0c
    c6f8:	00000613          	li	a2,0
    c6fc:	00000593          	li	a1,0
    c700:	00048513          	mv	a0,s1
    c704:	decfb0ef          	jal	ra,0x7cf0
    c708:	00050413          	mv	s0,a0
    c70c:	00048513          	mv	a0,s1
    c710:	d49f40ef          	jal	ra,0x1458
    c714:	fff00793          	li	a5,-1
    c718:	08044c63          	bltz	s0,0xc7b0
    c71c:	10000513          	li	a0,256
    c720:	9e9f40ef          	jal	ra,0x1108
    c724:	00050493          	mv	s1,a0
    c728:	06050e63          	beqz	a0,0xc7a4
    c72c:	00a00a13          	li	s4,10
    c730:	00d00a93          	li	s5,13
    c734:	10000b13          	li	s6,256
    c738:	02000b93          	li	s7,32
    c73c:	00100613          	li	a2,1
    c740:	00f10593          	addi	a1,sp,15
    c744:	00040513          	mv	a0,s0
    c748:	ebcfb0ef          	jal	ra,0x7e04
    c74c:	00100793          	li	a5,1
    c750:	0cf51c63          	bne	a0,a5,0xc828
    c754:	00f14783          	lbu	a5,15(sp)
    c758:	ff4782e3          	beq	a5,s4,0xc73c
    c75c:	ff5780e3          	beq	a5,s5,0xc73c
    c760:	00f48023          	sb	a5,0(s1)
    c764:	00100913          	li	s2,1
    c768:	00100613          	li	a2,1
    c76c:	00f10593          	addi	a1,sp,15
    c770:	00040513          	mv	a0,s0
    c774:	e90fb0ef          	jal	ra,0x7e04
    c778:	00100713          	li	a4,1
    c77c:	0009099b          	0x9099b
    c780:	009907b3          	add	a5,s2,s1
    c784:	00e51863          	bne	a0,a4,0xc794
    c788:	00f14703          	lbu	a4,15(sp)
    c78c:	01470463          	beq	a4,s4,0xc794
    c790:	05571863          	bne	a4,s5,0xc7e0
    c794:	00078023          	sb	zero,0(a5)
    c798:	0580006f          	j	0xc7f0
    c79c:	00140413          	addi	s0,s0,1
    c7a0:	eb9ff06f          	j	0xc658
    c7a4:	00040513          	mv	a0,s0
    c7a8:	df4fb0ef          	jal	ra,0x7d9c
    c7ac:	ffb00793          	li	a5,-5
    c7b0:	05813083          	0x5813083
    c7b4:	05013403          	0x5013403
    c7b8:	04813483          	0x4813483
    c7bc:	04013903          	0x4013903
    c7c0:	03813983          	0x3813983
    c7c4:	03013a03          	0x3013a03
    c7c8:	02813a83          	0x2813a83
    c7cc:	02013b03          	0x2013b03
    c7d0:	01813b83          	0x1813b83
    c7d4:	00078513          	mv	a0,a5
    c7d8:	06010113          	addi	sp,sp,96
    c7dc:	00008067          	ret
    c7e0:	00e78023          	sb	a4,0(a5)
    c7e4:	00190913          	addi	s2,s2,1
    c7e8:	f96910e3          	bne	s2,s6,0xc768
    c7ec:	10000993          	li	s3,256
    c7f0:	00048793          	mv	a5,s1
    c7f4:	00900693          	li	a3,9
    c7f8:	0007c703          	lbu	a4,0(a5)
    c7fc:	01770463          	beq	a4,s7,0xc804
    c800:	00d71863          	bne	a4,a3,0xc810
    c804:	00178793          	addi	a5,a5,1
    c808:	4097863b          	0x4097863b
    c80c:	ff3646e3          	blt	a2,s3,0xc7f8
    c810:	02300793          	li	a5,35
    c814:	f2f704e3          	beq	a4,a5,0xc73c
    c818:	00098593          	mv	a1,s3
    c81c:	00048513          	mv	a0,s1
    c820:	11c000ef          	jal	ra,0xc93c
    c824:	f15ff06f          	j	0xc738
    c828:	00040513          	mv	a0,s0
    c82c:	d70fb0ef          	jal	ra,0x7d9c
    c830:	00048513          	mv	a0,s1
    c834:	c25f40ef          	jal	ra,0x1458
    c838:	00000793          	li	a5,0
    c83c:	f75ff06f          	j	0xc7b0
    c840:	fff00793          	li	a5,-1
    c844:	00078513          	mv	a0,a5
    c848:	00008067          	ret
    c84c:	fd010113          	addi	sp,sp,-48
    c850:	00004517          	auipc	a0,0x4
    c854:	05850513          	addi	a0,a0,88 # 0x108a8
    c858:	02813023          	0x2813023
    c85c:	01213823          	0x1213823
    c860:	01313423          	0x1313423
    c864:	01413023          	0x1413023
    c868:	02113423          	0x2113423
    c86c:	00913c23          	0x913c23
    c870:	0000d917          	auipc	s2,0xd
    c874:	a7090913          	addi	s2,s2,-1424 # 0x192e0
    c878:	d90f60ef          	jal	ra,0x2e08
    c87c:	00004997          	auipc	s3,0x4
    c880:	04c98993          	addi	s3,s3,76 # 0x108c8
    c884:	0000d417          	auipc	s0,0xd
    c888:	a5443403          	0xa5443403
    c88c:	00004a17          	auipc	s4,0x4
    c890:	044a0a13          	addi	s4,s4,68 # 0x108d0
    c894:	00093783          	0x93783
    c898:	02f46a63          	bltu	s0,a5,0xc8cc
    c89c:	00003517          	auipc	a0,0x3
    c8a0:	d0c50513          	addi	a0,a0,-756 # 0xf5a8
    c8a4:	d64f60ef          	jal	ra,0x2e08
    c8a8:	02813083          	0x2813083
    c8ac:	02013403          	0x2013403
    c8b0:	01813483          	0x1813483
    c8b4:	01013903          	0x1013903
    c8b8:	00813983          	0x813983
    c8bc:	00013a03          	0x13a03
    c8c0:	00000513          	li	a0,0
    c8c4:	03010113          	addi	sp,sp,48
    c8c8:	00008067          	ret
    c8cc:	00043483          	0x43483
    c8d0:	00600613          	li	a2,6
    c8d4:	00098593          	mv	a1,s3
    c8d8:	00048513          	mv	a0,s1
    c8dc:	cf5f30ef          	jal	ra,0x5d0
    c8e0:	00051a63          	bnez	a0,0xc8f4
    c8e4:	00843603          	0x843603
    c8e8:	00648593          	addi	a1,s1,6
    c8ec:	000a0513          	mv	a0,s4
    c8f0:	d18f60ef          	jal	ra,0x2e08
    c8f4:	01840413          	addi	s0,s0,24 # 0x1989c
    c8f8:	f9dff06f          	j	0xc894
    c8fc:	ff010113          	addi	sp,sp,-16
    c900:	00113423          	0x113423
    c904:	ae8fe0ef          	jal	ra,0xabec
    c908:	00813083          	0x813083
    c90c:	00000513          	li	a0,0
    c910:	01010113          	addi	sp,sp,16
    c914:	00008067          	ret
    c918:	ff010113          	addi	sp,sp,-16
    c91c:	00113423          	0x113423
    c920:	a78f40ef          	jal	ra,0xb98
    c924:	00813083          	0x813083
    c928:	00000513          	li	a0,0
    c92c:	01010113          	addi	sp,sp,16
    c930:	00008067          	ret
    c934:	00100513          	li	a0,1
    c938:	00008067          	ret
    c93c:	f6010113          	addi	sp,sp,-160
    c940:	08813823          	0x8813823
    c944:	08913423          	0x8913423
    c948:	08113c23          	0x8113c23
    c94c:	09213023          	0x9213023
    c950:	07313c23          	0x7313c23
    c954:	07413823          	0x7413823
    c958:	07513423          	0x7513423
    c95c:	07613023          	0x7613023
    c960:	05713c23          	0x5713c23
    c964:	00050493          	mv	s1,a0
    c968:	00058413          	mv	s0,a1
    c96c:	02000693          	li	a3,32
    c970:	00900713          	li	a4,9
    c974:	04041063          	bnez	s0,0xc9b4
    c978:	00000513          	li	a0,0
    c97c:	09813083          	0x9813083
    c980:	09013403          	0x9013403
    c984:	08813483          	0x8813483
    c988:	08013903          	0x8013903
    c98c:	07813983          	0x7813983
    c990:	07013a03          	0x7013a03
    c994:	06813a83          	0x6813a83
    c998:	06013b03          	0x6013b03
    c99c:	05813b83          	0x5813b83
    c9a0:	0a010113          	addi	sp,sp,160
    c9a4:	00008067          	ret
    c9a8:	00148493          	addi	s1,s1,1
    c9ac:	fff40413          	addi	s0,s0,-1
    c9b0:	fc5ff06f          	j	0xc974
    c9b4:	0004c783          	lbu	a5,0(s1)
    c9b8:	fed788e3          	beq	a5,a3,0xc9a8
    c9bc:	fee786e3          	beq	a5,a4,0xc9a8
    c9c0:	00000793          	li	a5,0
    c9c4:	02000693          	li	a3,32
    c9c8:	00900613          	li	a2,9
    c9cc:	00f48733          	add	a4,s1,a5
    c9d0:	00074703          	lbu	a4,0(a4)
    c9d4:	0cd70663          	beq	a4,a3,0xcaa0
    c9d8:	0cc70463          	beq	a4,a2,0xcaa0
    c9dc:	0af41e63          	bne	s0,a5,0xca98
    c9e0:	00078b1b          	0x78b1b
    c9e4:	0000d997          	auipc	s3,0xd
    c9e8:	8f49b983          	0x8f49b983
    c9ec:	0000da97          	auipc	s5,0xd
    c9f0:	8f4aba83          	0x8f4aba83
    c9f4:	00004b97          	auipc	s7,0x4
    c9f8:	ed4b8b93          	addi	s7,s7,-300 # 0x108c8
    c9fc:	0067891b          	0x67891b
    ca00:	0b59f263          	bgeu	s3,s5,0xcaa4
    ca04:	0009ba03          	0x9ba03
    ca08:	00600613          	li	a2,6
    ca0c:	000b8593          	mv	a1,s7
    ca10:	000a0513          	mv	a0,s4
    ca14:	bbdf30ef          	jal	ra,0x5d0
    ca18:	0c051463          	bnez	a0,0xcae0
    ca1c:	000b0613          	mv	a2,s6
    ca20:	00048593          	mv	a1,s1
    ca24:	006a0513          	addi	a0,s4,6
    ca28:	ba9f30ef          	jal	ra,0x5d0
    ca2c:	0a051a63          	bnez	a0,0xcae0
    ca30:	012a0a33          	add	s4,s4,s2
    ca34:	000a4783          	lbu	a5,0(s4)
    ca38:	0a079463          	bnez	a5,0xcae0
    ca3c:	0109b983          	0x109b983
    ca40:	06098263          	beqz	s3,0xcaa4
    ca44:	05000613          	li	a2,80
    ca48:	00000593          	li	a1,0
    ca4c:	00010513          	mv	a0,sp
    ca50:	b85f30ef          	jal	ra,0x5d4
    ca54:	00010913          	mv	s2,sp
    ca58:	00010613          	mv	a2,sp
    ca5c:	00048793          	mv	a5,s1
    ca60:	00000713          	li	a4,0
    ca64:	00000693          	li	a3,0
    ca68:	02000813          	li	a6,32
    ca6c:	00900893          	li	a7,9
    ca70:	00a00313          	li	t1,10
    ca74:	02200593          	li	a1,34
    ca78:	05c00e13          	li	t3,92
    ca7c:	0007c503          	lbu	a0,0(a5)
    ca80:	01050463          	beq	a0,a6,0xca88
    ca84:	07151a63          	bne	a0,a7,0xcaf8
    ca88:	06e41063          	bne	s0,a4,0xcae8
    ca8c:	00a00793          	li	a5,10
    ca90:	06f68663          	beq	a3,a5,0xcafc
    ca94:	0d40006f          	j	0xcb68
    ca98:	00178793          	addi	a5,a5,1
    ca9c:	f31ff06f          	j	0xc9cc
    caa0:	f40790e3          	bnez	a5,0xc9e0
    caa4:	0004059b          	0x4059b
    caa8:	00048513          	mv	a0,s1
    caac:	b71ff0ef          	jal	ra,0xc61c
    cab0:	00048793          	mv	a5,s1
    cab4:	ec0502e3          	beqz	a0,0xc978
    cab8:	0007c703          	lbu	a4,0(a5)
    cabc:	0df77713          	andi	a4,a4,223
    cac0:	10071c63          	bnez	a4,0xcbd8
    cac4:	00004517          	auipc	a0,0x4
    cac8:	e4450513          	addi	a0,a0,-444 # 0x10908
    cacc:	00078023          	sb	zero,0(a5)
    cad0:	00048593          	mv	a1,s1
    cad4:	b34f60ef          	jal	ra,0x2e08
    cad8:	fff00513          	li	a0,-1
    cadc:	ea1ff06f          	j	0xc97c
    cae0:	01898993          	addi	s3,s3,24 # 0x199fc
    cae4:	f1dff06f          	j	0xca00
    cae8:	00078023          	sb	zero,0(a5)
    caec:	00170713          	addi	a4,a4,1
    caf0:	00178793          	addi	a5,a5,1
    caf4:	f89ff06f          	j	0xca7c
    caf8:	04669663          	bne	a3,t1,0xcb44
    cafc:	00004517          	auipc	a0,0x4
    cb00:	de450513          	addi	a0,a0,-540 # 0x108e0
    cb04:	b04f60ef          	jal	ra,0x2e08
    cb08:	05010413          	addi	s0,sp,80
    cb0c:	00004497          	auipc	s1,0x4
    cb10:	df448493          	addi	s1,s1,-524 # 0x10900
    cb14:	00093583          	0x93583
    cb18:	00048513          	mv	a0,s1
    cb1c:	00890913          	addi	s2,s2,8
    cb20:	ae8f60ef          	jal	ra,0x2e08
    cb24:	fe8918e3          	bne	s2,s0,0xcb14
    cb28:	00003517          	auipc	a0,0x3
    cb2c:	a8050513          	addi	a0,a0,-1408 # 0xf5a8
    cb30:	ad8f60ef          	jal	ra,0x2e08
    cb34:	00a00513          	li	a0,10
    cb38:	00010593          	mv	a1,sp
    cb3c:	000980e7          	jalr	s3
    cb40:	e3dff06f          	j	0xc97c
    cb44:	02877263          	bgeu	a4,s0,0xcb68
    cb48:	00168693          	addi	a3,a3,1 # 0x1001
    cb4c:	06b51263          	bne	a0,a1,0xcbb0
    cb50:	00178793          	addi	a5,a5,1
    cb54:	00170713          	addi	a4,a4,1
    cb58:	00f63023          	0xf63023
    cb5c:	0007c503          	lbu	a0,0(a5)
    cb60:	02b50a63          	beq	a0,a1,0xcb94
    cb64:	00876863          	bltu	a4,s0,0xcb74
    cb68:	0006851b          	0x6851b
    cb6c:	fc0696e3          	bnez	a3,0xcb38
    cb70:	f35ff06f          	j	0xcaa4
    cb74:	0017ce83          	lbu	t4,1(a5)
    cb78:	01c51863          	bne	a0,t3,0xcb88
    cb7c:	00be9663          	bne	t4,a1,0xcb88
    cb80:	00178793          	addi	a5,a5,1
    cb84:	00170713          	addi	a4,a4,1
    cb88:	00178793          	addi	a5,a5,1
    cb8c:	00170713          	addi	a4,a4,1
    cb90:	fcdff06f          	j	0xcb5c
    cb94:	fc877ae3          	bgeu	a4,s0,0xcb68
    cb98:	00078023          	sb	zero,0(a5)
    cb9c:	00170713          	addi	a4,a4,1
    cba0:	00178793          	addi	a5,a5,1
    cba4:	00860613          	addi	a2,a2,8
    cba8:	ec876ae3          	bltu	a4,s0,0xca7c
    cbac:	fbdff06f          	j	0xcb68
    cbb0:	00f63023          	0xf63023
    cbb4:	0007c503          	lbu	a0,0(a5)
    cbb8:	01050c63          	beq	a0,a6,0xcbd0
    cbbc:	01150a63          	beq	a0,a7,0xcbd0
    cbc0:	fae404e3          	beq	s0,a4,0xcb68
    cbc4:	00178793          	addi	a5,a5,1
    cbc8:	00170713          	addi	a4,a4,1
    cbcc:	fe9ff06f          	j	0xcbb4
    cbd0:	fc876ae3          	bltu	a4,s0,0xcba4
    cbd4:	f95ff06f          	j	0xcb68
    cbd8:	00178793          	addi	a5,a5,1
    cbdc:	eddff06f          	j	0xcab8
    cbe0:	26050863          	beqz	a0,0xce50
    cbe4:	fc010113          	addi	sp,sp,-64
    cbe8:	03213023          	0x3213023
    cbec:	00050913          	mv	s2,a0
    cbf0:	10000513          	li	a0,256
    cbf4:	02813823          	0x2813823
    cbf8:	02113c23          	0x2113c23
    cbfc:	02913423          	0x2913423
    cc00:	01313c23          	0x1313c23
    cc04:	01413823          	0x1413823
    cc08:	01513423          	0x1513423
    cc0c:	cfcf40ef          	jal	ra,0x1108
    cc10:	00050413          	mv	s0,a0
    cc14:	20050c63          	beqz	a0,0xce2c
    cc18:	00094783          	lbu	a5,0(s2)
    cc1c:	02f00493          	li	s1,47
    cc20:	04978863          	beq	a5,s1,0xcc70
    cc24:	10000593          	li	a1,256
    cc28:	f24fb0ef          	jal	ra,0x834c
    cc2c:	00040513          	mv	a0,s0
    cc30:	ad1f50ef          	jal	ra,0x2700
    cc34:	00a40533          	add	a0,s0,a0
    cc38:	fff54783          	lbu	a5,-1(a0)
    cc3c:	00978a63          	beq	a5,s1,0xcc50
    cc40:	00002597          	auipc	a1,0x2
    cc44:	01858593          	addi	a1,a1,24 # 0xec58
    cc48:	00040513          	mv	a0,s0
    cc4c:	949f30ef          	jal	ra,0x594
    cc50:	00090793          	mv	a5,s2
    cc54:	00000993          	li	s3,0
    cc58:	02f00693          	li	a3,47
    cc5c:	0007c703          	lbu	a4,0(a5)
    cc60:	00d71c63          	bne	a4,a3,0xcc78
    cc64:	00178993          	addi	s3,a5,1
    cc68:	00178793          	addi	a5,a5,1
    cc6c:	ff1ff06f          	j	0xcc5c
    cc70:	00050023          	sb	zero,0(a0)
    cc74:	fddff06f          	j	0xcc50
    cc78:	fe0718e3          	bnez	a4,0xcc68
    cc7c:	00099463          	bnez	s3,0xcc84
    cc80:	00090993          	mv	s3,s2
    cc84:	00040513          	mv	a0,s0
    cc88:	0080006f          	j	0xcc90
    cc8c:	00150513          	addi	a0,a0,1
    cc90:	00054783          	lbu	a5,0(a0)
    cc94:	fe079ce3          	bnez	a5,0xcc8c
    cc98:	00050793          	mv	a5,a0
    cc9c:	00090493          	mv	s1,s2
    cca0:	05349463          	bne	s1,s3,0xcce8
    cca4:	41248933          	sub	s2,s1,s2
    cca8:	01250933          	add	s2,a0,s2
    ccac:	00090023          	sb	zero,0(s2)
    ccb0:	00040513          	mv	a0,s0
    ccb4:	b70fb0ef          	jal	ra,0x8024
    ccb8:	00050a13          	mv	s4,a0
    ccbc:	04051063          	bnez	a0,0xccfc
    ccc0:	00040513          	mv	a0,s0
    ccc4:	03013403          	0x3013403
    ccc8:	03813083          	0x3813083
    cccc:	02813483          	0x2813483
    ccd0:	02013903          	0x2013903
    ccd4:	01813983          	0x1813983
    ccd8:	01013a03          	0x1013a03
    ccdc:	00813a83          	0x813a83
    cce0:	04010113          	addi	sp,sp,64
    cce4:	f74f406f          	j	0x1458
    cce8:	0004c703          	lbu	a4,0(s1)
    ccec:	00148493          	addi	s1,s1,1
    ccf0:	00178793          	addi	a5,a5,1
    ccf4:	fee78fa3          	sb	a4,-1(a5)
    ccf8:	fa9ff06f          	j	0xcca0
    ccfc:	0004c783          	lbu	a5,0(s1)
    cd00:	02079463          	bnez	a5,0xcd28
    cd04:	00004497          	auipc	s1,0x4
    cd08:	bd448493          	addi	s1,s1,-1068 # 0x108d8
    cd0c:	000a0513          	mv	a0,s4
    cd10:	bd8fb0ef          	jal	ra,0x80e8
    cd14:	10050663          	beqz	a0,0xce20
    cd18:	00450593          	addi	a1,a0,4
    cd1c:	00048513          	mv	a0,s1
    cd20:	8e8f60ef          	jal	ra,0x2e08
    cd24:	fe9ff06f          	j	0xcd0c
    cd28:	00000493          	li	s1,0
    cd2c:	000a0513          	mv	a0,s4
    cd30:	bb8fb0ef          	jal	ra,0x80e8
    cd34:	06050c63          	beqz	a0,0xcdac
    cd38:	00450913          	addi	s2,a0,4
    cd3c:	00098513          	mv	a0,s3
    cd40:	9c1f50ef          	jal	ra,0x2700
    cd44:	00050613          	mv	a2,a0
    cd48:	00090593          	mv	a1,s2
    cd4c:	00098513          	mv	a0,s3
    cd50:	881f30ef          	jal	ra,0x5d0
    cd54:	fc051ce3          	bnez	a0,0xcd2c
    cd58:	00049e63          	bnez	s1,0xcd74
    cd5c:	00090513          	mv	a0,s2
    cd60:	9a1f50ef          	jal	ra,0x2700
    cd64:	00050493          	mv	s1,a0
    cd68:	00090593          	mv	a1,s2
    cd6c:	00040513          	mv	a0,s0
    cd70:	ffcf30ef          	jal	ra,0x56c
    cd74:	00090593          	mv	a1,s2
    cd78:	00040793          	mv	a5,s0
    cd7c:	0005c683          	lbu	a3,0(a1)
    cd80:	00068863          	beqz	a3,0xcd90
    cd84:	0007c703          	lbu	a4,0(a5)
    cd88:	00070463          	beqz	a4,0xcd90
    cd8c:	00e68a63          	beq	a3,a4,0xcda0
    cd90:	412585bb          	0x412585bb
    cd94:	f895fce3          	bgeu	a1,s1,0xcd2c
    cd98:	00058493          	mv	s1,a1
    cd9c:	f91ff06f          	j	0xcd2c
    cda0:	00158593          	addi	a1,a1,1
    cda4:	00178793          	addi	a5,a5,1
    cda8:	fd5ff06f          	j	0xcd7c
    cdac:	06048a63          	beqz	s1,0xce20
    cdb0:	00040513          	mv	a0,s0
    cdb4:	94df50ef          	jal	ra,0x2700
    cdb8:	04a4f863          	bgeu	s1,a0,0xce08
    cdbc:	000a0513          	mv	a0,s4
    cdc0:	bf0fb0ef          	jal	ra,0x81b0
    cdc4:	00004a97          	auipc	s5,0x4
    cdc8:	b14a8a93          	addi	s5,s5,-1260 # 0x108d8
    cdcc:	000a0513          	mv	a0,s4
    cdd0:	b18fb0ef          	jal	ra,0x80e8
    cdd4:	02050a63          	beqz	a0,0xce08
    cdd8:	00450913          	addi	s2,a0,4
    cddc:	00098513          	mv	a0,s3
    cde0:	921f50ef          	jal	ra,0x2700
    cde4:	00050613          	mv	a2,a0
    cde8:	00090593          	mv	a1,s2
    cdec:	00098513          	mv	a0,s3
    cdf0:	fe0f30ef          	jal	ra,0x5d0
    cdf4:	fc051ce3          	bnez	a0,0xcdcc
    cdf8:	00090593          	mv	a1,s2
    cdfc:	000a8513          	mv	a0,s5
    ce00:	808f60ef          	jal	ra,0x2e08
    ce04:	fc9ff06f          	j	0xcdcc
    ce08:	00048613          	mv	a2,s1
    ce0c:	00040593          	mv	a1,s0
    ce10:	00098513          	mv	a0,s3
    ce14:	009984b3          	add	s1,s3,s1
    ce18:	fc0f30ef          	jal	ra,0x5d8
    ce1c:	00048023          	sb	zero,0(s1)
    ce20:	000a0513          	mv	a0,s4
    ce24:	bf4fb0ef          	jal	ra,0x8218
    ce28:	e99ff06f          	j	0xccc0
    ce2c:	03813083          	0x3813083
    ce30:	03013403          	0x3013403
    ce34:	02813483          	0x2813483
    ce38:	02013903          	0x2013903
    ce3c:	01813983          	0x1813983
    ce40:	01013a03          	0x1013a03
    ce44:	00813a83          	0x813a83
    ce48:	04010113          	addi	sp,sp,64
    ce4c:	00008067          	ret
    ce50:	00008067          	ret
    ce54:	00054783          	lbu	a5,0(a0)
    ce58:	00079863          	bnez	a5,0xce68
    ce5c:	00000593          	li	a1,0
    ce60:	00000513          	li	a0,0
    ce64:	9e9ff06f          	j	0xc84c
    ce68:	fb010113          	addi	sp,sp,-80
    ce6c:	04813023          	0x4813023
    ce70:	04113423          	0x4113423
    ce74:	00050413          	mv	s0,a0
    ce78:	02913c23          	0x2913c23
    ce7c:	03213823          	0x3213823
    ce80:	03313423          	0x3313423
    ce84:	03413023          	0x3413023
    ce88:	01513c23          	0x1513c23
    ce8c:	01613823          	0x1613823
    ce90:	01713423          	0x1713423
    ce94:	86df50ef          	jal	ra,0x2700
    ce98:	00a40533          	add	a0,s0,a0
    ce9c:	02000793          	li	a5,32
    cea0:	00850a63          	beq	a0,s0,0xceb4
    cea4:	00054703          	lbu	a4,0(a0)
    cea8:	06f71c63          	bne	a4,a5,0xcf20
    ceac:	00150513          	addi	a0,a0,1
    ceb0:	d31ff0ef          	jal	ra,0xcbe0
    ceb4:	0000c997          	auipc	s3,0xc
    ceb8:	4249b983          	0x4249b983
    cebc:	00000b93          	li	s7,0
    cec0:	00000493          	li	s1,0
    cec4:	0000ca17          	auipc	s4,0xc
    cec8:	41ca0a13          	addi	s4,s4,1052 # 0x192e0
    cecc:	00004a97          	auipc	s5,0x4
    ced0:	9fca8a93          	addi	s5,s5,-1540 # 0x108c8
    ced4:	00004b17          	auipc	s6,0x4
    ced8:	a04b0b13          	addi	s6,s6,-1532 # 0x108d8
    cedc:	000a3783          	0xa3783
    cee0:	04f9e463          	bltu	s3,a5,0xcf28
    cee4:	0e0b8263          	beqz	s7,0xcfc8
    cee8:	00040513          	mv	a0,s0
    ceec:	04013403          	0x4013403
    cef0:	04813083          	0x4813083
    cef4:	03013903          	0x3013903
    cef8:	02813983          	0x2813983
    cefc:	02013a03          	0x2013a03
    cf00:	01813a83          	0x1813a83
    cf04:	01013b03          	0x1013b03
    cf08:	00048613          	mv	a2,s1
    cf0c:	000b8593          	mv	a1,s7
    cf10:	03813483          	0x3813483
    cf14:	00813b83          	0x813b83
    cf18:	05010113          	addi	sp,sp,80
    cf1c:	f3cf506f          	j	0x2658
    cf20:	fff50513          	addi	a0,a0,-1
    cf24:	f7dff06f          	j	0xcea0
    cf28:	0009b903          	0x9b903
    cf2c:	00600613          	li	a2,6
    cf30:	000a8593          	mv	a1,s5
    cf34:	00090513          	mv	a0,s2
    cf38:	e98f30ef          	jal	ra,0x5d0
    cf3c:	06051663          	bnez	a0,0xcfa8
    cf40:	00040513          	mv	a0,s0
    cf44:	e24f30ef          	jal	ra,0x568
    cf48:	00690913          	addi	s2,s2,6
    cf4c:	00050613          	mv	a2,a0
    cf50:	00090593          	mv	a1,s2
    cf54:	00040513          	mv	a0,s0
    cf58:	e78f30ef          	jal	ra,0x5d0
    cf5c:	04051663          	bnez	a0,0xcfa8
    cf60:	00049a63          	bnez	s1,0xcf74
    cf64:	00090513          	mv	a0,s2
    cf68:	e00f30ef          	jal	ra,0x568
    cf6c:	0005049b          	0x5049b
    cf70:	00090b93          	mv	s7,s2
    cf74:	000b8793          	mv	a5,s7
    cf78:	00090713          	mv	a4,s2
    cf7c:	0007c603          	lbu	a2,0(a5)
    cf80:	02061863          	bnez	a2,0xcfb0
    cf84:	417787b3          	sub	a5,a5,s7
    cf88:	00078713          	mv	a4,a5
    cf8c:	0007879b          	0x7879b
    cf90:	00f4d463          	bge	s1,a5,0xcf98
    cf94:	00048713          	mv	a4,s1
    cf98:	00090593          	mv	a1,s2
    cf9c:	000b0513          	mv	a0,s6
    cfa0:	0007049b          	0x7049b
    cfa4:	e65f50ef          	jal	ra,0x2e08
    cfa8:	01898993          	addi	s3,s3,24 # 0x18ecc
    cfac:	f31ff06f          	j	0xcedc
    cfb0:	00074683          	lbu	a3,0(a4)
    cfb4:	fc0688e3          	beqz	a3,0xcf84
    cfb8:	fcd616e3          	bne	a2,a3,0xcf84
    cfbc:	00178793          	addi	a5,a5,1
    cfc0:	00170713          	addi	a4,a4,1
    cfc4:	fb9ff06f          	j	0xcf7c
    cfc8:	04813083          	0x4813083
    cfcc:	04013403          	0x4013403
    cfd0:	03813483          	0x3813483
    cfd4:	03013903          	0x3013903
    cfd8:	02813983          	0x2813983
    cfdc:	02013a03          	0x2013a03
    cfe0:	01813a83          	0x1813a83
    cfe4:	01013b03          	0x1013b03
    cfe8:	00813b83          	0x813b83
    cfec:	05010113          	addi	sp,sp,80
    cff0:	00008067          	ret
    cff4:	0000                	unimp
    cff6:	0000                	unimp
    cff8:	6548                	flw	fa0,12(a0)
    cffa:	6c6c                	flw	fa1,92(s0)
    cffc:	4952206f          	j	0x2fc90
    d000:	562d4353          	0x562d4353
    d004:	0a21                	addi	s4,s4,8
    d006:	0000                	unimp
    d008:	6175                	addi	sp,sp,368
    d00a:	7472                	flw	fs0,60(sp)
    d00c:	0000                	unimp
    d00e:	0000                	unimp
    d010:	6568                	flw	fa0,76(a0)
    d012:	7061                	c.lui	zero,0xffff8
    d014:	203a                	fld	ft0,392(sp)
    d016:	2578305b          	0x2578305b
    d01a:	3830                	fld	fa2,112(s0)
    d01c:	2078                	fld	fa4,192(s0)
    d01e:	202d                	jal	0xd048
    d020:	7830                	flw	fa2,112(s0)
    d022:	3025                	jal	0xc84a
    d024:	7838                	flw	fa4,112(s0)
    d026:	0a5d                	addi	s4,s4,23
	...
    d030:	6572                	flw	fa0,28(sp)
    d032:	20746573          	csrrsi	a0,0x207,8
    d036:	616d                	addi	sp,sp,240
    d038:	6e696863          	bltu	s2,t1,0xd728
    d03c:	0065                	c.nop	25
    d03e:	0000                	unimp
    d040:	5f5f 6d63 5f64      	0x5f646d635f5f
    d046:	6572                	flw	fa0,28(sp)
    d048:	6f62                	flw	ft10,24(sp)
    d04a:	0000746f          	jal	s0,0x1404a
    d04e:	0000                	unimp
    d050:	69726573          	csrrsi	a0,0x697,4
    d054:	6c61                	lui	s8,0x18
    d056:	2120                	fld	fs0,64(a0)
    d058:	203d                	jal	0xd086
    d05a:	5452                	lw	s0,52(sp)
    d05c:	4e5f 4c55 004c      	0x4c4c554e5f
    d062:	0000                	unimp
    d064:	0000                	unimp
    d066:	0000                	unimp
    d068:	6175                	addi	sp,sp,368
    d06a:	7472                	flw	fs0,60(sp)
    d06c:	2120                	fld	fs0,64(a0)
    d06e:	203d                	jal	0xd09c
    d070:	5452                	lw	s0,52(sp)
    d072:	4e5f 4c55 004c      	0x4c4c554e5f
    d078:	7472                	flw	fs0,60(sp)
    d07a:	755f 7261 5f74      	0x5f747261755f
    d080:	666e6f63          	bltu	t3,t1,0xd6fe
    d084:	6769                	lui	a4,0x1a
    d086:	7275                	lui	tp,0xffffd
    d088:	0065                	c.nop	25
    d08a:	0000                	unimp
    d08c:	0000                	unimp
    d08e:	0000                	unimp
    d090:	6175                	addi	sp,sp,368
    d092:	7472                	flw	fs0,60(sp)
    d094:	635f 6e6f 7274      	0x72746e6f635f
    d09a:	00006c6f          	jal	s8,0x1309a
    d09e:	0000                	unimp
    d0a0:	0418                	addi	a4,sp,512
    d0a2:	8000                	0x8000
    d0a4:	0000                	unimp
    d0a6:	0000                	unimp
    d0a8:	0474                	addi	a3,sp,524
    d0aa:	8000                	0x8000
    d0ac:	0000                	unimp
    d0ae:	0000                	unimp
    d0b0:	03dc                	addi	a5,sp,452
    d0b2:	8000                	0x8000
    d0b4:	0000                	unimp
    d0b6:	0000                	unimp
    d0b8:	03f8                	addi	a4,sp,460
    d0ba:	8000                	0x8000
	...
    d0c8:	6874                	flw	fa3,84(s0)
    d0ca:	6572                	flw	fa0,28(sp)
    d0cc:	6461                	lui	s0,0x18
    d0ce:	2120                	fld	fs0,64(a0)
    d0d0:	203d                	jal	0xd0fe
    d0d2:	5452                	lw	s0,52(sp)
    d0d4:	4e5f 4c55 004c      	0x4c4c554e5f
    d0da:	0000                	unimp
    d0dc:	0000                	unimp
    d0de:	0000                	unimp
    d0e0:	7472                	flw	fs0,60(sp)
    d0e2:	735f 6863 6465      	0x64656863735f
    d0e8:	6c75                	lui	s8,0x1d
    d0ea:	5f65                	li	t5,-7
    d0ec:	6e69                	lui	t3,0x1a
    d0ee:	74726573          	csrrsi	a0,0x747,4
    d0f2:	745f 7268 6165      	0x61657268745f
    d0f8:	0064                	addi	s1,sp,12
    d0fa:	0000                	unimp
    d0fc:	0000                	unimp
    d0fe:	0000                	unimp
    d100:	7472                	flw	fs0,60(sp)
    d102:	735f 6863 6465      	0x64656863735f
    d108:	6c75                	lui	s8,0x1d
    d10a:	5f65                	li	t5,-7
    d10c:	6572                	flw	fa0,28(sp)
    d10e:	6f6d                	lui	t5,0x1b
    d110:	6576                	flw	fa0,92(sp)
    d112:	745f 7268 6165      	0x61657268745f
    d118:	0064                	addi	s1,sp,12
    d11a:	0000                	unimp
    d11c:	0000                	unimp
    d11e:	0000                	unimp
    d120:	6f74                	flw	fa3,92(a4)
    d122:	6174                	flw	fa3,68(a0)
    d124:	206c                	fld	fa1,192(s0)
    d126:	656d                	lui	a0,0x1b
    d128:	6f6d                	lui	t5,0x1b
    d12a:	7972                	flw	fs2,60(sp)
    d12c:	203a                	fld	ft0,392(sp)
    d12e:	6425                	lui	s0,0x9
    d130:	000a                	c.slli	zero,0x2
    d132:	0000                	unimp
    d134:	0000                	unimp
    d136:	0000                	unimp
    d138:	7375                	lui	t1,0xffffd
    d13a:	6465                	lui	s0,0x19
    d13c:	6d20                	flw	fs0,88(a0)
    d13e:	6d65                	lui	s10,0x19
    d140:	2079726f          	jal	tp,0xa4b46
    d144:	203a                	fld	ft0,392(sp)
    d146:	6425                	lui	s0,0x9
    d148:	000a                	c.slli	zero,0x2
    d14a:	0000                	unimp
    d14c:	0000                	unimp
    d14e:	0000                	unimp
    d150:	616d                	addi	sp,sp,240
    d152:	6978                	flw	fa4,84(a0)
    d154:	756d                	lui	a0,0xffffb
    d156:	206d                	jal	0xd200
    d158:	6c61                	lui	s8,0x18
    d15a:	6f6c                	flw	fa1,92(a4)
    d15c:	65746163          	bltu	s0,s7,0xd79e
    d160:	2064                	fld	fs1,192(s0)
    d162:	656d                	lui	a0,0x1b
    d164:	6f6d                	lui	t5,0x1b
    d166:	7972                	flw	fs2,60(sp)
    d168:	203a                	fld	ft0,392(sp)
    d16a:	6425                	lui	s0,0x9
    d16c:	000a                	c.slli	zero,0x2
    d16e:	0000                	unimp
    d170:	6d0a                	flw	fs10,128(sp)
    d172:	6d65                	lui	s10,0x19
    d174:	2079726f          	jal	tp,0xa4b7a
    d178:	6568                	flw	fa0,76(a0)
    d17a:	7061                	c.lui	zero,0xffff8
    d17c:	6120                	flw	fs0,64(a0)
    d17e:	6464                	flw	fs1,76(s0)
    d180:	6572                	flw	fa0,28(sp)
    d182:	0a3a7373          	csrrci	t1,0xa3,20
    d186:	0000                	unimp
    d188:	6568                	flw	fa0,76(a0)
    d18a:	7061                	c.lui	zero,0xffff8
    d18c:	705f 7274 203a      	0x203a7274705f
    d192:	7830                	flw	fa2,112(s0)
    d194:	3025                	jal	0xc9bc
    d196:	7838                	flw	fa4,112(s0)
    d198:	000a                	c.slli	zero,0x2
    d19a:	0000                	unimp
    d19c:	0000                	unimp
    d19e:	0000                	unimp
    d1a0:	666c                	flw	fa1,76(a2)
    d1a2:	6572                	flw	fa0,28(sp)
    d1a4:	2065                	jal	0xd24c
    d1a6:	2020                	fld	fs0,64(s0)
    d1a8:	203a                	fld	ft0,392(sp)
    d1aa:	7830                	flw	fa2,112(s0)
    d1ac:	3025                	jal	0xc9d4
    d1ae:	7838                	flw	fa4,112(s0)
    d1b0:	000a                	c.slli	zero,0x2
    d1b2:	0000                	unimp
    d1b4:	0000                	unimp
    d1b6:	0000                	unimp
    d1b8:	6568                	flw	fa0,76(a0)
    d1ba:	7061                	c.lui	zero,0xffff8
    d1bc:	655f 646e 203a      	0x203a646e655f
    d1c2:	7830                	flw	fa2,112(s0)
    d1c4:	3025                	jal	0xc9ec
    d1c6:	7838                	flw	fa4,112(s0)
    d1c8:	000a                	c.slli	zero,0x2
    d1ca:	0000                	unimp
    d1cc:	0000                	unimp
    d1ce:	0000                	unimp
    d1d0:	2d0a                	fld	fs10,128(sp)
    d1d2:	6d2d                	lui	s10,0xb
    d1d4:	6d65                	lui	s10,0x19
    d1d6:	2079726f          	jal	tp,0xa4bdc
    d1da:	7469                	lui	s0,0xffffa
    d1dc:	6d65                	lui	s10,0x19
    d1de:	6920                	flw	fs0,80(a0)
    d1e0:	666e                	flw	fa2,216(sp)
    d1e2:	616d726f          	jal	tp,0xe47f8
    d1e6:	6974                	flw	fa3,84(a0)
    d1e8:	2d206e6f          	jal	t3,0x134ba
    d1ec:	0a2d                	addi	s4,s4,11
    d1ee:	0000                	unimp
    d1f0:	2578305b          	0x2578305b
    d1f4:	3830                	fld	fa2,112(s0)
    d1f6:	2078                	fld	fa4,192(s0)
    d1f8:	202d                	jal	0xd222
    d1fa:	0000                	unimp
    d1fc:	0000                	unimp
    d1fe:	0000                	unimp
    d200:	3525                	jal	0xd028
    d202:	0064                	addi	s1,sp,12
    d204:	0000                	unimp
    d206:	0000                	unimp
    d208:	3425                	jal	0xcc30
    d20a:	4b64                	lw	s1,84(a4)
    d20c:	0000                	unimp
    d20e:	0000                	unimp
    d210:	3425                	jal	0xcc38
    d212:	4d64                	lw	s1,92(a0)
    d214:	0000                	unimp
    d216:	0000                	unimp
    d218:	205d                	jal	0xd2be
    d21a:	6325                	lui	t1,0x9
    d21c:	6325                	lui	t1,0x9
    d21e:	6325                	lui	t1,0x9
    d220:	6325                	lui	t1,0x9
    d222:	0000                	unimp
    d224:	0000                	unimp
    d226:	0000                	unimp
    d228:	203a                	fld	ft0,392(sp)
    d22a:	2a2a                	fld	fs4,136(sp)
    d22c:	0a2a                	slli	s4,s4,0xa
    d22e:	0000                	unimp
    d230:	7228                	flw	fa0,96(a2)
    d232:	5f74                	lw	a3,124(a4)
    d234:	6975                	lui	s2,0x1d
    d236:	746e                	flw	fs0,248(sp)
    d238:	5f38                	lw	a4,120(a4)
    d23a:	2074                	fld	fa3,192(s0)
    d23c:	292a                	fld	fs2,136(sp)
    d23e:	656d                	lui	a0,0x1b
    d240:	206d                	jal	0xd2ea
    d242:	3d3e                	fld	fs10,488(sp)
    d244:	6820                	flw	fs0,80(s0)
    d246:	6165                	addi	sp,sp,112
    d248:	5f70                	lw	a2,124(a4)
    d24a:	7470                	flw	fa2,108(s0)
    d24c:	0072                	c.slli	zero,0x1c
    d24e:	0000                	unimp
    d250:	7228                	flw	fa0,96(a2)
    d252:	5f74                	lw	a3,124(a4)
    d254:	6975                	lui	s2,0x1d
    d256:	746e                	flw	fs0,248(sp)
    d258:	5f38                	lw	a4,120(a4)
    d25a:	2074                	fld	fa3,192(s0)
    d25c:	292a                	fld	fs2,136(sp)
    d25e:	656d                	lui	a0,0x1b
    d260:	206d                	jal	0xd30a
    d262:	203c                	fld	fa5,64(s0)
    d264:	7228                	flw	fa0,96(a2)
    d266:	5f74                	lw	a3,124(a4)
    d268:	6975                	lui	s2,0x1d
    d26a:	746e                	flw	fs0,248(sp)
    d26c:	5f38                	lw	a4,120(a4)
    d26e:	2074                	fld	fa3,192(s0)
    d270:	292a                	fld	fs2,136(sp)
    d272:	6568                	flw	fa0,76(a0)
    d274:	7061                	c.lui	zero,0xffff8
    d276:	655f 646e 0000      	0x646e655f
    d27c:	0000                	unimp
    d27e:	0000                	unimp
    d280:	656d                	lui	a0,0x1b
    d282:	2d6d                	jal	0xd93c
    d284:	753e                	flw	fa0,236(sp)
    d286:	20646573          	csrrsi	a0,0x206,8
    d28a:	3d3d                	jal	0xd0c8
    d28c:	3020                	fld	fs0,96(s0)
    d28e:	0000                	unimp
    d290:	654d                	lui	a0,0x13
    d292:	6f6d                	lui	t5,0x1b
    d294:	7972                	flw	fs2,60(sp)
    d296:	6220                	flw	fs0,64(a2)
    d298:	6f6c                	flw	fa1,92(a4)
    d29a:	77206b63          	bltu	zero,s2,0xda10
    d29e:	6f72                	flw	ft10,28(sp)
    d2a0:	676e                	flw	fa4,216(sp)
    d2a2:	0a3a                	slli	s4,s4,0xe
    d2a4:	0000                	unimp
    d2a6:	0000                	unimp
    d2a8:	6461                	lui	s0,0x18
    d2aa:	7264                	flw	fs1,100(a2)
    d2ac:	7365                	lui	t1,0xffff9
    d2ae:	30203a73          	csrrc	s4,medeleg,zero
    d2b2:	2578                	fld	fa4,200(a0)
    d2b4:	3830                	fld	fa2,112(s0)
    d2b6:	0a78                	addi	a4,sp,284
	...
    d2c0:	2020                	fld	fs0,64(s0)
    d2c2:	616d                	addi	sp,sp,240
    d2c4:	3a636967          	0x3a636967
    d2c8:	3020                	fld	fs0,96(s0)
    d2ca:	2578                	fld	fa4,200(a0)
    d2cc:	3430                	fld	fa2,104(s0)
    d2ce:	0a78                	addi	a4,sp,284
	...
    d2d8:	2020                	fld	fs0,64(s0)
    d2da:	7520                	flw	fs0,104(a0)
    d2dc:	3a646573          	csrrsi	a0,0x3a6,8
    d2e0:	2520                	fld	fs0,72(a0)
    d2e2:	0a64                	addi	s1,sp,284
    d2e4:	0000                	unimp
    d2e6:	0000                	unimp
    d2e8:	2020                	fld	fs0,64(s0)
    d2ea:	657a6973          	csrrsi	s2,0x657,20
    d2ee:	203a                	fld	ft0,392(sp)
    d2f0:	6425                	lui	s0,0x9
    d2f2:	000a                	c.slli	zero,0x2
    d2f4:	0000                	unimp
    d2f6:	0000                	unimp
    d2f8:	7546                	flw	fa0,112(sp)
    d2fa:	636e                	flw	ft6,216(sp)
    d2fc:	6974                	flw	fa3,84(a0)
    d2fe:	255b6e6f          	jal	t3,0xc3d52
    d302:	73205d73          	csrrwi	s10,0x732,0
    d306:	6168                	flw	fa0,68(a0)
    d308:	6c6c                	flw	fa1,92(s0)
    d30a:	6e20                	flw	fs0,88(a2)
    d30c:	6220746f          	jal	s0,0x1492e
    d310:	2065                	jal	0xd3b8
    d312:	7375                	lui	t1,0xffffd
    d314:	6465                	lui	s0,0x19
    d316:	6920                	flw	fs0,80(a0)
    d318:	206e                	fld	ft0,216(sp)
    d31a:	5349                	li	t1,-14
    d31c:	0a52                	slli	s4,s4,0x14
    d31e:	0000                	unimp
    d320:	0030                	addi	a2,sp,8
    d322:	0000                	unimp
    d324:	0000                	unimp
    d326:	0000                	unimp
    d328:	4e49                	li	t3,18
    d32a:	5449                	li	s0,-14
    d32c:	0000                	unimp
    d32e:	0000                	unimp
    d330:	6568                	flw	fa0,76(a0)
    d332:	7061                	c.lui	zero,0xffff8
    d334:	0000                	unimp
    d336:	0000                	unimp
    d338:	656d                	lui	a0,0x1b
    d33a:	206d                	jal	0xd3e4
    d33c:	6e69                	lui	t3,0x1a
    d33e:	7469                	lui	s0,0xffffa
    d340:	202c                	fld	fa1,64(s0)
    d342:	7265                	lui	tp,0xffff9
    d344:	6f72                	flw	ft10,28(sp)
    d346:	2072                	fld	ft0,280(sp)
    d348:	6562                	flw	fa0,24(sp)
    d34a:	206e6967          	0x206e6967
    d34e:	6461                	lui	s0,0x18
    d350:	7264                	flw	fs1,100(a2)
    d352:	7365                	lui	t1,0xffff9
    d354:	78302073          	csrr	zero,0x783
    d358:	7825                	lui	a6,0xfffe9
    d35a:	202c                	fld	fa1,64(s0)
    d35c:	6e61                	lui	t3,0x18
    d35e:	2064                	fld	fs1,192(s0)
    d360:	6e65                	lui	t3,0x19
    d362:	2064                	fld	fs1,192(s0)
    d364:	6461                	lui	s0,0x18
    d366:	7264                	flw	fs1,100(a2)
    d368:	7365                	lui	t1,0xffff9
    d36a:	78302073          	csrr	zero,0x783
    d36e:	7825                	lui	a6,0xfffe9
    d370:	000a                	c.slli	zero,0x2
    d372:	0000                	unimp
    d374:	0000                	unimp
    d376:	0000                	unimp
    d378:	2020                	fld	fs0,64(s0)
    d37a:	2020                	fld	fs0,64(s0)
    d37c:	0000                	unimp
    d37e:	0000                	unimp
    d380:	4f4e                	lw	t5,208(sp)
    d382:	454e                	lw	a0,208(sp)
    d384:	0000                	unimp
    d386:	0000                	unimp
    d388:	7228                	flw	fa0,96(a2)
    d38a:	5f74                	lw	a3,124(a4)
    d38c:	6275                	lui	tp,0x1d
    d38e:	7361                	lui	t1,0xffff8
    d390:	5f65                	li	t5,-7
    d392:	2974                	fld	fa3,208(a0)
    d394:	656d                	lui	a0,0x1b
    d396:	206d                	jal	0xd440
    d398:	4953202b          	0x4953202b
    d39c:	455a                	lw	a0,148(sp)
    d39e:	535f464f          	fnmadd.d	fa2,ft10,fs5,fa0,rmm
    d3a2:	5254                	lw	a3,36(a2)
    d3a4:	4355                	li	t1,21
    d3a6:	5f54                	lw	a3,60(a4)
    d3a8:	454d                	li	a0,19
    d3aa:	204d                	jal	0xd44c
    d3ac:	6973202b          	0x6973202b
    d3b0:	657a                	flw	fa0,156(sp)
    d3b2:	3c20                	fld	fs0,120(s0)
    d3b4:	203d                	jal	0xd3e2
    d3b6:	7228                	flw	fa0,96(a2)
    d3b8:	5f74                	lw	a3,124(a4)
    d3ba:	6275                	lui	tp,0x1d
    d3bc:	7361                	lui	t1,0xffff8
    d3be:	5f65                	li	t5,-7
    d3c0:	2974                	fld	fa3,208(a0)
    d3c2:	6568                	flw	fa0,76(a0)
    d3c4:	7061                	c.lui	zero,0xffff8
    d3c6:	655f 646e 0000      	0x646e655f
    d3cc:	0000                	unimp
    d3ce:	0000                	unimp
    d3d0:	7228                	flw	fa0,96(a2)
    d3d2:	5f74                	lw	a3,124(a4)
    d3d4:	6275                	lui	tp,0x1d
    d3d6:	7361                	lui	t1,0xffff8
    d3d8:	5f65                	li	t5,-7
    d3da:	2974                	fld	fa3,208(a0)
    d3dc:	2828                	fld	fa0,80(s0)
    d3de:	7472                	flw	fs0,60(sp)
    d3e0:	755f 6e69 3874      	0x38746e69755f
    d3e6:	745f 2a20 6d29      	0x6d292a20745f
    d3ec:	6d65                	lui	s10,0x19
    d3ee:	2b20                	fld	fs0,80(a4)
    d3f0:	5320                	lw	s0,96(a4)
    d3f2:	5a49                	li	s4,-14
    d3f4:	4f45                	li	t5,17
    d3f6:	5f46                	lw	t5,112(sp)
    d3f8:	55525453          	0x55525453
    d3fc:	4d5f5443          	0x4d5f5443
    d400:	4d45                	li	s10,17
    d402:	2029                	jal	0xd40c
    d404:	2025                	jal	0xd42c
    d406:	5452                	lw	s0,52(sp)
    d408:	415f 494c 4e47      	0x4e47494c415f
    d40e:	535f 5a49 2045      	0x20455a49535f
    d414:	3d3d                	jal	0xd252
    d416:	3020                	fld	fs0,96(s0)
	...
    d420:	2828                	fld	fa0,80(s0)
    d422:	7228                	flw	fa0,96(a2)
    d424:	5f74                	lw	a3,124(a4)
    d426:	6275                	lui	tp,0x1d
    d428:	7361                	lui	t1,0xffff8
    d42a:	5f65                	li	t5,-7
    d42c:	2974                	fld	fa3,208(a0)
    d42e:	656d                	lui	a0,0x1b
    d430:	296d                	jal	0xd8ea
    d432:	2620                	fld	fs0,72(a2)
    d434:	2820                	fld	fs0,80(s0)
    d436:	5452                	lw	s0,52(sp)
    d438:	415f 494c 4e47      	0x4e47494c415f
    d43e:	535f 5a49 2045      	0x20455a49535f
    d444:	202d                	jal	0xd46e
    d446:	2931                	jal	0xd862
    d448:	2029                	jal	0xd452
    d44a:	3d3d                	jal	0xd288
    d44c:	3020                	fld	fs0,96(s0)
    d44e:	0000                	unimp
    d450:	2828                	fld	fa0,80(s0)
    d452:	7228                	flw	fa0,96(a2)
    d454:	5f74                	lw	a3,124(a4)
    d456:	6275                	lui	tp,0x1d
    d458:	7361                	lui	t1,0xffff8
    d45a:	5f65                	li	t5,-7
    d45c:	2974                	fld	fa3,208(a0)
    d45e:	6d72                	flw	fs10,28(sp)
    d460:	6d65                	lui	s10,0x19
    d462:	2029                	jal	0xd46c
    d464:	2026                	fld	ft0,72(sp)
    d466:	5228                	lw	a0,96(a2)
    d468:	5f54                	lw	a3,60(a4)
    d46a:	4c41                	li	s8,16
    d46c:	4749                	li	a4,18
    d46e:	5f4e                	lw	t5,240(sp)
    d470:	455a4953          	0x455a4953
    d474:	2d20                	fld	fs0,88(a0)
    d476:	3120                	fld	fs0,96(a0)
    d478:	2929                	jal	0xd892
    d47a:	3d20                	fld	fs0,120(a0)
    d47c:	203d                	jal	0xd4aa
    d47e:	0030                	addi	a2,sp,8
    d480:	7228                	flw	fa0,96(a2)
    d482:	5f74                	lw	a3,124(a4)
    d484:	6975                	lui	s2,0x1d
    d486:	746e                	flw	fs0,248(sp)
    d488:	5f38                	lw	a4,120(a4)
    d48a:	2074                	fld	fa3,192(s0)
    d48c:	292a                	fld	fs2,136(sp)
    d48e:	6d72                	flw	fs10,28(sp)
    d490:	6d65                	lui	s10,0x19
    d492:	3e20                	fld	fs0,120(a2)
    d494:	203d                	jal	0xd4c2
    d496:	7228                	flw	fa0,96(a2)
    d498:	5f74                	lw	a3,124(a4)
    d49a:	6975                	lui	s2,0x1d
    d49c:	746e                	flw	fs0,248(sp)
    d49e:	5f38                	lw	a4,120(a4)
    d4a0:	2074                	fld	fa3,192(s0)
    d4a2:	292a                	fld	fs2,136(sp)
    d4a4:	6568                	flw	fa0,76(a0)
    d4a6:	7061                	c.lui	zero,0xffff8
    d4a8:	705f 7274 2620      	0x26207274705f
    d4ae:	2026                	fld	ft0,72(sp)
    d4b0:	7228                	flw	fa0,96(a2)
    d4b2:	5f74                	lw	a3,124(a4)
    d4b4:	6975                	lui	s2,0x1d
    d4b6:	746e                	flw	fs0,248(sp)
    d4b8:	5f38                	lw	a4,120(a4)
    d4ba:	2074                	fld	fa3,192(s0)
    d4bc:	292a                	fld	fs2,136(sp)
    d4be:	6d72                	flw	fs10,28(sp)
    d4c0:	6d65                	lui	s10,0x19
    d4c2:	3c20                	fld	fs0,120(s0)
    d4c4:	2820                	fld	fs0,80(s0)
    d4c6:	7472                	flw	fs0,60(sp)
    d4c8:	755f 6e69 3874      	0x38746e69755f
    d4ce:	745f 2a20 6829      	0x68292a20745f
    d4d4:	6165                	addi	sp,sp,112
    d4d6:	5f70                	lw	a2,124(a4)
    d4d8:	6e65                	lui	t3,0x19
    d4da:	0064                	addi	s1,sp,12
    d4dc:	0000                	unimp
    d4de:	0000                	unimp
    d4e0:	6f74                	flw	fa3,92(a4)
    d4e2:	6620                	flw	fs0,72(a2)
    d4e4:	6572                	flw	fa0,28(sp)
    d4e6:	2065                	jal	0xd58e
    d4e8:	2061                	jal	0xd570
    d4ea:	6162                	flw	ft2,24(sp)
    d4ec:	2064                	fld	fs1,192(s0)
    d4ee:	6164                	flw	fs1,68(a0)
    d4f0:	6174                	flw	fa3,68(a0)
    d4f2:	6220                	flw	fs0,64(a2)
    d4f4:	6f6c                	flw	fa1,92(a4)
    d4f6:	0a3a6b63          	bltu	s4,gp,0xd5ac
    d4fa:	0000                	unimp
    d4fc:	0000                	unimp
    d4fe:	0000                	unimp
    d500:	656d                	lui	a0,0x1b
    d502:	3a6d                	jal	0xcebc
    d504:	3020                	fld	fs0,96(s0)
    d506:	2578                	fld	fa4,200(a0)
    d508:	3830                	fld	fa2,112(s0)
    d50a:	2c78                	fld	fa4,216(s0)
    d50c:	7520                	flw	fs0,104(a0)
    d50e:	20646573          	csrrsi	a0,0x206,8
    d512:	6c66                	flw	fs8,88(sp)
    d514:	6761                	lui	a4,0x18
    d516:	203a                	fld	ft0,392(sp)
    d518:	6425                	lui	s0,0x9
    d51a:	202c                	fld	fa1,64(s0)
    d51c:	616d                	addi	sp,sp,240
    d51e:	20636967          	0x20636967
    d522:	65646f63          	bltu	s0,s6,0xdb80
    d526:	203a                	fld	ft0,392(sp)
    d528:	7830                	flw	fa2,112(s0)
    d52a:	3025                	jal	0xcd52
    d52c:	7834                	flw	fa3,112(s0)
    d52e:	000a                	c.slli	zero,0x2
    d530:	656d                	lui	a0,0x1b
    d532:	2d6d                	jal	0xdbec
    d534:	753e                	flw	fa0,236(sp)
    d536:	00646573          	csrrsi	a0,0x6,8
    d53a:	0000                	unimp
    d53c:	0000                	unimp
    d53e:	0000                	unimp
    d540:	656d                	lui	a0,0x1b
    d542:	2d6d                	jal	0xdbfc
    d544:	6d3e                	flw	fs10,204(sp)
    d546:	6761                	lui	a4,0x18
    d548:	6369                	lui	t1,0x1a
    d54a:	3d20                	fld	fs0,120(a0)
    d54c:	203d                	jal	0xd57a
    d54e:	4548                	lw	a0,12(a0)
    d550:	5041                	c.li	zero,-16
    d552:	4d5f 4741 4349      	0x434947414d5f
	...
    d560:	6c70                	flw	fa2,92(s0)
    d562:	6775                	lui	a4,0x1d
    d564:	685f 6c6f 7365      	0x73656c6f685f
    d56a:	0000                	unimp
    d56c:	0000                	unimp
    d56e:	0000                	unimp
    d570:	7472                	flw	fs0,60(sp)
    d572:	735f 7379 6574      	0x65747379735f
    d578:	5f6d                	li	t5,-5
    d57a:	6568                	flw	fa0,76(a0)
    d57c:	7061                	c.lui	zero,0xffff8
    d57e:	695f 696e 0074      	0x74696e695f
    d584:	0000                	unimp
    d586:	0000                	unimp
    d588:	7472                	flw	fs0,60(sp)
    d58a:	6d5f 6c61 6f6c      	0x6f6c6c616d5f
    d590:	00000063          	beqz	zero,0xd590
    d594:	0000                	unimp
    d596:	0000                	unimp
    d598:	7472                	flw	fs0,60(sp)
    d59a:	725f 6165 6c6c      	0x6c6c6165725f
    d5a0:	0000636f          	jal	t1,0x135a0
    d5a4:	0000                	unimp
    d5a6:	0000                	unimp
    d5a8:	7564                	flw	fs1,108(a0)
    d5aa:	706d                	c.lui	zero,0xffffb
    d5ac:	6d20                	flw	fs0,88(a0)
    d5ae:	6d65                	lui	s10,0x19
    d5b0:	2079726f          	jal	tp,0xa4fb6
    d5b4:	7274                	flw	fa3,100(a2)
    d5b6:	6361                	lui	t1,0x18
    d5b8:	2065                	jal	0xd660
    d5ba:	6e69                	lui	t3,0x1a
    d5bc:	6f66                	flw	ft10,88(sp)
    d5be:	6d72                	flw	fs10,28(sp)
    d5c0:	7461                	lui	s0,0xffff8
    d5c2:	6f69                	lui	t5,0x1a
    d5c4:	006e                	c.slli	zero,0x1b
    d5c6:	0000                	unimp
    d5c8:	5f5f 6d63 5f64      	0x5f646d635f5f
    d5ce:	656d                	lui	a0,0x1b
    d5d0:	746d                	lui	s0,0xffffb
    d5d2:	6172                	flw	ft2,28(sp)
    d5d4:	00006563          	bltu	zero,zero,0xd5de
    d5d8:	63656863          	bltu	a0,s6,0xdc08
    d5dc:	656d206b          	0x656d206b
    d5e0:	6f6d                	lui	t5,0x1b
    d5e2:	7972                	flw	fs2,60(sp)
    d5e4:	6420                	flw	fs0,72(s0)
    d5e6:	7461                	lui	s0,0xffff8
    d5e8:	0061                	c.nop	24
    d5ea:	0000                	unimp
    d5ec:	0000                	unimp
    d5ee:	0000                	unimp
    d5f0:	5f5f 6d63 5f64      	0x5f646d635f5f
    d5f6:	656d                	lui	a0,0x1b
    d5f8:	636d                	lui	t1,0x1b
    d5fa:	6568                	flw	fa0,76(a0)
    d5fc:	00006b63          	bltu	zero,zero,0xd612
    d600:	696c                	flw	fa1,84(a0)
    d602:	6d207473          	csrrci	s0,0x6d2,0
    d606:	6d65                	lui	s10,0x19
    d608:	2079726f          	jal	tp,0xa500e
    d60c:	7375                	lui	t1,0xffffd
    d60e:	6761                	lui	a4,0x18
    d610:	2065                	jal	0xd6b8
    d612:	6e69                	lui	t3,0x1a
    d614:	6f66                	flw	ft10,88(sp)
    d616:	6d72                	flw	fs10,28(sp)
    d618:	7461                	lui	s0,0xffff8
    d61a:	6f69                	lui	t5,0x1a
    d61c:	006e                	c.slli	zero,0x1b
    d61e:	0000                	unimp
    d620:	696c                	flw	fa1,84(a0)
    d622:	6d5f7473          	csrrci	s0,0x6d5,30
    d626:	6d65                	lui	s10,0x19
	...
    d630:	6974                	flw	fa3,84(a0)
    d632:	656d                	lui	a0,0x1b
    d634:	2072                	fld	ft0,280(sp)
    d636:	3d21                	jal	0xd44e
    d638:	5220                	lw	s0,96(a2)
    d63a:	5f54                	lw	a3,60(a4)
    d63c:	554e                	lw	a0,240(sp)
    d63e:	4c4c                	lw	a1,28(s0)
	...
    d648:	7472                	flw	fs0,60(sp)
    d64a:	6f5f 6a62 6365      	0x63656a626f5f
    d650:	5f74                	lw	a3,124(a4)
    d652:	5f746567          	0x5f746567
    d656:	7974                	flw	fa3,116(a0)
    d658:	6570                	flw	fa2,76(a0)
    d65a:	2628                	fld	fa0,72(a2)
    d65c:	6974                	flw	fa3,84(a0)
    d65e:	656d                	lui	a0,0x1b
    d660:	2d72                	fld	fs10,280(sp)
    d662:	703e                	flw	ft0,236(sp)
    d664:	7261                	lui	tp,0xffff8
    d666:	6e65                	lui	t3,0x19
    d668:	2974                	fld	fa3,208(a0)
    d66a:	3d20                	fld	fs0,120(a0)
    d66c:	203d                	jal	0xd69a
    d66e:	5452                	lw	s0,52(sp)
    d670:	4f5f 6a62 6365      	0x63656a624f5f
    d676:	5f74                	lw	a3,124(a4)
    d678:	73616c43          	fmadd.d	fs8,ft2,fs6,fa4,unknown
    d67c:	69545f73          	csrrwi	t5,0x695,8
    d680:	656d                	lui	a0,0x1b
    d682:	0072                	c.slli	zero,0x1c
    d684:	0000                	unimp
    d686:	0000                	unimp
    d688:	7472                	flw	fs0,60(sp)
    d68a:	6f5f 6a62 6365      	0x63656a626f5f
    d690:	5f74                	lw	a3,124(a4)
    d692:	7369                	lui	t1,0xffffa
    d694:	735f 7379 6574      	0x65747379735f
    d69a:	6f6d                	lui	t5,0x1b
    d69c:	6a62                	flw	fs4,24(sp)
    d69e:	6365                	lui	t1,0x19
    d6a0:	2874                	fld	fa3,208(s0)
    d6a2:	7426                	flw	fs0,104(sp)
    d6a4:	6d69                	lui	s10,0x1a
    d6a6:	7265                	lui	tp,0xffff9
    d6a8:	3e2d                	jal	0xd1e2
    d6aa:	6170                	flw	fa2,68(a0)
    d6ac:	6572                	flw	fa0,28(sp)
    d6ae:	746e                	flw	fs0,248(sp)
    d6b0:	0029                	c.nop	10
    d6b2:	0000                	unimp
    d6b4:	0000                	unimp
    d6b6:	0000                	unimp
    d6b8:	6974                	flw	fa3,84(a0)
    d6ba:	656d                	lui	a0,0x1b
    d6bc:	2d72                	fld	fs10,280(sp)
    d6be:	693e                	flw	fs2,204(sp)
    d6c0:	696e                	flw	fs2,216(sp)
    d6c2:	5f74                	lw	a3,124(a4)
    d6c4:	6974                	flw	fa3,84(a0)
    d6c6:	3c206b63          	bltu	zero,sp,0xda9c
    d6ca:	5220                	lw	s0,96(a2)
    d6cc:	5f54                	lw	a3,60(a4)
    d6ce:	4954                	lw	a3,20(a0)
    d6d0:	4d5f4b43          	0x4d5f4b43
    d6d4:	5841                	li	a6,-16
    d6d6:	2f20                	fld	fs0,88(a4)
    d6d8:	3220                	fld	fs0,96(a2)
    d6da:	0000                	unimp
    d6dc:	45fc                	lw	a5,76(a1)
    d6de:	ffff                	0xffff
    d6e0:	45f0                	lw	a2,76(a1)
    d6e2:	ffff                	0xffff
    d6e4:	4624                	lw	s1,72(a2)
    d6e6:	ffff                	0xffff
    d6e8:	4634                	lw	a3,72(a2)
    d6ea:	ffff                	0xffff
    d6ec:	4640                	lw	s0,12(a2)
    d6ee:	ffff                	0xffff
    d6f0:	6974                	flw	fa3,84(a0)
    d6f2:	656d                	lui	a0,0x1b
    d6f4:	0072                	c.slli	zero,0x1c
    d6f6:	0000                	unimp
    d6f8:	7472                	flw	fs0,60(sp)
    d6fa:	745f 6d69 7265      	0x72656d69745f
    d700:	695f 696e 0074      	0x74696e695f
    d706:	0000                	unimp
    d708:	7472                	flw	fs0,60(sp)
    d70a:	745f 6d69 7265      	0x72656d69745f
    d710:	645f 7465 6361      	0x63617465645f
    d716:	0068                	addi	a0,sp,12
    d718:	7472                	flw	fs0,60(sp)
    d71a:	745f 6d69 7265      	0x72656d69745f
    d720:	735f 6174 7472      	0x74726174735f
    d726:	0000                	unimp
    d728:	7472                	flw	fs0,60(sp)
    d72a:	745f 6d69 7265      	0x72656d69745f
    d730:	735f 6f74 0070      	0x706f74735f
    d736:	0000                	unimp
    d738:	7472                	flw	fs0,60(sp)
    d73a:	745f 6d69 7265      	0x72656d69745f
    d740:	635f 6e6f 7274      	0x72746e6f635f
    d746:	00006c6f          	jal	s8,0x13746
    d74a:	0000                	unimp
    d74c:	0000                	unimp
    d74e:	0000                	unimp
    d750:	4e28                	lw	a0,88(a2)
    d752:	4c55                	li	s8,21
    d754:	294c                	fld	fa1,144(a0)
    d756:	0000                	unimp
    d758:	5340                	lw	s0,36(a4)
    d75a:	ffff                	0xffff
    d75c:	5584                	lw	s1,40(a1)
    d75e:	ffff                	0xffff
    d760:	52c0                	lw	s0,36(a3)
    d762:	ffff                	0xffff
    d764:	52c0                	lw	s0,36(a3)
    d766:	ffff                	0xffff
    d768:	52c0                	lw	s0,36(a3)
    d76a:	ffff                	0xffff
    d76c:	52c0                	lw	s0,36(a3)
    d76e:	ffff                	0xffff
    d770:	5584                	lw	s1,40(a1)
    d772:	ffff                	0xffff
    d774:	52c0                	lw	s0,36(a3)
    d776:	ffff                	0xffff
    d778:	52c0                	lw	s0,36(a3)
    d77a:	ffff                	0xffff
    d77c:	52c0                	lw	s0,36(a3)
    d77e:	ffff                	0xffff
    d780:	52c0                	lw	s0,36(a3)
    d782:	ffff                	0xffff
    d784:	52c0                	lw	s0,36(a3)
    d786:	ffff                	0xffff
    d788:	5598                	lw	a4,40(a1)
    d78a:	ffff                	0xffff
    d78c:	5508                	lw	a0,40(a0)
    d78e:	ffff                	0xffff
    d790:	52c0                	lw	s0,36(a3)
    d792:	ffff                	0xffff
    d794:	52c0                	lw	s0,36(a3)
    d796:	ffff                	0xffff
    d798:	53f0                	lw	a2,100(a5)
    d79a:	ffff                	0xffff
    d79c:	52c0                	lw	s0,36(a3)
    d79e:	ffff                	0xffff
    d7a0:	5588                	lw	a0,40(a1)
    d7a2:	ffff                	0xffff
    d7a4:	52c0                	lw	s0,36(a3)
    d7a6:	ffff                	0xffff
    d7a8:	52c0                	lw	s0,36(a3)
    d7aa:	ffff                	0xffff
    d7ac:	5548                	lw	a0,44(a0)
    d7ae:	ffff                	0xffff
    d7b0:	200a                	fld	ft0,128(sp)
    d7b2:	205c                	fld	fa5,128(s0)
    d7b4:	207c                	fld	fa5,192(s0)
    d7b6:	00000a2f          	0xa2f
    d7ba:	0000                	unimp
    d7bc:	0000                	unimp
    d7be:	0000                	unimp
    d7c0:	202d                	jal	0xd7ea
    d7c2:	5452                	lw	s0,52(sp)
    d7c4:	2d20                	fld	fs0,88(a0)
    d7c6:	2020                	fld	fs0,64(s0)
    d7c8:	2020                	fld	fs0,64(s0)
    d7ca:	5420                	lw	s0,104(s0)
    d7cc:	7268                	flw	fa0,100(a2)
    d7ce:	6165                	addi	sp,sp,112
    d7d0:	2064                	fld	fs1,192(s0)
    d7d2:	7265704f          	fnmadd.d	ft0,fa0,ft6,fa4
    d7d6:	7461                	lui	s0,0xffff8
    d7d8:	6e69                	lui	t3,0x1a
    d7da:	79532067          	0x79532067
    d7de:	6d657473          	csrrci	s0,0x6d6,10
    d7e2:	000a                	c.slli	zero,0x2
    d7e4:	0000                	unimp
    d7e6:	0000                	unimp
    d7e8:	20706553          	0x20706553
    d7ec:	3631                	jal	0xd2f8
    d7ee:	3220                	fld	fs0,96(a2)
    d7f0:	3230                	fld	fa2,96(a2)
    d7f2:	0032                	c.slli	zero,0xc
    d7f4:	0000                	unimp
    d7f6:	0000                	unimp
    d7f8:	2f20                	fld	fs0,88(a4)
    d7fa:	7c20                	flw	fs0,120(s0)
    d7fc:	5c20                	lw	s0,120(s0)
    d7fe:	2020                	fld	fs0,64(s0)
    d800:	2020                	fld	fs0,64(s0)
    d802:	2520                	fld	fs0,72(a0)
    d804:	2e64                	fld	fs1,216(a2)
    d806:	6425                	lui	s0,0x9
    d808:	252e                	fld	fa0,200(sp)
    d80a:	2064                	fld	fs1,192(s0)
    d80c:	7562                	flw	fa0,56(sp)
    d80e:	6c69                	lui	s8,0x1a
    d810:	2064                	fld	fs1,192(s0)
    d812:	7325                	lui	t1,0xfffe9
    d814:	000a                	c.slli	zero,0x2
    d816:	0000                	unimp
    d818:	3220                	fld	fs0,96(a2)
    d81a:	3030                	fld	fa2,96(s0)
    d81c:	2036                	fld	ft0,328(sp)
    d81e:	202d                	jal	0xd848
    d820:	3032                	fld	ft0,296(sp)
    d822:	3132                	fld	ft2,296(sp)
    d824:	4320                	lw	s0,64(a4)
    d826:	7279706f          	j	0xa574c
    d82a:	6769                	lui	a4,0x1a
    d82c:	7468                	flw	fa0,108(s0)
    d82e:	6220                	flw	fs0,64(a2)
    d830:	2079                	jal	0xd8be
    d832:	7472                	flw	fs0,60(sp)
    d834:	742d                	lui	s0,0xfffeb
    d836:	7268                	flw	fa0,100(a2)
    d838:	6165                	addi	sp,sp,112
    d83a:	2064                	fld	fs1,192(s0)
    d83c:	6574                	flw	fa3,76(a0)
    d83e:	6d61                	lui	s10,0x18
    d840:	000a                	c.slli	zero,0x2
    d842:	0000                	unimp
    d844:	0000                	unimp
    d846:	0000                	unimp
    d848:	2528                	fld	fa0,72(a0)
    d84a:	61202973          	csrr	s2,0x612
    d84e:	72657373          	csrrci	t1,0x726,10
    d852:	6974                	flw	fa3,84(a0)
    d854:	66206e6f          	jal	t3,0x13eb6
    d858:	6961                	lui	s2,0x18
    d85a:	656c                	flw	fa1,76(a0)
    d85c:	2064                	fld	fs1,192(s0)
    d85e:	7461                	lui	s0,0xffff8
    d860:	6620                	flw	fs0,72(a2)
    d862:	6e75                	lui	t3,0x1d
    d864:	6f697463          	bgeu	s2,s6,0xdf4c
    d868:	3a6e                	fld	fs4,248(sp)
    d86a:	7325                	lui	t1,0xfffe9
    d86c:	202c                	fld	fa1,64(s0)
    d86e:	696c                	flw	fa1,84(a0)
    d870:	656e                	flw	fa0,216(sp)
    d872:	6e20                	flw	fs0,88(a2)
    d874:	6d75                	lui	s10,0x1d
    d876:	6562                	flw	fa0,24(sp)
    d878:	3a72                	fld	fs4,312(sp)
    d87a:	6425                	lui	s0,0x9
    d87c:	0a20                	addi	s0,sp,280
    d87e:	0000                	unimp
    d880:	0000                	unimp
    d882:	0001                	nop
    d884:	0002                	c.slli64	zero
    d886:	0001                	nop
    d888:	00010003          	lb	zero,0(sp)
    d88c:	0002                	c.slli64	zero
    d88e:	0001                	nop
    d890:	0004                	0x4
    d892:	0001                	nop
    d894:	0002                	c.slli64	zero
    d896:	0001                	nop
    d898:	00010003          	lb	zero,0(sp)
    d89c:	0002                	c.slli64	zero
    d89e:	0001                	nop
    d8a0:	0005                	c.nop	1
    d8a2:	0001                	nop
    d8a4:	0002                	c.slli64	zero
    d8a6:	0001                	nop
    d8a8:	00010003          	lb	zero,0(sp)
    d8ac:	0002                	c.slli64	zero
    d8ae:	0001                	nop
    d8b0:	0004                	0x4
    d8b2:	0001                	nop
    d8b4:	0002                	c.slli64	zero
    d8b6:	0001                	nop
    d8b8:	00010003          	lb	zero,0(sp)
    d8bc:	0002                	c.slli64	zero
    d8be:	0001                	nop
    d8c0:	0006                	c.slli	zero,0x1
    d8c2:	0001                	nop
    d8c4:	0002                	c.slli64	zero
    d8c6:	0001                	nop
    d8c8:	00010003          	lb	zero,0(sp)
    d8cc:	0002                	c.slli64	zero
    d8ce:	0001                	nop
    d8d0:	0004                	0x4
    d8d2:	0001                	nop
    d8d4:	0002                	c.slli64	zero
    d8d6:	0001                	nop
    d8d8:	00010003          	lb	zero,0(sp)
    d8dc:	0002                	c.slli64	zero
    d8de:	0001                	nop
    d8e0:	0005                	c.nop	1
    d8e2:	0001                	nop
    d8e4:	0002                	c.slli64	zero
    d8e6:	0001                	nop
    d8e8:	00010003          	lb	zero,0(sp)
    d8ec:	0002                	c.slli64	zero
    d8ee:	0001                	nop
    d8f0:	0004                	0x4
    d8f2:	0001                	nop
    d8f4:	0002                	c.slli64	zero
    d8f6:	0001                	nop
    d8f8:	00010003          	lb	zero,0(sp)
    d8fc:	0002                	c.slli64	zero
    d8fe:	0001                	nop
    d900:	00010007          	0x10007
    d904:	0002                	c.slli64	zero
    d906:	0001                	nop
    d908:	00010003          	lb	zero,0(sp)
    d90c:	0002                	c.slli64	zero
    d90e:	0001                	nop
    d910:	0004                	0x4
    d912:	0001                	nop
    d914:	0002                	c.slli64	zero
    d916:	0001                	nop
    d918:	00010003          	lb	zero,0(sp)
    d91c:	0002                	c.slli64	zero
    d91e:	0001                	nop
    d920:	0005                	c.nop	1
    d922:	0001                	nop
    d924:	0002                	c.slli64	zero
    d926:	0001                	nop
    d928:	00010003          	lb	zero,0(sp)
    d92c:	0002                	c.slli64	zero
    d92e:	0001                	nop
    d930:	0004                	0x4
    d932:	0001                	nop
    d934:	0002                	c.slli64	zero
    d936:	0001                	nop
    d938:	00010003          	lb	zero,0(sp)
    d93c:	0002                	c.slli64	zero
    d93e:	0001                	nop
    d940:	0006                	c.slli	zero,0x1
    d942:	0001                	nop
    d944:	0002                	c.slli64	zero
    d946:	0001                	nop
    d948:	00010003          	lb	zero,0(sp)
    d94c:	0002                	c.slli64	zero
    d94e:	0001                	nop
    d950:	0004                	0x4
    d952:	0001                	nop
    d954:	0002                	c.slli64	zero
    d956:	0001                	nop
    d958:	00010003          	lb	zero,0(sp)
    d95c:	0002                	c.slli64	zero
    d95e:	0001                	nop
    d960:	0005                	c.nop	1
    d962:	0001                	nop
    d964:	0002                	c.slli64	zero
    d966:	0001                	nop
    d968:	00010003          	lb	zero,0(sp)
    d96c:	0002                	c.slli64	zero
    d96e:	0001                	nop
    d970:	0004                	0x4
    d972:	0001                	nop
    d974:	0002                	c.slli64	zero
    d976:	0001                	nop
    d978:	00010003          	lb	zero,0(sp)
    d97c:	0002                	c.slli64	zero
    d97e:	0001                	nop
    d980:	3130                	fld	fa2,96(a0)
    d982:	3332                	fld	ft6,296(sp)
    d984:	3534                	fld	fa3,104(a0)
    d986:	3736                	fld	fa4,360(sp)
    d988:	3938                	fld	fa4,112(a0)
    d98a:	4241                	li	tp,16
    d98c:	46454443          	fmadd.q	fs0,fa0,ft4,fs0,rmm
	...
    d998:	3130                	fld	fa2,96(a0)
    d99a:	3332                	fld	ft6,296(sp)
    d99c:	3534                	fld	fa3,104(a0)
    d99e:	3736                	fld	fa4,360(sp)
    d9a0:	3938                	fld	fa4,112(a0)
    d9a2:	6261                	lui	tp,0x18
    d9a4:	66656463          	bltu	a0,t1,0xe00c
	...
    d9b0:	7270                	flw	fa2,100(a2)
    d9b2:	6f69                	lui	t5,0x1a
    d9b4:	6972                	flw	fs2,28(sp)
    d9b6:	7974                	flw	fa3,116(a0)
    d9b8:	3c20                	fld	fs0,120(s0)
    d9ba:	5220                	lw	s0,96(a2)
    d9bc:	5f54                	lw	a3,60(a4)
    d9be:	4854                	lw	a3,20(s0)
    d9c0:	4552                	lw	a0,20(sp)
    d9c2:	4441                	li	s0,16
    d9c4:	505f 4952 524f      	0x524f4952505f
    d9ca:	5449                	li	s0,-14
    d9cc:	5f59                	li	t5,-10
    d9ce:	414d                	li	sp,19
    d9d0:	0058                	addi	a4,sp,4
    d9d2:	0000                	unimp
    d9d4:	0000                	unimp
    d9d6:	0000                	unimp
    d9d8:	7428                	flw	fa0,104(s0)
    d9da:	7268                	flw	fa0,100(a2)
    d9dc:	6165                	addi	sp,sp,112
    d9de:	2d64                	fld	fs1,216(a0)
    d9e0:	733e                	flw	ft6,236(sp)
    d9e2:	6174                	flw	fa3,68(a0)
    d9e4:	2074                	fld	fa3,192(s0)
    d9e6:	2026                	fld	ft0,72(sp)
    d9e8:	5452                	lw	s0,52(sp)
    d9ea:	545f 5248 4145      	0x41455248545f
    d9f0:	5f44                	lw	s1,60(a4)
    d9f2:	54415453          	0x54415453
    d9f6:	4d5f 5341 294b      	0x294b53414d5f
    d9fc:	3d20                	fld	fs0,120(a0)
    d9fe:	203d                	jal	0xda2c
    da00:	5452                	lw	s0,52(sp)
    da02:	545f 5248 4145      	0x41455248545f
    da08:	5f44                	lw	s1,60(a4)
    da0a:	50535553          	0x50535553
    da0e:	4e45                	li	t3,17
    da10:	0044                	addi	s1,sp,4
    da12:	0000                	unimp
    da14:	0000                	unimp
    da16:	0000                	unimp
    da18:	7472                	flw	fs0,60(sp)
    da1a:	6f5f 6a62 6365      	0x63656a626f5f
    da20:	5f74                	lw	a3,124(a4)
    da22:	5f746567          	0x5f746567
    da26:	7974                	flw	fa3,116(a0)
    da28:	6570                	flw	fa2,76(a0)
    da2a:	2828                	fld	fa0,80(s0)
    da2c:	7472                	flw	fs0,60(sp)
    da2e:	6f5f 6a62 6365      	0x63656a626f5f
    da34:	5f74                	lw	a3,124(a4)
    da36:	2974                	fld	fa3,208(a0)
    da38:	6874                	flw	fa3,84(s0)
    da3a:	6572                	flw	fa0,28(sp)
    da3c:	6461                	lui	s0,0x18
    da3e:	2029                	jal	0xda48
    da40:	3d3d                	jal	0xd87e
    da42:	5220                	lw	s0,96(a2)
    da44:	5f54                	lw	a3,60(a4)
    da46:	656a624f          	0x656a624f
    da4a:	435f7463          	bgeu	t5,s5,0xde72
    da4e:	616c                	flw	fa1,68(a0)
    da50:	545f7373          	csrrci	t1,0x545,30
    da54:	7268                	flw	fa0,100(a2)
    da56:	6165                	addi	sp,sp,112
    da58:	0064                	addi	s1,sp,12
    da5a:	0000                	unimp
    da5c:	0000                	unimp
    da5e:	0000                	unimp
    da60:	63617473          	csrrci	s0,0x636,2
    da64:	74735f6b          	0x74735f6b
    da68:	7261                	lui	tp,0xffff8
    da6a:	2074                	fld	fa3,192(s0)
    da6c:	3d21                	jal	0xd884
    da6e:	5220                	lw	s0,96(a2)
    da70:	5f54                	lw	a3,60(a4)
    da72:	554e                	lw	a0,240(sp)
    da74:	4c4c                	lw	a1,28(s0)
    da76:	0000                	unimp
    da78:	7472                	flw	fs0,60(sp)
    da7a:	6f5f 6a62 6365      	0x63656a626f5f
    da80:	5f74                	lw	a3,124(a4)
    da82:	7369                	lui	t1,0xffffa
    da84:	735f 7379 6574      	0x65747379735f
    da8a:	6f6d                	lui	t5,0x1b
    da8c:	6a62                	flw	fs4,24(sp)
    da8e:	6365                	lui	t1,0x19
    da90:	2874                	fld	fa3,208(s0)
    da92:	7228                	flw	fa0,96(a2)
    da94:	5f74                	lw	a3,124(a4)
    da96:	656a626f          	jal	tp,0xb40ec
    da9a:	745f7463          	bgeu	t5,t0,0xe1e2
    da9e:	7429                	lui	s0,0xfffea
    daa0:	7268                	flw	fa0,100(a2)
    daa2:	6165                	addi	sp,sp,112
    daa4:	2964                	fld	fs1,208(a0)
    daa6:	0000                	unimp
    daa8:	7472                	flw	fs0,60(sp)
    daaa:	6f5f 6a62 6365      	0x63656a626f5f
    dab0:	5f74                	lw	a3,124(a4)
    dab2:	7369                	lui	t1,0xffffa
    dab4:	735f 7379 6574      	0x65747379735f
    daba:	6f6d                	lui	t5,0x1b
    dabc:	6a62                	flw	fs4,24(sp)
    dabe:	6365                	lui	t1,0x19
    dac0:	2874                	fld	fa3,208(s0)
    dac2:	7228                	flw	fa0,96(a2)
    dac4:	5f74                	lw	a3,124(a4)
    dac6:	656a626f          	jal	tp,0xb411c
    daca:	745f7463          	bgeu	t5,t0,0xe212
    dace:	7429                	lui	s0,0xfffea
    dad0:	7268                	flw	fa0,100(a2)
    dad2:	6165                	addi	sp,sp,112
    dad4:	2964                	fld	fs1,208(a0)
    dad6:	3d20                	fld	fs0,120(a0)
    dad8:	203d                	jal	0xdb06
    dada:	5452                	lw	s0,52(sp)
    dadc:	465f 4c41 4553      	0x45534c41465f
    dae2:	0000                	unimp
    dae4:	0000                	unimp
    dae6:	0000                	unimp
    dae8:	6874                	flw	fa3,84(s0)
    daea:	6572                	flw	fa0,28(sp)
    daec:	6461                	lui	s0,0x18
    daee:	3d20                	fld	fs0,120(a0)
    daf0:	203d                	jal	0xdb1e
    daf2:	7472                	flw	fs0,60(sp)
    daf4:	745f 7268 6165      	0x61657268745f
    dafa:	5f64                	lw	s1,124(a4)
    dafc:	666c6573          	csrrsi	a0,0x666,24
    db00:	2928                	fld	fa0,80(a0)
    db02:	0000                	unimp
    db04:	0000                	unimp
    db06:	0000                	unimp
    db08:	7428                	flw	fa0,104(s0)
    db0a:	7268                	flw	fa0,100(a2)
    db0c:	6165                	addi	sp,sp,112
    db0e:	2d64                	fld	fs1,216(a0)
    db10:	733e                	flw	ft6,236(sp)
    db12:	6174                	flw	fa3,68(a0)
    db14:	2074                	fld	fa3,192(s0)
    db16:	2026                	fld	ft0,72(sp)
    db18:	5452                	lw	s0,52(sp)
    db1a:	545f 5248 4145      	0x41455248545f
    db20:	5f44                	lw	s1,60(a4)
    db22:	54415453          	0x54415453
    db26:	4d5f 5341 294b      	0x294b53414d5f
    db2c:	3d20                	fld	fs0,120(a0)
    db2e:	203d                	jal	0xdb5c
    db30:	5452                	lw	s0,52(sp)
    db32:	545f 5248 4145      	0x41455248545f
    db38:	5f44                	lw	s1,60(a4)
    db3a:	4e49                	li	t3,18
    db3c:	5449                	li	s0,-14
    db3e:	0000                	unimp
    db40:	725f 5f74 6874      	0x68745f74725f
    db46:	6572                	flw	fa0,28(sp)
    db48:	6461                	lui	s0,0x18
    db4a:	695f 696e 0074      	0x74696e695f
    db50:	7472                	flw	fs0,60(sp)
    db52:	745f 7268 6165      	0x61657268745f
    db58:	5f64                	lw	s1,124(a4)
    db5a:	6e69                	lui	t3,0x1a
    db5c:	7469                	lui	s0,0xffffa
    db5e:	0000                	unimp
    db60:	7472                	flw	fs0,60(sp)
    db62:	745f 7268 6165      	0x61657268745f
    db68:	5f64                	lw	s1,124(a4)
    db6a:	72617473          	csrrci	s0,0x726,2
    db6e:	7574                	flw	fa3,108(a0)
    db70:	0070                	addi	a2,sp,12
    db72:	0000                	unimp
    db74:	0000                	unimp
    db76:	0000                	unimp
    db78:	7472                	flw	fs0,60(sp)
    db7a:	745f 7268 6165      	0x61657268745f
    db80:	5f64                	lw	s1,124(a4)
    db82:	6564                	flw	fs1,76(a0)
    db84:	6174                	flw	fa3,68(a0)
    db86:	00006863          	bltu	zero,zero,0xdb96
    db8a:	0000                	unimp
    db8c:	0000                	unimp
    db8e:	0000                	unimp
    db90:	7472                	flw	fs0,60(sp)
    db92:	745f 7268 6165      	0x61657268745f
    db98:	5f64                	lw	s1,124(a4)
    db9a:	6564                	flw	fs1,76(a0)
    db9c:	656c                	flw	fa1,76(a0)
    db9e:	6574                	flw	fa3,76(a0)
	...
    dba8:	7472                	flw	fs0,60(sp)
    dbaa:	745f 7268 6165      	0x61657268745f
    dbb0:	5f64                	lw	s1,124(a4)
    dbb2:	65656c73          	csrrsi	s8,0x656,10
    dbb6:	0070                	addi	a2,sp,12
    dbb8:	7472                	flw	fs0,60(sp)
    dbba:	745f 7268 6165      	0x61657268745f
    dbc0:	5f64                	lw	s1,124(a4)
    dbc2:	746e6f63          	bltu	t3,t1,0xe320
    dbc6:	6f72                	flw	ft10,28(sp)
    dbc8:	006c                	addi	a1,sp,12
    dbca:	0000                	unimp
    dbcc:	0000                	unimp
    dbce:	0000                	unimp
    dbd0:	7472                	flw	fs0,60(sp)
    dbd2:	745f 7268 6165      	0x61657268745f
    dbd8:	5f64                	lw	s1,124(a4)
    dbda:	70737573          	csrrci	a0,0x707,6
    dbde:	6e65                	lui	t3,0x19
    dbe0:	0064                	addi	s1,sp,12
    dbe2:	0000                	unimp
    dbe4:	0000                	unimp
    dbe6:	0000                	unimp
    dbe8:	7472                	flw	fs0,60(sp)
    dbea:	745f 7268 6165      	0x61657268745f
    dbf0:	5f64                	lw	s1,124(a4)
    dbf2:	6572                	flw	fa0,28(sp)
    dbf4:	656d7573          	csrrci	a0,0x656,26
	...
    dc00:	7472                	flw	fs0,60(sp)
    dc02:	745f 7268 6165      	0x61657268745f
    dc08:	5f64                	lw	s1,124(a4)
    dc0a:	6974                	flw	fa3,84(a0)
    dc0c:	656d                	lui	a0,0x1b
    dc0e:	0074756f          	jal	a0,0x55414
    dc12:	0000                	unimp
    dc14:	0000                	unimp
    dc16:	0000                	unimp
    dc18:	6974                	flw	fa3,84(a0)
    dc1a:	6c64                	flw	fs1,92(s0)
    dc1c:	2565                	jal	0xe2c4
    dc1e:	0064                	addi	s1,sp,12
    dc20:	7472                	flw	fs0,60(sp)
    dc22:	645f 6665 6e75      	0x6e756665645f
    dc28:	655f7463          	bgeu	t5,s5,0xe270
    dc2c:	6578                	flw	fa4,76(a0)
    dc2e:	65747563          	bgeu	s0,s7,0xe278
    dc32:	0000                	unimp
    dc34:	0000                	unimp
    dc36:	0000                	unimp
    dc38:	6e69                	lui	t3,0x1a
    dc3a:	6f66                	flw	ft10,88(sp)
    dc3c:	6d72                	flw	fs10,28(sp)
    dc3e:	7461                	lui	s0,0xffff8
    dc40:	6f69                	lui	t5,0x1a
    dc42:	206e                	fld	ft0,216(sp)
    dc44:	3d21                	jal	0xda5c
    dc46:	5220                	lw	s0,96(a2)
    dc48:	5f54                	lw	a3,60(a4)
    dc4a:	554e                	lw	a0,240(sp)
    dc4c:	4c4c                	lw	a1,28(s0)
    dc4e:	0000                	unimp
    dc50:	206a626f          	jal	tp,0xb3e56
    dc54:	3d21                	jal	0xda6c
    dc56:	6f20                	flw	fs0,88(a4)
    dc58:	6a62                	flw	fs4,24(sp)
    dc5a:	6365                	lui	t1,0x19
    dc5c:	0074                	addi	a3,sp,12
    dc5e:	0000                	unimp
    dc60:	656a626f          	jal	tp,0xb42b6
    dc64:	21207463          	bgeu	zero,s2,0xde6c
    dc68:	203d                	jal	0xdc96
    dc6a:	5452                	lw	s0,52(sp)
    dc6c:	4e5f 4c55 004c      	0x4c4c554e5f
    dc72:	0000                	unimp
    dc74:	0000                	unimp
    dc76:	0000                	unimp
    dc78:	2821                	jal	0xdc90
    dc7a:	656a626f          	jal	tp,0xb42d0
    dc7e:	3e2d7463          	bgeu	s10,sp,0xe066
    dc82:	7974                	flw	fa3,116(a0)
    dc84:	6570                	flw	fa2,76(a0)
    dc86:	2620                	fld	fs0,72(a2)
    dc88:	5220                	lw	s0,96(a2)
    dc8a:	5f54                	lw	a3,60(a4)
    dc8c:	656a624f          	0x656a624f
    dc90:	435f7463          	bgeu	t5,s5,0xe0b8
    dc94:	616c                	flw	fa1,68(a0)
    dc96:	535f7373          	csrrci	t1,0x535,30
    dc9a:	6174                	flw	fa3,68(a0)
    dc9c:	6974                	flw	fa3,84(a0)
    dc9e:	00002963          	0x2963
    dca2:	0000                	unimp
    dca4:	0000                	unimp
    dca6:	0000                	unimp
    dca8:	7472                	flw	fs0,60(sp)
    dcaa:	6f5f 6a62 6365      	0x63656a626f5f
    dcb0:	5f74                	lw	a3,124(a4)
    dcb2:	6e69                	lui	t3,0x1a
    dcb4:	7469                	lui	s0,0xffffa
    dcb6:	0000                	unimp
    dcb8:	7472                	flw	fs0,60(sp)
    dcba:	6f5f 6a62 6365      	0x63656a626f5f
    dcc0:	5f74                	lw	a3,124(a4)
    dcc2:	6564                	flw	fs1,76(a0)
    dcc4:	6174                	flw	fa3,68(a0)
    dcc6:	00006863          	bltu	zero,zero,0xdcd6
    dcca:	0000                	unimp
    dccc:	0000                	unimp
    dcce:	0000                	unimp
    dcd0:	7472                	flw	fs0,60(sp)
    dcd2:	6f5f 6a62 6365      	0x63656a626f5f
    dcd8:	5f74                	lw	a3,124(a4)
    dcda:	6c61                	lui	s8,0x18
    dcdc:	6f6c                	flw	fa1,92(a4)
    dcde:	65746163          	bltu	s0,s7,0xe320
    dce2:	0000                	unimp
    dce4:	0000                	unimp
    dce6:	0000                	unimp
    dce8:	7472                	flw	fs0,60(sp)
    dcea:	6f5f 6a62 6365      	0x63656a626f5f
    dcf0:	5f74                	lw	a3,124(a4)
    dcf2:	6564                	flw	fs1,76(a0)
    dcf4:	656c                	flw	fa1,76(a0)
    dcf6:	6574                	flw	fa3,76(a0)
	...
    dd00:	7472                	flw	fs0,60(sp)
    dd02:	6f5f 6a62 6365      	0x63656a626f5f
    dd08:	5f74                	lw	a3,124(a4)
    dd0a:	7369                	lui	t1,0xffffa
    dd0c:	735f 7379 6574      	0x65747379735f
    dd12:	6f6d                	lui	t5,0x1b
    dd14:	6a62                	flw	fs4,24(sp)
    dd16:	6365                	lui	t1,0x19
    dd18:	0074                	addi	a3,sp,12
    dd1a:	0000                	unimp
    dd1c:	0000                	unimp
    dd1e:	0000                	unimp
    dd20:	7472                	flw	fs0,60(sp)
    dd22:	6f5f 6a62 6365      	0x63656a626f5f
    dd28:	5f74                	lw	a3,124(a4)
    dd2a:	5f746567          	0x5f746567
    dd2e:	7974                	flw	fa3,116(a0)
    dd30:	6570                	flw	fa2,76(a0)
    dd32:	0000                	unimp
    dd34:	0000                	unimp
    dd36:	0000                	unimp
    dd38:	7472                	flw	fs0,60(sp)
    dd3a:	6f5f 6a62 6365      	0x63656a626f5f
    dd40:	5f74                	lw	a3,124(a4)
    dd42:	6966                	flw	fs2,88(sp)
    dd44:	646e                	flw	fs0,216(sp)
    dd46:	0000                	unimp
    dd48:	6564                	flw	fs1,76(a0)
    dd4a:	2076                	fld	ft0,344(sp)
    dd4c:	3d21                	jal	0xdb64
    dd4e:	5220                	lw	s0,96(a2)
    dd50:	5f54                	lw	a3,60(a4)
    dd52:	554e                	lw	a0,240(sp)
    dd54:	4c4c                	lw	a1,28(s0)
    dd56:	0000                	unimp
    dd58:	7472                	flw	fs0,60(sp)
    dd5a:	6f5f 6a62 6365      	0x63656a626f5f
    dd60:	5f74                	lw	a3,124(a4)
    dd62:	5f746567          	0x5f746567
    dd66:	7974                	flw	fa3,116(a0)
    dd68:	6570                	flw	fa2,76(a0)
    dd6a:	2628                	fld	fa0,72(a2)
    dd6c:	6564                	flw	fs1,76(a0)
    dd6e:	2d76                	fld	fs10,344(sp)
    dd70:	703e                	flw	ft0,236(sp)
    dd72:	7261                	lui	tp,0xffff8
    dd74:	6e65                	lui	t3,0x19
    dd76:	2974                	fld	fa3,208(a0)
    dd78:	3d20                	fld	fs0,120(a0)
    dd7a:	203d                	jal	0xdda8
    dd7c:	5452                	lw	s0,52(sp)
    dd7e:	4f5f 6a62 6365      	0x63656a624f5f
    dd84:	5f74                	lw	a3,124(a4)
    dd86:	73616c43          	fmadd.d	fs8,ft2,fs6,fa4,unknown
    dd8a:	65445f73          	csrrwi	t5,0x654,8
    dd8e:	6976                	flw	fs2,92(sp)
    dd90:	00006563          	bltu	zero,zero,0xdd9a
    dd94:	0000                	unimp
    dd96:	0000                	unimp
    dd98:	7472                	flw	fs0,60(sp)
    dd9a:	6f5f 6a62 6365      	0x63656a626f5f
    dda0:	5f74                	lw	a3,124(a4)
    dda2:	7369                	lui	t1,0xffffa
    dda4:	735f 7379 6574      	0x65747379735f
    ddaa:	6f6d                	lui	t5,0x1b
    ddac:	6a62                	flw	fs4,24(sp)
    ddae:	6365                	lui	t1,0x19
    ddb0:	2874                	fld	fa3,208(s0)
    ddb2:	6426                	flw	fs0,72(sp)
    ddb4:	7665                	lui	a2,0xffff9
    ddb6:	3e2d                	jal	0xd8f0
    ddb8:	6170                	flw	fa2,68(a0)
    ddba:	6572                	flw	fa0,28(sp)
    ddbc:	746e                	flw	fs0,248(sp)
    ddbe:	0029                	c.nop	10
    ddc0:	6f54                	flw	fa3,28(a4)
    ddc2:	6920                	flw	fs0,80(a0)
    ddc4:	696e                	flw	fs2,216(sp)
    ddc6:	6974                	flw	fa3,84(a0)
    ddc8:	6c61                	lui	s8,0x18
    ddca:	7a69                	lui	s4,0xffffa
    ddcc:	2065                	jal	0xde74
    ddce:	6564                	flw	fs1,76(a0)
    ddd0:	6976                	flw	fs2,92(sp)
    ddd2:	253a6563          	bltu	s4,s3,0xe01c
    ddd6:	61662073          	csrs	0x616,a2
    ddda:	6c69                	lui	s8,0x1a
    dddc:	6465                	lui	s0,0x19
    ddde:	202e                	fld	ft0,200(sp)
    dde0:	6854                	flw	fa3,20(s0)
    dde2:	2065                	jal	0xde8a
    dde4:	7265                	lui	tp,0xffff9
    dde6:	6f72                	flw	ft10,28(sp)
    dde8:	2072                	fld	ft0,280(sp)
    ddea:	65646f63          	bltu	s0,s6,0xe448
    ddee:	6920                	flw	fs0,80(a0)
    ddf0:	64252073          	csrs	0x642,a0
    ddf4:	000a                	c.slli	zero,0x2
    ddf6:	0000                	unimp
    ddf8:	6564                	flw	fs1,76(a0)
    ddfa:	2d76                	fld	fs10,344(sp)
    ddfc:	723e                	flw	ft4,236(sp)
    ddfe:	6665                	lui	a2,0x19
    de00:	635f 756f 746e      	0x746e756f635f
    de06:	2120                	fld	fs0,64(a0)
    de08:	203d                	jal	0xde36
    de0a:	0030                	addi	a2,sp,8
    de0c:	0000                	unimp
    de0e:	0000                	unimp
    de10:	7472                	flw	fs0,60(sp)
    de12:	645f 7665 6369      	0x63697665645f
    de18:	5f65                	li	t5,-7
    de1a:	6e65706f          	j	0x65500
    de1e:	0000                	unimp
    de20:	7472                	flw	fs0,60(sp)
    de22:	645f 7665 6369      	0x63697665645f
    de28:	5f65                	li	t5,-7
    de2a:	736f6c63          	bltu	t5,s6,0xe562
    de2e:	0065                	c.nop	25
    de30:	7472                	flw	fs0,60(sp)
    de32:	645f 7665 6369      	0x63697665645f
    de38:	5f65                	li	t5,-7
    de3a:	6572                	flw	fa0,28(sp)
    de3c:	6461                	lui	s0,0x18
    de3e:	0000                	unimp
    de40:	7472                	flw	fs0,60(sp)
    de42:	645f 7665 6369      	0x63697665645f
    de48:	5f65                	li	t5,-7
    de4a:	74697277          	0x74697277
    de4e:	0065                	c.nop	25
    de50:	7472                	flw	fs0,60(sp)
    de52:	645f 7665 6369      	0x63697665645f
    de58:	5f65                	li	t5,-7
    de5a:	746e6f63          	bltu	t3,t1,0xe5b8
    de5e:	6f72                	flw	ft10,28(sp)
    de60:	006c                	addi	a1,sp,12
    de62:	0000                	unimp
    de64:	0000                	unimp
    de66:	0000                	unimp
    de68:	7472                	flw	fs0,60(sp)
    de6a:	645f 7665 6369      	0x63697665645f
    de70:	5f65                	li	t5,-7
    de72:	5f746573          	csrrsi	a0,0x5f7,8
    de76:	7872                	flw	fa6,60(sp)
    de78:	695f 646e 6369      	0x6369646e695f
    de7e:	7461                	lui	s0,0xffff8
    de80:	0065                	c.nop	25
    de82:	0000                	unimp
    de84:	0000                	unimp
    de86:	0000                	unimp
    de88:	616d                	addi	sp,sp,240
    de8a:	6e69                	lui	t3,0x1a
    de8c:	0000                	unimp
    de8e:	0000                	unimp
    de90:	6974                	flw	fa3,84(a0)
    de92:	2064                	fld	fs1,192(s0)
    de94:	3d21                	jal	0xdcac
    de96:	5220                	lw	s0,96(a2)
    de98:	5f54                	lw	a3,60(a4)
    de9a:	554e                	lw	a0,240(sp)
    de9c:	4c4c                	lw	a1,28(s0)
    de9e:	0000                	unimp
    dea0:	7472                	flw	fs0,60(sp)
    dea2:	615f 7070 696c      	0x696c7070615f
    dea8:	69746163          	bltu	s0,s7,0xe52a
    deac:	695f6e6f          	jal	t3,0x104d40
    deb0:	696e                	flw	fs2,216(sp)
    deb2:	0074                	addi	a3,sp,12
    deb4:	0000                	unimp
    deb6:	0000                	unimp
    deb8:	206d6573          	csrrsi	a0,0x206,26
    debc:	3d21                	jal	0xdcd4
    debe:	5220                	lw	s0,96(a2)
    dec0:	5f54                	lw	a3,60(a4)
    dec2:	554e                	lw	a0,240(sp)
    dec4:	4c4c                	lw	a1,28(s0)
    dec6:	0000                	unimp
    dec8:	6176                	flw	ft2,92(sp)
    deca:	756c                	flw	fa1,108(a0)
    decc:	2065                	jal	0xdf74
    dece:	203c                	fld	fa5,64(s0)
    ded0:	7830                	flw	fa2,112(s0)
    ded2:	3031                	jal	0xd6de
    ded4:	3030                	fld	fa2,96(s0)
    ded6:	5530                	lw	a2,104(a0)
	...
    dee0:	7472                	flw	fs0,60(sp)
    dee2:	6f5f 6a62 6365      	0x63656a626f5f
    dee8:	5f74                	lw	a3,124(a4)
    deea:	5f746567          	0x5f746567
    deee:	7974                	flw	fa3,116(a0)
    def0:	6570                	flw	fa2,76(a0)
    def2:	2628                	fld	fa0,72(a2)
    def4:	2d6d6573          	csrrsi	a0,0x2d6,26
    def8:	703e                	flw	ft0,236(sp)
    defa:	7261                	lui	tp,0xffff8
    defc:	6e65                	lui	t3,0x19
    defe:	2e74                	fld	fa3,216(a2)
    df00:	6170                	flw	fa2,68(a0)
    df02:	6572                	flw	fa0,28(sp)
    df04:	746e                	flw	fs0,248(sp)
    df06:	2029                	jal	0xdf10
    df08:	3d3d                	jal	0xdd46
    df0a:	5220                	lw	s0,96(a2)
    df0c:	5f54                	lw	a3,60(a4)
    df0e:	656a624f          	0x656a624f
    df12:	435f7463          	bgeu	t5,s5,0xe33a
    df16:	616c                	flw	fa1,68(a0)
    df18:	535f7373          	csrrci	t1,0x535,30
    df1c:	6d65                	lui	s10,0x19
    df1e:	7061                	c.lui	zero,0xffff8
    df20:	6f68                	flw	fa0,92(a4)
    df22:	6572                	flw	fa0,28(sp)
    df24:	0000                	unimp
    df26:	0000                	unimp
    df28:	7472                	flw	fs0,60(sp)
    df2a:	6f5f 6a62 6365      	0x63656a626f5f
    df30:	5f74                	lw	a3,124(a4)
    df32:	7369                	lui	t1,0xffffa
    df34:	735f 7379 6574      	0x65747379735f
    df3a:	6f6d                	lui	t5,0x1b
    df3c:	6a62                	flw	fs4,24(sp)
    df3e:	6365                	lui	t1,0x19
    df40:	2874                	fld	fa3,208(s0)
    df42:	7326                	flw	ft6,104(sp)
    df44:	6d65                	lui	s10,0x19
    df46:	3e2d                	jal	0xda80
    df48:	6170                	flw	fa2,68(a0)
    df4a:	6572                	flw	fa0,28(sp)
    df4c:	746e                	flw	fs0,248(sp)
    df4e:	702e                	flw	ft0,232(sp)
    df50:	7261                	lui	tp,0xffff8
    df52:	6e65                	lui	t3,0x19
    df54:	2974                	fld	fa3,208(a0)
    df56:	0000                	unimp
    df58:	7546                	flw	fa0,112(sp)
    df5a:	636e                	flw	ft6,216(sp)
    df5c:	6974                	flw	fa3,84(a0)
    df5e:	255b6e6f          	jal	t3,0xc49b2
    df62:	73205d73          	csrrwi	s10,0x732,0
    df66:	6168                	flw	fa0,68(a0)
    df68:	6c6c                	flw	fa1,92(s0)
    df6a:	6e20                	flw	fs0,88(a2)
    df6c:	6220746f          	jal	s0,0x1558e
    df70:	2065                	jal	0xe018
    df72:	7375                	lui	t1,0xffffd
    df74:	6465                	lui	s0,0x19
    df76:	6220                	flw	fs0,64(a2)
    df78:	6665                	lui	a2,0x19
    df7a:	2065726f          	jal	tp,0x65180
    df7e:	65686373          	csrrsi	t1,0x656,16
    df82:	7564                	flw	fs1,108(a0)
    df84:	656c                	flw	fa1,76(a0)
    df86:	2072                	fld	ft0,280(sp)
    df88:	72617473          	csrrci	s0,0x726,2
    df8c:	0a74                	addi	a3,sp,284
    df8e:	0000                	unimp
    df90:	756d                	lui	a0,0xffffb
    df92:	6574                	flw	fa3,76(a0)
    df94:	2078                	fld	fa4,192(s0)
    df96:	3d21                	jal	0xddae
    df98:	5220                	lw	s0,96(a2)
    df9a:	5f54                	lw	a3,60(a4)
    df9c:	554e                	lw	a0,240(sp)
    df9e:	4c4c                	lw	a1,28(s0)
	...
    dfa8:	7472                	flw	fs0,60(sp)
    dfaa:	6f5f 6a62 6365      	0x63656a626f5f
    dfb0:	5f74                	lw	a3,124(a4)
    dfb2:	5f746567          	0x5f746567
    dfb6:	7974                	flw	fa3,116(a0)
    dfb8:	6570                	flw	fa2,76(a0)
    dfba:	2628                	fld	fa0,72(a2)
    dfbc:	756d                	lui	a0,0xffffb
    dfbe:	6574                	flw	fa3,76(a0)
    dfc0:	2d78                	fld	fa4,216(a0)
    dfc2:	703e                	flw	ft0,236(sp)
    dfc4:	7261                	lui	tp,0xffff8
    dfc6:	6e65                	lui	t3,0x19
    dfc8:	2e74                	fld	fa3,216(a2)
    dfca:	6170                	flw	fa2,68(a0)
    dfcc:	6572                	flw	fa0,28(sp)
    dfce:	746e                	flw	fs0,248(sp)
    dfd0:	2029                	jal	0xdfda
    dfd2:	3d3d                	jal	0xde10
    dfd4:	5220                	lw	s0,96(a2)
    dfd6:	5f54                	lw	a3,60(a4)
    dfd8:	656a624f          	0x656a624f
    dfdc:	435f7463          	bgeu	t5,s5,0xe404
    dfe0:	616c                	flw	fa1,68(a0)
    dfe2:	4d5f7373          	csrrci	t1,0x4d5,30
    dfe6:	7475                	lui	s0,0xffffd
    dfe8:	7865                	lui	a6,0xffff9
    dfea:	0000                	unimp
    dfec:	0000                	unimp
    dfee:	0000                	unimp
    dff0:	7472                	flw	fs0,60(sp)
    dff2:	6f5f 6a62 6365      	0x63656a626f5f
    dff8:	5f74                	lw	a3,124(a4)
    dffa:	7369                	lui	t1,0xffffa
    dffc:	735f 7379 6574      	0x65747379735f
    e002:	6f6d                	lui	t5,0x1b
    e004:	6a62                	flw	fs4,24(sp)
    e006:	6365                	lui	t1,0x19
    e008:	2874                	fld	fa3,208(s0)
    e00a:	6d26                	flw	fs10,72(sp)
    e00c:	7475                	lui	s0,0xffffd
    e00e:	7865                	lui	a6,0xffff9
    e010:	3e2d                	jal	0xdb4a
    e012:	6170                	flw	fa2,68(a0)
    e014:	6572                	flw	fa0,28(sp)
    e016:	746e                	flw	fs0,248(sp)
    e018:	702e                	flw	ft0,232(sp)
    e01a:	7261                	lui	tp,0xffff8
    e01c:	6e65                	lui	t3,0x19
    e01e:	2974                	fld	fa3,208(a0)
	...
    e028:	7472                	flw	fs0,60(sp)
    e02a:	695f 6370 6c5f      	0x6c5f6370695f
    e030:	7369                	lui	t1,0xffffa
    e032:	5f74                	lw	a3,124(a4)
    e034:	70737573          	csrrci	a0,0x707,6
    e038:	6e65                	lui	t3,0x19
    e03a:	0064                	addi	s1,sp,12
    e03c:	0000                	unimp
    e03e:	0000                	unimp
    e040:	7472                	flw	fs0,60(sp)
    e042:	735f 6d65 695f      	0x695f6d65735f
    e048:	696e                	flw	fs2,216(sp)
    e04a:	0074                	addi	a3,sp,12
    e04c:	0000                	unimp
    e04e:	0000                	unimp
    e050:	7472                	flw	fs0,60(sp)
    e052:	735f 6d65 745f      	0x745f6d65735f
    e058:	6b61                	lui	s6,0x18
    e05a:	0065                	c.nop	25
    e05c:	0000                	unimp
    e05e:	0000                	unimp
    e060:	7472                	flw	fs0,60(sp)
    e062:	735f 6d65 725f      	0x725f6d65735f
    e068:	6c65                	lui	s8,0x19
    e06a:	6165                	addi	sp,sp,112
    e06c:	00006573          	csrrsi	a0,ustatus,0
    e070:	7472                	flw	fs0,60(sp)
    e072:	6d5f 7475 7865      	0x786574756d5f
    e078:	695f 696e 0074      	0x74696e695f
    e07e:	0000                	unimp
    e080:	7472                	flw	fs0,60(sp)
    e082:	6d5f 7475 7865      	0x786574756d5f
    e088:	745f 6b61 0065      	0x656b61745f
    e08e:	0000                	unimp
    e090:	7472                	flw	fs0,60(sp)
    e092:	6d5f 7475 7865      	0x786574756d5f
    e098:	725f 6c65 6165      	0x61656c65725f
    e09e:	00006573          	csrrsi	a0,ustatus,0
    e0a2:	0000                	unimp
    e0a4:	0000                	unimp
    e0a6:	0000                	unimp
    e0a8:	4e55                	li	t3,21
    e0aa:	682d                	lui	a6,0xb
    e0ac:	6e61                	lui	t3,0x18
    e0ae:	6c64                	flw	fs1,92(s0)
    e0b0:	6465                	lui	s0,0x19
    e0b2:	6920                	flw	fs0,80(a0)
    e0b4:	746e                	flw	fs0,248(sp)
    e0b6:	7265                	lui	tp,0xffff9
    e0b8:	7572                	flw	fa0,60(sp)
    e0ba:	7470                	flw	fa2,108(s0)
    e0bc:	2520                	fld	fs0,72(a0)
    e0be:	2064                	fld	fs1,192(s0)
    e0c0:	7563636f          	jal	t1,0x44816
    e0c4:	7272                	flw	ft4,60(sp)
    e0c6:	6465                	lui	s0,0x19
    e0c8:	2121                	jal	0xe4d0
    e0ca:	0a21                	addi	s4,s4,8
    e0cc:	0000                	unimp
    e0ce:	0000                	unimp
    e0d0:	65707553          	0x65707553
    e0d4:	7672                	flw	fa2,60(sp)
    e0d6:	7369                	lui	t1,0xffffa
    e0d8:	4920726f          	jal	tp,0x1556a
    e0dc:	746e                	flw	fs0,248(sp)
    e0de:	7265                	lui	tp,0xffff9
    e0e0:	7572                	flw	fa0,60(sp)
    e0e2:	7470                	flw	fa2,108(s0)
    e0e4:	4520                	lw	s0,72(a0)
    e0e6:	616e                	flw	ft2,216(sp)
    e0e8:	6c62                	flw	fs8,24(sp)
    e0ea:	6465                	lui	s0,0x19
    e0ec:	0000                	unimp
    e0ee:	0000                	unimp
    e0f0:	65707553          	0x65707553
    e0f4:	7672                	flw	fa2,60(sp)
    e0f6:	7369                	lui	t1,0xffffa
    e0f8:	4920726f          	jal	tp,0x1558a
    e0fc:	746e                	flw	fs0,248(sp)
    e0fe:	7265                	lui	tp,0xffff9
    e100:	7572                	flw	fa0,60(sp)
    e102:	7470                	flw	fa2,108(s0)
    e104:	4420                	lw	s0,72(s0)
    e106:	7369                	lui	t1,0xffffa
    e108:	6261                	lui	tp,0x18
    e10a:	656c                	flw	fa1,76(a0)
    e10c:	0064                	addi	s1,sp,12
    e10e:	0000                	unimp
    e110:	614c                	flw	fa1,4(a0)
    e112:	54207473          	csrrci	s0,0x542,0
    e116:	6d69                	lui	s10,0x1a
    e118:	2065                	jal	0xe1c0
    e11a:	65707553          	0x65707553
    e11e:	7672                	flw	fa2,60(sp)
    e120:	7369                	lui	t1,0xffffa
    e122:	4920726f          	jal	tp,0x155b4
    e126:	746e                	flw	fs0,248(sp)
    e128:	7265                	lui	tp,0xffff9
    e12a:	7572                	flw	fa0,60(sp)
    e12c:	7470                	flw	fa2,108(s0)
    e12e:	4520                	lw	s0,72(a0)
    e130:	616e                	flw	ft2,216(sp)
    e132:	6c62                	flw	fs8,24(sp)
    e134:	6465                	lui	s0,0x19
    e136:	0000                	unimp
    e138:	614c                	flw	fa1,4(a0)
    e13a:	54207473          	csrrci	s0,0x542,0
    e13e:	6d69                	lui	s10,0x1a
    e140:	2065                	jal	0xe1e8
    e142:	65707553          	0x65707553
    e146:	7672                	flw	fa2,60(sp)
    e148:	7369                	lui	t1,0xffffa
    e14a:	4920726f          	jal	tp,0x155dc
    e14e:	746e                	flw	fs0,248(sp)
    e150:	7265                	lui	tp,0xffff9
    e152:	7572                	flw	fa0,60(sp)
    e154:	7470                	flw	fa2,108(s0)
    e156:	4420                	lw	s0,72(s0)
    e158:	7369                	lui	t1,0xffffa
    e15a:	6261                	lui	tp,0x18
    e15c:	656c                	flw	fa1,76(a0)
    e15e:	0064                	addi	s1,sp,12
    e160:	614c                	flw	fa1,4(a0)
    e162:	50207473          	csrrci	s0,0x502,0
    e166:	6972                	flw	fs2,28(sp)
    e168:	6976                	flw	fs2,92(sp)
    e16a:	656c                	flw	fa1,76(a0)
    e16c:	69206567          	0x69206567
    e170:	75532073          	csrs	0x755,t1
    e174:	6570                	flw	fa2,76(a0)
    e176:	7672                	flw	fa2,60(sp)
    e178:	7369                	lui	t1,0xffffa
    e17a:	4d20726f          	jal	tp,0x1564c
    e17e:	0065646f          	jal	s0,0x64184
    e182:	0000                	unimp
    e184:	0000                	unimp
    e186:	0000                	unimp
    e188:	614c                	flw	fa1,4(a0)
    e18a:	50207473          	csrrci	s0,0x502,0
    e18e:	6972                	flw	fs2,28(sp)
    e190:	6976                	flw	fs2,92(sp)
    e192:	656c                	flw	fa1,76(a0)
    e194:	69206567          	0x69206567
    e198:	73552073          	csrs	0x735,a0
    e19c:	7265                	lui	tp,0xffff9
    e19e:	4d20                	lw	s0,88(a0)
    e1a0:	0065646f          	jal	s0,0x641a6
    e1a4:	0000                	unimp
    e1a6:	0000                	unimp
    e1a8:	6550                	flw	fa2,12(a0)
    e1aa:	6d72                	flw	fs10,28(sp)
    e1ac:	7469                	lui	s0,0xffffa
    e1ae:	7420                	flw	fs0,104(s0)
    e1b0:	6341206f          	j	0x207e4
    e1b4:	73736563          	bltu	t1,s7,0xe8de
    e1b8:	5520                	lw	s0,104(a0)
    e1ba:	20726573          	csrrsi	a0,0x207,4
    e1be:	6150                	flw	fa2,4(a0)
    e1c0:	00006567          	0x6567
    e1c4:	0000                	unimp
    e1c6:	0000                	unimp
    e1c8:	6f4e                	flw	ft10,208(sp)
    e1ca:	2074                	fld	fa3,192(s0)
    e1cc:	6550                	flw	fa2,12(a0)
    e1ce:	6d72                	flw	fs10,28(sp)
    e1d0:	7469                	lui	s0,0xffffa
    e1d2:	7420                	flw	fs0,104(s0)
    e1d4:	6341206f          	j	0x20808
    e1d8:	73736563          	bltu	t1,s7,0xe902
    e1dc:	5520                	lw	s0,104(a0)
    e1de:	20726573          	csrrsi	a0,0x207,4
    e1e2:	6150                	flw	fa2,4(a0)
    e1e4:	00006567          	0x6567
    e1e8:	6550                	flw	fa2,12(a0)
    e1ea:	6d72                	flw	fs10,28(sp)
    e1ec:	7469                	lui	s0,0xffffa
    e1ee:	7420                	flw	fs0,104(s0)
    e1f0:	6552206f          	j	0x31044
    e1f4:	6461                	lui	s0,0x18
    e1f6:	4520                	lw	s0,72(a0)
    e1f8:	6578                	flw	fa4,76(a0)
    e1fa:	61747563          	bgeu	s0,s7,0xe804
    e1fe:	6c62                	flw	fs8,24(sp)
    e200:	2d65                	jal	0xe8b8
    e202:	796c6e6f          	jal	t3,0xd4998
    e206:	5020                	lw	s0,96(s0)
    e208:	6761                	lui	a4,0x18
    e20a:	0065                	c.nop	25
    e20c:	0000                	unimp
    e20e:	0000                	unimp
    e210:	6f4e                	flw	ft10,208(sp)
    e212:	2074                	fld	fa3,192(s0)
    e214:	6550                	flw	fa2,12(a0)
    e216:	6d72                	flw	fs10,28(sp)
    e218:	7469                	lui	s0,0xffffa
    e21a:	7420                	flw	fs0,104(s0)
    e21c:	6552206f          	j	0x31070
    e220:	6461                	lui	s0,0x18
    e222:	4520                	lw	s0,72(a0)
    e224:	6578                	flw	fa4,76(a0)
    e226:	61747563          	bgeu	s0,s7,0xe830
    e22a:	6c62                	flw	fs8,24(sp)
    e22c:	2d65                	jal	0xe8e4
    e22e:	796c6e6f          	jal	t3,0xd49c4
    e232:	5020                	lw	s0,96(s0)
    e234:	6761                	lui	a4,0x18
    e236:	0065                	c.nop	25
    e238:	6e55                	lui	t3,0x15
    e23a:	776f6e6b          	0x776f6e6b
    e23e:	206e                	fld	ft0,216(sp)
    e240:	6441                	lui	s0,0x10
    e242:	7264                	flw	fs1,100(a2)
    e244:	7365                	lui	t1,0xffff9
    e246:	72542073          	csrs	0x725,s0
    e24a:	6e61                	lui	t3,0x18
    e24c:	74616c73          	csrrsi	s8,0x746,2
    e250:	6f69                	lui	t5,0x1a
    e252:	2f6e                	fld	ft10,216(sp)
    e254:	7250                	flw	fa2,36(a2)
    e256:	6365746f          	jal	s0,0x6588c
    e25a:	6974                	flw	fa3,84(a0)
    e25c:	4d206e6f          	jal	t3,0x1472e
    e260:	0065646f          	jal	s0,0x64266
    e264:	0000                	unimp
    e266:	0000                	unimp
    e268:	2d2d                	jal	0xe8a2
    e26a:	2d2d                	jal	0xe8a4
    e26c:	2d2d                	jal	0xe8a6
    e26e:	2d2d                	jal	0xe8a8
    e270:	2d2d                	jal	0xe8aa
    e272:	2d2d                	jal	0xe8ac
    e274:	2d2d                	jal	0xe8ae
    e276:	7544                	flw	fs1,44(a0)
    e278:	706d                	c.lui	zero,0xffffb
    e27a:	5220                	lw	s0,96(a2)
    e27c:	6765                	lui	a4,0x19
    e27e:	7369                	lui	t1,0xffffa
    e280:	6574                	flw	fa3,76(a0)
    e282:	7372                	flw	ft6,60(sp)
    e284:	2d2d                	jal	0xe8be
    e286:	2d2d                	jal	0xe8c0
    e288:	2d2d                	jal	0xe8c2
    e28a:	2d2d                	jal	0xe8c4
    e28c:	2d2d                	jal	0xe8c6
    e28e:	2d2d                	jal	0xe8c8
    e290:	2d2d                	jal	0xe8ca
    e292:	2d2d                	jal	0xe8cc
    e294:	0a2d                	addi	s4,s4,11
    e296:	0000                	unimp
    e298:	7546                	flw	fa0,112(sp)
    e29a:	636e                	flw	ft6,216(sp)
    e29c:	6974                	flw	fa3,84(a0)
    e29e:	52206e6f          	jal	t3,0x147c0
    e2a2:	6765                	lui	a4,0x19
    e2a4:	7369                	lui	t1,0xffffa
    e2a6:	6574                	flw	fa3,76(a0)
    e2a8:	7372                	flw	ft6,60(sp)
    e2aa:	0a3a                	slli	s4,s4,0xe
    e2ac:	0000                	unimp
    e2ae:	0000                	unimp
    e2b0:	7209                	lui	tp,0xfffe2
    e2b2:	2861                	jal	0xe34a
    e2b4:	3178                	fld	fa4,224(a0)
    e2b6:	2029                	jal	0xe2c0
    e2b8:	203d                	jal	0xe2e6
    e2ba:	7830                	flw	fa2,112(s0)
    e2bc:	7025                	c.lui	zero,0xfffe9
    e2be:	7509                	lui	a0,0xfffe2
    e2c0:	5f726573          	csrrsi	a0,0x5f7,4
    e2c4:	3d207073          	csrci	0x3d2,0
    e2c8:	3020                	fld	fs0,96(s0)
    e2ca:	2578                	fld	fa4,200(a0)
    e2cc:	0a70                	addi	a2,sp,284
    e2ce:	0000                	unimp
    e2d0:	6709                	lui	a4,0x2
    e2d2:	2870                	fld	fa2,208(s0)
    e2d4:	3378                	fld	fa4,224(a4)
    e2d6:	2029                	jal	0xe2e0
    e2d8:	203d                	jal	0xe306
    e2da:	7830                	flw	fa2,112(s0)
    e2dc:	7025                	c.lui	zero,0xfffe9
    e2de:	7409                	lui	s0,0xfffe2
    e2e0:	2870                	fld	fa2,208(s0)
    e2e2:	3478                	fld	fa4,232(s0)
    e2e4:	2029                	jal	0xe2ee
    e2e6:	203d                	jal	0xe314
    e2e8:	7830                	flw	fa2,112(s0)
    e2ea:	7025                	c.lui	zero,0xfffe9
    e2ec:	000a                	c.slli	zero,0x2
    e2ee:	0000                	unimp
    e2f0:	6554                	flw	fa3,12(a0)
    e2f2:	706d                	c.lui	zero,0xffffb
    e2f4:	7261726f          	jal	tp,0x25a1a
    e2f8:	2079                	jal	0xe386
    e2fa:	6552                	flw	fa0,20(sp)
    e2fc:	74736967          	0x74736967
    e300:	7265                	lui	tp,0xffff9
    e302:	000a3a73          	csrrc	s4,ustatus,s4
    e306:	0000                	unimp
    e308:	7409                	lui	s0,0xfffe2
    e30a:	2830                	fld	fa2,80(s0)
    e30c:	3578                	fld	fa4,232(a0)
    e30e:	2029                	jal	0xe318
    e310:	203d                	jal	0xe33e
    e312:	7830                	flw	fa2,112(s0)
    e314:	7025                	c.lui	zero,0xfffe9
    e316:	7409                	lui	s0,0xfffe2
    e318:	2831                	jal	0xe334
    e31a:	3678                	fld	fa4,232(a2)
    e31c:	2029                	jal	0xe326
    e31e:	203d                	jal	0xe34c
    e320:	7830                	flw	fa2,112(s0)
    e322:	7025                	c.lui	zero,0xfffe9
    e324:	000a                	c.slli	zero,0x2
    e326:	0000                	unimp
    e328:	7409                	lui	s0,0xfffe2
    e32a:	2832                	fld	fa6,264(sp)
    e32c:	3778                	fld	fa4,232(a4)
    e32e:	2029                	jal	0xe338
    e330:	203d                	jal	0xe35e
    e332:	7830                	flw	fa2,112(s0)
    e334:	7025                	c.lui	zero,0xfffe9
    e336:	000a                	c.slli	zero,0x2
    e338:	7409                	lui	s0,0xfffe2
    e33a:	32782833          	0x32782833
    e33e:	2938                	fld	fa4,80(a0)
    e340:	3d20                	fld	fs0,120(a0)
    e342:	3020                	fld	fs0,96(s0)
    e344:	2578                	fld	fa4,200(a0)
    e346:	0970                	addi	a2,sp,156
    e348:	3474                	fld	fa3,232(s0)
    e34a:	7828                	flw	fa0,112(s0)
    e34c:	3932                	fld	fs2,296(sp)
    e34e:	2029                	jal	0xe358
    e350:	203d                	jal	0xe37e
    e352:	7830                	flw	fa2,112(s0)
    e354:	7025                	c.lui	zero,0xfffe9
    e356:	000a                	c.slli	zero,0x2
    e358:	7409                	lui	s0,0xfffe2
    e35a:	2835                	jal	0xe396
    e35c:	3378                	fld	fa4,224(a4)
    e35e:	2930                	fld	fa2,80(a0)
    e360:	3d20                	fld	fs0,120(a0)
    e362:	3020                	fld	fs0,96(s0)
    e364:	2578                	fld	fa4,200(a0)
    e366:	0970                	addi	a2,sp,156
    e368:	3674                	fld	fa3,232(a2)
    e36a:	7828                	flw	fa0,112(s0)
    e36c:	20293133          	0x20293133
    e370:	203d                	jal	0xe39e
    e372:	7830                	flw	fa2,112(s0)
    e374:	7025                	c.lui	zero,0xfffe9
    e376:	000a                	c.slli	zero,0x2
    e378:	65766153          	0x65766153
    e37c:	2064                	fld	fs1,192(s0)
    e37e:	6552                	flw	fa0,20(sp)
    e380:	74736967          	0x74736967
    e384:	7265                	lui	tp,0xffff9
    e386:	000a3a73          	csrrc	s4,ustatus,s4
    e38a:	0000                	unimp
    e38c:	0000                	unimp
    e38e:	0000                	unimp
    e390:	7309                	lui	t1,0xfffe2
    e392:	2f30                	fld	fa2,88(a4)
    e394:	7066                	flw	ft0,120(sp)
    e396:	7828                	flw	fa0,112(s0)
    e398:	2938                	fld	fa4,80(a0)
    e39a:	3d20                	fld	fs0,120(a0)
    e39c:	3020                	fld	fs0,96(s0)
    e39e:	2578                	fld	fa4,200(a0)
    e3a0:	0970                	addi	a2,sp,156
    e3a2:	78283173          	csrrc	sp,0x782,a6
    e3a6:	2939                	jal	0xe7c4
    e3a8:	3d20                	fld	fs0,120(a0)
    e3aa:	3020                	fld	fs0,96(s0)
    e3ac:	2578                	fld	fa4,200(a0)
    e3ae:	0a70                	addi	a2,sp,284
	...
    e3b8:	7309                	lui	t1,0xfffe2
    e3ba:	2832                	fld	fa6,264(sp)
    e3bc:	3178                	fld	fa4,224(a0)
    e3be:	2938                	fld	fa4,80(a0)
    e3c0:	3d20                	fld	fs0,120(a0)
    e3c2:	3020                	fld	fs0,96(s0)
    e3c4:	2578                	fld	fa4,200(a0)
    e3c6:	0970                	addi	a2,sp,156
    e3c8:	78283373          	csrrc	t1,0x782,a6
    e3cc:	3931                	jal	0xdfe8
    e3ce:	2029                	jal	0xe3d8
    e3d0:	203d                	jal	0xe3fe
    e3d2:	7830                	flw	fa2,112(s0)
    e3d4:	7025                	c.lui	zero,0xfffe9
    e3d6:	000a                	c.slli	zero,0x2
    e3d8:	7309                	lui	t1,0xfffe2
    e3da:	2834                	fld	fa3,80(s0)
    e3dc:	3278                	fld	fa4,224(a2)
    e3de:	2930                	fld	fa2,80(a0)
    e3e0:	3d20                	fld	fs0,120(a0)
    e3e2:	3020                	fld	fs0,96(s0)
    e3e4:	2578                	fld	fa4,200(a0)
    e3e6:	0970                	addi	a2,sp,156
    e3e8:	78283573          	csrrc	a0,0x782,a6
    e3ec:	3132                	fld	ft2,296(sp)
    e3ee:	2029                	jal	0xe3f8
    e3f0:	203d                	jal	0xe41e
    e3f2:	7830                	flw	fa2,112(s0)
    e3f4:	7025                	c.lui	zero,0xfffe9
    e3f6:	000a                	c.slli	zero,0x2
    e3f8:	7309                	lui	t1,0xfffe2
    e3fa:	2836                	fld	fa6,328(sp)
    e3fc:	3278                	fld	fa4,224(a2)
    e3fe:	2932                	fld	fs2,264(sp)
    e400:	3d20                	fld	fs0,120(a0)
    e402:	3020                	fld	fs0,96(s0)
    e404:	2578                	fld	fa4,200(a0)
    e406:	0970                	addi	a2,sp,156
    e408:	78283773          	csrrc	a4,0x782,a6
    e40c:	3332                	fld	ft6,296(sp)
    e40e:	2029                	jal	0xe418
    e410:	203d                	jal	0xe43e
    e412:	7830                	flw	fa2,112(s0)
    e414:	7025                	c.lui	zero,0xfffe9
    e416:	000a                	c.slli	zero,0x2
    e418:	7309                	lui	t1,0xfffe2
    e41a:	2838                	fld	fa4,80(s0)
    e41c:	3278                	fld	fa4,224(a2)
    e41e:	2934                	fld	fa3,80(a0)
    e420:	3d20                	fld	fs0,120(a0)
    e422:	3020                	fld	fs0,96(s0)
    e424:	2578                	fld	fa4,200(a0)
    e426:	0970                	addi	a2,sp,156
    e428:	78283973          	csrrc	s2,0x782,a6
    e42c:	3532                	fld	fa0,296(sp)
    e42e:	2029                	jal	0xe438
    e430:	203d                	jal	0xe45e
    e432:	7830                	flw	fa2,112(s0)
    e434:	7025                	c.lui	zero,0xfffe9
    e436:	000a                	c.slli	zero,0x2
    e438:	7309                	lui	t1,0xfffe2
    e43a:	3031                	jal	0xdc46
    e43c:	7828                	flw	fa0,112(s0)
    e43e:	3632                	fld	fa2,296(sp)
    e440:	2029                	jal	0xe44a
    e442:	203d                	jal	0xe470
    e444:	7830                	flw	fa2,112(s0)
    e446:	7025                	c.lui	zero,0xfffe9
    e448:	7309                	lui	t1,0xfffe2
    e44a:	3131                	jal	0xe056
    e44c:	7828                	flw	fa0,112(s0)
    e44e:	3732                	fld	fa4,296(sp)
    e450:	2029                	jal	0xe45a
    e452:	203d                	jal	0xe480
    e454:	7830                	flw	fa2,112(s0)
    e456:	7025                	c.lui	zero,0xfffe9
    e458:	000a                	c.slli	zero,0x2
    e45a:	0000                	unimp
    e45c:	0000                	unimp
    e45e:	0000                	unimp
    e460:	7546                	flw	fa0,112(sp)
    e462:	636e                	flw	ft6,216(sp)
    e464:	6974                	flw	fa3,84(a0)
    e466:	41206e6f          	jal	t3,0x14878
    e46a:	6772                	flw	fa4,28(sp)
    e46c:	6d75                	lui	s10,0x1d
    e46e:	6e65                	lui	t3,0x19
    e470:	7374                	flw	fa3,100(a4)
    e472:	5220                	lw	s0,96(a2)
    e474:	6765                	lui	a4,0x19
    e476:	7369                	lui	t1,0xffffa
    e478:	6574                	flw	fa3,76(a0)
    e47a:	7372                	flw	ft6,60(sp)
    e47c:	0a3a                	slli	s4,s4,0xe
    e47e:	0000                	unimp
    e480:	6109                	addi	sp,sp,128
    e482:	2830                	fld	fa2,80(s0)
    e484:	3178                	fld	fa4,224(a0)
    e486:	2930                	fld	fa2,80(a0)
    e488:	3d20                	fld	fs0,120(a0)
    e48a:	3020                	fld	fs0,96(s0)
    e48c:	2578                	fld	fa4,200(a0)
    e48e:	0970                	addi	a2,sp,156
    e490:	3161                	jal	0xe118
    e492:	7828                	flw	fa0,112(s0)
    e494:	3131                	jal	0xe0a0
    e496:	2029                	jal	0xe4a0
    e498:	203d                	jal	0xe4c6
    e49a:	7830                	flw	fa2,112(s0)
    e49c:	7025                	c.lui	zero,0xfffe9
    e49e:	000a                	c.slli	zero,0x2
    e4a0:	6109                	addi	sp,sp,128
    e4a2:	2832                	fld	fa6,264(sp)
    e4a4:	3178                	fld	fa4,224(a0)
    e4a6:	2932                	fld	fs2,264(sp)
    e4a8:	3d20                	fld	fs0,120(a0)
    e4aa:	3020                	fld	fs0,96(s0)
    e4ac:	2578                	fld	fa4,200(a0)
    e4ae:	0970                	addi	a2,sp,156
    e4b0:	3361                	jal	0xe238
    e4b2:	7828                	flw	fa0,112(s0)
    e4b4:	3331                	jal	0xe1c0
    e4b6:	2029                	jal	0xe4c0
    e4b8:	203d                	jal	0xe4e6
    e4ba:	7830                	flw	fa2,112(s0)
    e4bc:	7025                	c.lui	zero,0xfffe9
    e4be:	000a                	c.slli	zero,0x2
    e4c0:	6109                	addi	sp,sp,128
    e4c2:	2834                	fld	fa3,80(s0)
    e4c4:	3178                	fld	fa4,224(a0)
    e4c6:	2934                	fld	fa3,80(a0)
    e4c8:	3d20                	fld	fs0,120(a0)
    e4ca:	3020                	fld	fs0,96(s0)
    e4cc:	2578                	fld	fa4,200(a0)
    e4ce:	0970                	addi	a2,sp,156
    e4d0:	3561                	jal	0xe358
    e4d2:	7828                	flw	fa0,112(s0)
    e4d4:	3531                	jal	0xe2e0
    e4d6:	2029                	jal	0xe4e0
    e4d8:	203d                	jal	0xe506
    e4da:	7830                	flw	fa2,112(s0)
    e4dc:	7025                	c.lui	zero,0xfffe9
    e4de:	000a                	c.slli	zero,0x2
    e4e0:	6109                	addi	sp,sp,128
    e4e2:	2836                	fld	fa6,328(sp)
    e4e4:	3178                	fld	fa4,224(a0)
    e4e6:	2936                	fld	fs2,328(sp)
    e4e8:	3d20                	fld	fs0,120(a0)
    e4ea:	3020                	fld	fs0,96(s0)
    e4ec:	2578                	fld	fa4,200(a0)
    e4ee:	0970                	addi	a2,sp,156
    e4f0:	3761                	jal	0xe478
    e4f2:	7828                	flw	fa0,112(s0)
    e4f4:	3731                	jal	0xe400
    e4f6:	2029                	jal	0xe500
    e4f8:	203d                	jal	0xe526
    e4fa:	7830                	flw	fa2,112(s0)
    e4fc:	7025                	c.lui	zero,0xfffe9
    e4fe:	000a                	c.slli	zero,0x2
    e500:	7378                	flw	fa4,100(a4)
    e502:	6174                	flw	fa3,68(a0)
    e504:	7574                	flw	fa3,108(a0)
    e506:	203d2073          	csrs	hideleg,s10
    e50a:	7830                	flw	fa2,112(s0)
    e50c:	7025                	c.lui	zero,0xfffe9
    e50e:	000a                	c.slli	zero,0x2
    e510:	2509                	jal	0xeb12
    e512:	00000a73          	0xa73
    e516:	0000                	unimp
    e518:	70746173          	csrrsi	sp,0x707,8
    e51c:	3d20                	fld	fs0,120(a0)
    e51e:	3020                	fld	fs0,96(s0)
    e520:	2578                	fld	fa4,200(a0)
    e522:	0a70                	addi	a2,sp,284
    e524:	0000                	unimp
    e526:	0000                	unimp
    e528:	4d09                	li	s10,2
    e52a:	2065646f          	jal	s0,0x64730
    e52e:	203d                	jal	0xe55c
    e530:	7325                	lui	t1,0xfffe9
    e532:	000a                	c.slli	zero,0x2
    e534:	0000                	unimp
    e536:	0000                	unimp
    e538:	2d2d                	jal	0xeb72
    e53a:	2d2d                	jal	0xeb74
    e53c:	2d2d                	jal	0xeb76
    e53e:	2d2d                	jal	0xeb78
    e540:	2d2d                	jal	0xeb7a
    e542:	2d2d                	jal	0xeb7c
    e544:	2d2d                	jal	0xeb7e
    e546:	2d2d                	jal	0xeb80
    e548:	442d                	li	s0,11
    e54a:	6d75                	lui	s10,0x1d
    e54c:	2070                	fld	fa2,192(s0)
    e54e:	2d2d4b4f          	0x2d2d4b4f
    e552:	2d2d                	jal	0xeb8c
    e554:	2d2d                	jal	0xeb8e
    e556:	2d2d                	jal	0xeb90
    e558:	2d2d                	jal	0xeb92
    e55a:	2d2d                	jal	0xeb94
    e55c:	2d2d                	jal	0xeb96
    e55e:	2d2d                	jal	0xeb98
    e560:	2d2d                	jal	0xeb9a
    e562:	2d2d                	jal	0xeb9c
    e564:	0a2d                	addi	s4,s4,11
    e566:	0000                	unimp
    e568:	6378                	flw	fa4,68(a4)
    e56a:	7561                	lui	a0,0xffff8
    e56c:	3d206573          	csrrsi	a0,0x3d2,0
    e570:	2520                	fld	fs0,72(a0)
    e572:	3830                	fld	fa2,112(s0)
    e574:	2c78                	fld	fa4,216(s0)
    e576:	7478                	flw	fa4,108(s0)
    e578:	6176                	flw	ft2,92(sp)
    e57a:	206c                	fld	fa1,192(s0)
    e57c:	203d                	jal	0xe5aa
    e57e:	3025                	jal	0xdda6
    e580:	7838                	flw	fa4,112(s0)
    e582:	782c                	flw	fa1,112(s0)
    e584:	7065                	c.lui	zero,0xffff9
    e586:	203d2063          	0x203d2063
    e58a:	3025                	jal	0xddb2
    e58c:	7838                	flw	fa4,112(s0)
    e58e:	000a                	c.slli	zero,0x2
    e590:	450a                	lw	a0,128(sp)
    e592:	6378                	flw	fa4,68(a4)
    e594:	7065                	c.lui	zero,0xffff9
    e596:	6974                	flw	fa3,84(a0)
    e598:	0a3a6e6f          	jal	t3,0xb4e3a
    e59c:	0000                	unimp
    e59e:	0000                	unimp
    e5a0:	6e49                	lui	t3,0x12
    e5a2:	75727473          	csrrci	s0,0x757,4
    e5a6:	6f697463          	bgeu	s2,s6,0xec8e
    e5aa:	206e                	fld	ft0,216(sp)
    e5ac:	6461                	lui	s0,0x18
    e5ae:	7264                	flw	fs1,100(a2)
    e5b0:	7365                	lui	t1,0xffff9
    e5b2:	696d2073          	csrs	0x696,s10
    e5b6:	696c6173          	csrrsi	sp,0x696,24
    e5ba:	64656e67          	0x64656e67
    e5be:	0000                	unimp
    e5c0:	6e49                	lui	t3,0x12
    e5c2:	75727473          	csrrci	s0,0x757,4
    e5c6:	6f697463          	bgeu	s2,s6,0xecae
    e5ca:	206e                	fld	ft0,216(sp)
    e5cc:	6361                	lui	t1,0x18
    e5ce:	73736563          	bltu	t1,s7,0xecf8
    e5d2:	6620                	flw	fs0,72(a2)
    e5d4:	7561                	lui	a0,0xffff8
    e5d6:	746c                	flw	fa1,108(s0)
	...
    e5e0:	6c49                	lui	s8,0x12
    e5e2:	656c                	flw	fa1,76(a0)
    e5e4:	206c6167          	0x206c6167
    e5e8:	6e69                	lui	t3,0x1a
    e5ea:	75727473          	csrrci	s0,0x757,4
    e5ee:	6f697463          	bgeu	s2,s6,0xecd6
    e5f2:	006e                	c.slli	zero,0x1b
    e5f4:	0000                	unimp
    e5f6:	0000                	unimp
    e5f8:	7242                	flw	ft4,48(sp)
    e5fa:	6165                	addi	sp,sp,112
    e5fc:	696f706b          	0x696f706b
    e600:	746e                	flw	fs0,248(sp)
    e602:	0000                	unimp
    e604:	0000                	unimp
    e606:	0000                	unimp
    e608:	6f4c                	flw	fa1,28(a4)
    e60a:	6461                	lui	s0,0x18
    e60c:	6120                	flw	fs0,64(a0)
    e60e:	6464                	flw	fs1,76(s0)
    e610:	6572                	flw	fa0,28(sp)
    e612:	6d207373          	csrrci	t1,0x6d2,0
    e616:	7369                	lui	t1,0xffffa
    e618:	6c61                	lui	s8,0x18
    e61a:	6769                	lui	a4,0x1a
    e61c:	656e                	flw	fa0,216(sp)
    e61e:	0064                	addi	s1,sp,12
    e620:	6f4c                	flw	fa1,28(a4)
    e622:	6461                	lui	s0,0x18
    e624:	6120                	flw	fs0,64(a0)
    e626:	73656363          	bltu	a0,s6,0xed4c
    e62a:	61662073          	csrs	0x616,a2
    e62e:	6c75                	lui	s8,0x1d
    e630:	0074                	addi	a3,sp,12
    e632:	0000                	unimp
    e634:	0000                	unimp
    e636:	0000                	unimp
    e638:	726f7453          	0x726f7453
    e63c:	2065                	jal	0xe6e4
    e63e:	6461                	lui	s0,0x18
    e640:	7264                	flw	fs1,100(a2)
    e642:	7365                	lui	t1,0xffff9
    e644:	696d2073          	csrs	0x696,s10
    e648:	696c6173          	csrrsi	sp,0x696,24
    e64c:	64656e67          	0x64656e67
	...
    e658:	726f7453          	0x726f7453
    e65c:	2065                	jal	0xe704
    e65e:	6361                	lui	t1,0x18
    e660:	73736563          	bltu	t1,s7,0xed8a
    e664:	6620                	flw	fs0,72(a2)
    e666:	7561                	lui	a0,0xffff8
    e668:	746c                	flw	fa1,108(s0)
    e66a:	0000                	unimp
    e66c:	0000                	unimp
    e66e:	0000                	unimp
    e670:	6e45                	lui	t3,0x11
    e672:	6976                	flw	fs2,92(sp)
    e674:	6f72                	flw	ft10,28(sp)
    e676:	6d6e                	flw	fs10,216(sp)
    e678:	6e65                	lui	t3,0x19
    e67a:	2074                	fld	fa3,192(s0)
    e67c:	6c6c6163          	bltu	s8,t1,0xed3e
    e680:	6620                	flw	fs0,72(a2)
    e682:	6f72                	flw	ft10,28(sp)
    e684:	206d                	jal	0xe72e
    e686:	2d55                	jal	0xed3a
    e688:	6f6d                	lui	t5,0x1b
    e68a:	6564                	flw	fs1,76(a0)
    e68c:	0000                	unimp
    e68e:	0000                	unimp
    e690:	6e45                	lui	t3,0x11
    e692:	6976                	flw	fs2,92(sp)
    e694:	6f72                	flw	ft10,28(sp)
    e696:	6d6e                	flw	fs10,216(sp)
    e698:	6e65                	lui	t3,0x19
    e69a:	2074                	fld	fa3,192(s0)
    e69c:	6c6c6163          	bltu	s8,t1,0xed5e
    e6a0:	6620                	flw	fs0,72(a2)
    e6a2:	6f72                	flw	ft10,28(sp)
    e6a4:	206d                	jal	0xe74e
    e6a6:	6f6d2d53          	0x6f6d2d53
    e6aa:	6564                	flw	fs1,76(a0)
    e6ac:	0000                	unimp
    e6ae:	0000                	unimp
    e6b0:	6e45                	lui	t3,0x11
    e6b2:	6976                	flw	fs2,92(sp)
    e6b4:	6f72                	flw	ft10,28(sp)
    e6b6:	6d6e                	flw	fs10,216(sp)
    e6b8:	6e65                	lui	t3,0x19
    e6ba:	2074                	fld	fa3,192(s0)
    e6bc:	6c6c6163          	bltu	s8,t1,0xed7e
    e6c0:	6620                	flw	fs0,72(a2)
    e6c2:	6f72                	flw	ft10,28(sp)
    e6c4:	206d                	jal	0xe76e
    e6c6:	2d48                	fld	fa0,152(a0)
    e6c8:	6f6d                	lui	t5,0x1b
    e6ca:	6564                	flw	fs1,76(a0)
    e6cc:	0000                	unimp
    e6ce:	0000                	unimp
    e6d0:	6e45                	lui	t3,0x11
    e6d2:	6976                	flw	fs2,92(sp)
    e6d4:	6f72                	flw	ft10,28(sp)
    e6d6:	6d6e                	flw	fs10,216(sp)
    e6d8:	6e65                	lui	t3,0x19
    e6da:	2074                	fld	fa3,192(s0)
    e6dc:	6c6c6163          	bltu	s8,t1,0xed9e
    e6e0:	6620                	flw	fs0,72(a2)
    e6e2:	6f72                	flw	ft10,28(sp)
    e6e4:	206d                	jal	0xe78e
    e6e6:	2d4d                	jal	0xed98
    e6e8:	6f6d                	lui	t5,0x1b
    e6ea:	6564                	flw	fs1,76(a0)
    e6ec:	0000                	unimp
    e6ee:	0000                	unimp
    e6f0:	6b55                	lui	s6,0x15
    e6f2:	6f6e                	flw	ft10,216(sp)
    e6f4:	65206e77          	0x65206e77
    e6f8:	6378                	flw	fa4,68(a4)
    e6fa:	7065                	c.lui	zero,0xffff9
    e6fc:	6974                	flw	fa3,84(a0)
    e6fe:	3a206e6f          	jal	t3,0x14aa0
    e702:	2520                	fld	fs0,72(a0)
    e704:	3830                	fld	fa2,112(s0)
    e706:	586c                	lw	a1,116(s0)
	...
    e710:	7865                	lui	a6,0xffff9
    e712:	74706563          	bltu	zero,t2,0xee5c
    e716:	6f69                	lui	t5,0x1a
    e718:	206e                	fld	ft0,216(sp)
    e71a:	6370                	flw	fa2,68(a4)
    e71c:	3d20                	fld	fs0,120(a0)
    e71e:	203e                	fld	ft0,456(sp)
    e720:	7830                	flw	fa2,112(s0)
    e722:	3025                	jal	0xdf4a
    e724:	7838                	flw	fa4,112(s0)
    e726:	000a                	c.slli	zero,0x2
    e728:	72727563          	bgeu	tp,t2,0xee52
    e72c:	6e65                	lui	t3,0x19
    e72e:	2074                	fld	fa3,192(s0)
    e730:	6874                	flw	fa3,84(s0)
    e732:	6572                	flw	fa0,28(sp)
    e734:	6461                	lui	s0,0x18
    e736:	203a                	fld	ft0,392(sp)
    e738:	2e25                	jal	0xea70
    e73a:	732a                	flw	ft6,168(sp)
    e73c:	000a                	c.slli	zero,0x2
    e73e:	0000                	unimp
    e740:	70d8                	flw	fa4,36(s1)
    e742:	ffff                	0xffff
    e744:	7124                	flw	fs1,96(a0)
    e746:	ffff                	0xffff
    e748:	7130                	flw	fa2,96(a0)
    e74a:	ffff                	0xffff
    e74c:	713c                	flw	fa5,96(a0)
    e74e:	ffff                	0xffff
    e750:	7148                	flw	fa0,36(a0)
    e752:	ffff                	0xffff
    e754:	7154                	flw	fa3,36(a0)
    e756:	ffff                	0xffff
    e758:	7160                	flw	fs0,100(a0)
    e75a:	ffff                	0xffff
    e75c:	716c                	flw	fa1,100(a0)
    e75e:	ffff                	0xffff
    e760:	7178                	flw	fa4,100(a0)
    e762:	ffff                	0xffff
    e764:	7184                	flw	fs1,32(a1)
    e766:	ffff                	0xffff
    e768:	7190                	flw	fa2,32(a1)
    e76a:	ffff                	0xffff
    e76c:	719c                	flw	fa5,32(a1)
    e76e:	ffff                	0xffff
    e770:	6f4e                	flw	ft10,208(sp)
    e772:	4120                	lw	s0,64(a0)
    e774:	6464                	flw	fs1,76(s0)
    e776:	6572                	flw	fa0,28(sp)
    e778:	54207373          	csrrci	t1,0x542,0
    e77c:	6172                	flw	ft2,28(sp)
    e77e:	736e                	flw	ft6,248(sp)
    e780:	616c                	flw	fa1,68(a0)
    e782:	6974                	flw	fa3,84(a0)
    e784:	502f6e6f          	jal	t3,0x104c86
    e788:	6f72                	flw	ft10,28(sp)
    e78a:	6574                	flw	fa3,76(a0)
    e78c:	6f697463          	bgeu	s2,s6,0xee74
    e790:	206e                	fld	ft0,216(sp)
    e792:	6f4d                	lui	t5,0x13
    e794:	6564                	flw	fs1,76(a0)
    e796:	0000                	unimp
    e798:	6150                	flw	fa2,4(a0)
    e79a:	622d6567          	0x622d6567
    e79e:	7361                	lui	t1,0xffff8
    e7a0:	6465                	lui	s0,0x19
    e7a2:	3320                	fld	fs0,96(a4)
    e7a4:	2d39                	jal	0xedc2
    e7a6:	6962                	flw	fs2,24(sp)
    e7a8:	2074                	fld	fa3,192(s0)
    e7aa:	6956                	flw	fs2,84(sp)
    e7ac:	7472                	flw	fs0,60(sp)
    e7ae:	6175                	addi	sp,sp,368
    e7b0:	206c                	fld	fa1,192(s0)
    e7b2:	6441                	lui	s0,0x10
    e7b4:	7264                	flw	fs1,100(a2)
    e7b6:	7365                	lui	t1,0xffff9
    e7b8:	676e6973          	csrrsi	s2,0x676,28
    e7bc:	4d20                	lw	s0,88(a0)
    e7be:	0065646f          	jal	s0,0x647c4
    e7c2:	0000                	unimp
    e7c4:	0000                	unimp
    e7c6:	0000                	unimp
    e7c8:	6150                	flw	fa2,4(a0)
    e7ca:	622d6567          	0x622d6567
    e7ce:	7361                	lui	t1,0xffff8
    e7d0:	6465                	lui	s0,0x19
    e7d2:	3420                	fld	fs0,104(s0)
    e7d4:	2d38                	fld	fa4,88(a0)
    e7d6:	6962                	flw	fs2,24(sp)
    e7d8:	2074                	fld	fa3,192(s0)
    e7da:	6956                	flw	fs2,84(sp)
    e7dc:	7472                	flw	fs0,60(sp)
    e7de:	6175                	addi	sp,sp,368
    e7e0:	206c                	fld	fa1,192(s0)
    e7e2:	6441                	lui	s0,0x10
    e7e4:	7264                	flw	fs1,100(a2)
    e7e6:	7365                	lui	t1,0xffff9
    e7e8:	676e6973          	csrrsi	s2,0x676,28
    e7ec:	4d20                	lw	s0,88(a0)
    e7ee:	0065646f          	jal	s0,0x647f4
    e7f2:	0000                	unimp
    e7f4:	0000                	unimp
    e7f6:	0000                	unimp
    e7f8:	e770                	fsw	fa2,76(a4)
    e7fa:	8000                	0x8000
    e7fc:	0000                	unimp
    e7fe:	0000                	unimp
    e800:	e238                	fsw	fa4,64(a2)
    e802:	8000                	0x8000
    e804:	0000                	unimp
    e806:	0000                	unimp
    e808:	e238                	fsw	fa4,64(a2)
    e80a:	8000                	0x8000
    e80c:	0000                	unimp
    e80e:	0000                	unimp
    e810:	e238                	fsw	fa4,64(a2)
    e812:	8000                	0x8000
    e814:	0000                	unimp
    e816:	0000                	unimp
    e818:	e238                	fsw	fa4,64(a2)
    e81a:	8000                	0x8000
    e81c:	0000                	unimp
    e81e:	0000                	unimp
    e820:	e238                	fsw	fa4,64(a2)
    e822:	8000                	0x8000
    e824:	0000                	unimp
    e826:	0000                	unimp
    e828:	e238                	fsw	fa4,64(a2)
    e82a:	8000                	0x8000
    e82c:	0000                	unimp
    e82e:	0000                	unimp
    e830:	e238                	fsw	fa4,64(a2)
    e832:	8000                	0x8000
    e834:	0000                	unimp
    e836:	0000                	unimp
    e838:	e798                	fsw	fa4,8(a5)
    e83a:	8000                	0x8000
    e83c:	0000                	unimp
    e83e:	0000                	unimp
    e840:	e7c8                	fsw	fa0,12(a5)
    e842:	8000                	0x8000
    e844:	0000                	unimp
    e846:	0000                	unimp
    e848:	7872                	flw	fa6,60(sp)
    e84a:	665f 6669 206f      	0x206f6669665f
    e850:	3d21                	jal	0xe668
    e852:	5220                	lw	s0,96(a2)
    e854:	5f54                	lw	a3,60(a4)
    e856:	554e                	lw	a0,240(sp)
    e858:	4c4c                	lw	a1,28(s0)
    e85a:	0000                	unimp
    e85c:	0000                	unimp
    e85e:	0000                	unimp
    e860:	7872                	flw	fa6,60(sp)
    e862:	645f 616d 2120      	0x2120616d645f
    e868:	203d                	jal	0xe896
    e86a:	5452                	lw	s0,52(sp)
    e86c:	4e5f 4c55 004c      	0x4c4c554e5f
    e872:	0000                	unimp
    e874:	0000                	unimp
    e876:	0000                	unimp
    e878:	7874                	flw	fa3,116(s0)
    e87a:	665f 6669 206f      	0x206f6669665f
    e880:	3d21                	jal	0xe698
    e882:	5220                	lw	s0,96(a2)
    e884:	5f54                	lw	a3,60(a4)
    e886:	554e                	lw	a0,240(sp)
    e888:	4c4c                	lw	a1,28(s0)
    e88a:	0000                	unimp
    e88c:	0000                	unimp
    e88e:	0000                	unimp
    e890:	7874                	flw	fa3,116(s0)
    e892:	645f 616d 2120      	0x2120616d645f
    e898:	203d                	jal	0xe8c6
    e89a:	5452                	lw	s0,52(sp)
    e89c:	4e5f 4c55 004c      	0x4c4c554e5f
    e8a2:	0000                	unimp
    e8a4:	0000                	unimp
    e8a6:	0000                	unimp
    e8a8:	7874                	flw	fa3,116(s0)
    e8aa:	2120                	fld	fs0,64(a0)
    e8ac:	203d                	jal	0xe8da
    e8ae:	5452                	lw	s0,52(sp)
    e8b0:	4e5f 4c55 004c      	0x4c4c554e5f
    e8b6:	0000                	unimp
    e8b8:	7328                	flw	fa0,96(a4)
    e8ba:	7265                	lui	tp,0xffff9
    e8bc:	6169                	addi	sp,sp,208
    e8be:	206c                	fld	fa1,192(s0)
    e8c0:	3d21                	jal	0xe6d8
    e8c2:	5220                	lw	s0,96(a2)
    e8c4:	5f54                	lw	a3,60(a4)
    e8c6:	554e                	lw	a0,240(sp)
    e8c8:	4c4c                	lw	a1,28(s0)
    e8ca:	2029                	jal	0xe8d4
    e8cc:	2626                	fld	fa2,72(sp)
    e8ce:	2820                	fld	fs0,80(s0)
    e8d0:	6164                	flw	fs1,68(a0)
    e8d2:	6174                	flw	fa3,68(a0)
    e8d4:	2120                	fld	fs0,64(a0)
    e8d6:	203d                	jal	0xe904
    e8d8:	5452                	lw	s0,52(sp)
    e8da:	4e5f 4c55 294c      	0x294c4c554e5f
	...
    e8e8:	69726573          	csrrsi	a0,0x697,4
    e8ec:	6c61                	lui	s8,0x18
    e8ee:	3e2d                	jal	0xe428
    e8f0:	2d73706f          	j	0x463c6
    e8f4:	643e                	flw	fs0,204(sp)
    e8f6:	616d                	addi	sp,sp,240
    e8f8:	745f 6172 736e      	0x736e6172745f
    e8fe:	696d                	lui	s2,0x1b
    e900:	2074                	fld	fa3,192(s0)
    e902:	3d21                	jal	0xe71a
    e904:	5220                	lw	s0,96(a2)
    e906:	5f54                	lw	a3,60(a4)
    e908:	554e                	lw	a0,240(sp)
    e90a:	4c4c                	lw	a1,28(s0)
    e90c:	0000                	unimp
    e90e:	0000                	unimp
    e910:	656c                	flw	fa1,76(a0)
    e912:	206e                	fld	ft0,216(sp)
    e914:	3d3c                	fld	fa5,120(a0)
    e916:	7220                	flw	fs0,96(a2)
    e918:	5f74                	lw	a3,124(a4)
    e91a:	6d64                	flw	fs1,92(a0)
    e91c:	5f61                	li	t5,-8
    e91e:	636c6163          	bltu	s8,s6,0xef40
    e922:	725f 6365 6576      	0x65766365725f
    e928:	5f64                	lw	s1,124(a4)
    e92a:	656c                	flw	fa1,76(a0)
    e92c:	286e                	fld	fa6,216(sp)
    e92e:	69726573          	csrrsi	a0,0x697,4
    e932:	6c61                	lui	s8,0x18
    e934:	0029                	c.nop	10
    e936:	0000                	unimp
    e938:	735f 7265 6169      	0x61697265735f
    e93e:	5f6c                	lw	a1,124(a4)
    e940:	6e69                	lui	t3,0x1a
    e942:	5f74                	lw	a3,124(a4)
    e944:	7872                	flw	fa6,60(sp)
    e946:	0000                	unimp
    e948:	735f 7265 6169      	0x61697265735f
    e94e:	5f6c                	lw	a1,124(a4)
    e950:	6e69                	lui	t3,0x1a
    e952:	5f74                	lw	a3,124(a4)
    e954:	7874                	flw	fa3,116(s0)
    e956:	0000                	unimp
    e958:	735f 7265 6169      	0x61697265735f
    e95e:	5f6c                	lw	a1,124(a4)
    e960:	6966                	flw	fs2,88(sp)
    e962:	6f66                	flw	ft10,88(sp)
    e964:	635f 6c61 5f63      	0x5f636c61635f
    e96a:	6572                	flw	fa0,28(sp)
    e96c:	64657663          	bgeu	a0,t1,0xefb8
    e970:	6c5f 6e65 0000      	0x6e656c5f
    e976:	0000                	unimp
    e978:	7472                	flw	fs0,60(sp)
    e97a:	645f 616d 725f      	0x725f616d645f
    e980:	6365                	lui	t1,0x19
    e982:	5f76                	lw	t5,124(sp)
    e984:	7075                	c.lui	zero,0xffffd
    e986:	6164                	flw	fs1,68(a0)
    e988:	6574                	flw	fa3,76(a0)
    e98a:	675f 7465 695f      	0x695f7465675f
    e990:	646e                	flw	fs0,216(sp)
    e992:	7865                	lui	a6,0xffff9
    e994:	0000                	unimp
    e996:	0000                	unimp
    e998:	735f 7265 6169      	0x61697265735f
    e99e:	5f6c                	lw	a1,124(a4)
    e9a0:	6d64                	flw	fs1,92(a0)
    e9a2:	5f61                	li	t5,-8
    e9a4:	7872                	flw	fa6,60(sp)
    e9a6:	0000                	unimp
    e9a8:	7472                	flw	fs0,60(sp)
    e9aa:	735f 7265 6169      	0x61697265735f
    e9b0:	5f6c                	lw	a1,124(a4)
    e9b2:	6e69                	lui	t3,0x1a
    e9b4:	7469                	lui	s0,0xffffa
    e9b6:	0000                	unimp
    e9b8:	7472                	flw	fs0,60(sp)
    e9ba:	735f 7265 6169      	0x61697265735f
    e9c0:	5f6c                	lw	a1,124(a4)
    e9c2:	6e65706f          	j	0x660a8
    e9c6:	0000                	unimp
    e9c8:	7472                	flw	fs0,60(sp)
    e9ca:	735f 7265 6169      	0x61697265735f
    e9d0:	5f6c                	lw	a1,124(a4)
    e9d2:	736f6c63          	bltu	t5,s6,0xf10a
    e9d6:	0065                	c.nop	25
    e9d8:	7472                	flw	fs0,60(sp)
    e9da:	735f 7265 6169      	0x61697265735f
    e9e0:	5f6c                	lw	a1,124(a4)
    e9e2:	6572                	flw	fa0,28(sp)
    e9e4:	6461                	lui	s0,0x18
    e9e6:	0000                	unimp
    e9e8:	7472                	flw	fs0,60(sp)
    e9ea:	735f 7265 6169      	0x61697265735f
    e9f0:	5f6c                	lw	a1,124(a4)
    e9f2:	74697277          	0x74697277
    e9f6:	0065                	c.nop	25
    e9f8:	7472                	flw	fs0,60(sp)
    e9fa:	735f 7265 6169      	0x61697265735f
    ea00:	5f6c                	lw	a1,124(a4)
    ea02:	746e6f63          	bltu	t3,t1,0xf160
    ea06:	6f72                	flw	ft10,28(sp)
    ea08:	006c                	addi	a1,sp,12
    ea0a:	0000                	unimp
    ea0c:	0000                	unimp
    ea0e:	0000                	unimp
    ea10:	7472                	flw	fs0,60(sp)
    ea12:	685f 5f77 6573      	0x65735f77685f
    ea18:	6972                	flw	fs2,28(sp)
    ea1a:	6c61                	lui	s8,0x18
    ea1c:	725f 6765 7369      	0x73696765725f
    ea22:	6574                	flw	fa3,76(a0)
    ea24:	0072                	c.slli	zero,0x1c
    ea26:	0000                	unimp
    ea28:	706d6f63          	bltu	s10,t1,0xf146
    ea2c:	656c                	flw	fa1,76(a0)
    ea2e:	6974                	flw	fa3,84(a0)
    ea30:	21206e6f          	jal	t3,0x14c42
    ea34:	203d                	jal	0xea62
    ea36:	5452                	lw	s0,52(sp)
    ea38:	4e5f 4c55 004c      	0x4c4c554e5f
    ea3e:	0000                	unimp
    ea40:	7472                	flw	fs0,60(sp)
    ea42:	6c5f 7369 5f74      	0x5f7473696c5f
    ea48:	7369                	lui	t1,0xffffa
    ea4a:	6d65                	lui	s10,0x19
    ea4c:	7470                	flw	fa2,108(s0)
    ea4e:	2879                	jal	0xeaec
    ea50:	2826                	fld	fa6,72(sp)
    ea52:	706d6f63          	bltu	s10,t1,0xf170
    ea56:	656c                	flw	fa1,76(a0)
    ea58:	6974                	flw	fa3,84(a0)
    ea5a:	3e2d6e6f          	jal	t3,0xe4e3c
    ea5e:	70737573          	csrrci	a0,0x707,6
    ea62:	6e65                	lui	t3,0x19
    ea64:	6564                	flw	fs1,76(a0)
    ea66:	5f64                	lw	s1,124(a4)
    ea68:	696c                	flw	fa1,84(a0)
    ea6a:	29297473          	csrrci	s0,0x292,18
    ea6e:	0000                	unimp
    ea70:	7472                	flw	fs0,60(sp)
    ea72:	635f 6d6f 6c70      	0x6c706d6f635f
    ea78:	7465                	lui	s0,0xffff9
    ea7a:	6f69                	lui	t5,0x1a
    ea7c:	5f6e                	lw	t5,248(sp)
    ea7e:	6e69                	lui	t3,0x1a
    ea80:	7469                	lui	s0,0xffffa
    ea82:	0000                	unimp
    ea84:	0000                	unimp
    ea86:	0000                	unimp
    ea88:	7472                	flw	fs0,60(sp)
    ea8a:	635f 6d6f 6c70      	0x6c706d6f635f
    ea90:	7465                	lui	s0,0xffff9
    ea92:	6f69                	lui	t5,0x1a
    ea94:	5f6e                	lw	t5,248(sp)
    ea96:	74696177          	0x74696177
    ea9a:	0000                	unimp
    ea9c:	0000                	unimp
    ea9e:	0000                	unimp
    eaa0:	7571                	lui	a0,0xffffc
    eaa2:	7565                	lui	a0,0xffff9
    eaa4:	2065                	jal	0xeb4c
    eaa6:	3d21                	jal	0xe8be
    eaa8:	5220                	lw	s0,96(a2)
    eaaa:	5f54                	lw	a3,60(a4)
    eaac:	554e                	lw	a0,240(sp)
    eaae:	4c4c                	lw	a1,28(s0)
	...
    eab8:	657a6973          	csrrsi	s2,0x657,20
    eabc:	3e20                	fld	fs0,120(a2)
    eabe:	3020                	fld	fs0,96(s0)
	...
    eac8:	7571                	lui	a0,0xffffc
    eaca:	7565                	lui	a0,0xffff9
    eacc:	2d65                	jal	0xf184
    eace:	6d3e                	flw	fs10,204(sp)
    ead0:	6761                	lui	a4,0x18
    ead2:	6369                	lui	t1,0x1a
    ead4:	3d20                	fld	fs0,120(a0)
    ead6:	203d                	jal	0xeb04
    ead8:	4144                	lw	s1,4(a0)
    eada:	4154                	lw	a3,4(a0)
    eadc:	5551                	li	a0,-12
    eade:	5545                	li	a0,-15
    eae0:	5f45                	li	t5,-15
    eae2:	414d                	li	sp,19
    eae4:	00434947          	fmsub.s	fs2,ft6,ft4,ft0,rmm
    eae8:	7472                	flw	fs0,60(sp)
    eaea:	645f 7461 5f61      	0x5f617461645f
    eaf0:	7571                	lui	a0,0xffffc
    eaf2:	7565                	lui	a0,0xffff9
    eaf4:	5f65                	li	t5,-7
    eaf6:	6e69                	lui	t3,0x1a
    eaf8:	7469                	lui	s0,0xffffa
    eafa:	0000                	unimp
    eafc:	0000                	unimp
    eafe:	0000                	unimp
    eb00:	7472                	flw	fs0,60(sp)
    eb02:	645f 7461 5f61      	0x5f617461645f
    eb08:	7571                	lui	a0,0xffffc
    eb0a:	7565                	lui	a0,0xffff9
    eb0c:	5f65                	li	t5,-7
    eb0e:	7570                	flw	fa2,108(a0)
    eb10:	00006873          	csrrsi	a6,ustatus,0
    eb14:	0000                	unimp
    eb16:	0000                	unimp
    eb18:	7472                	flw	fs0,60(sp)
    eb1a:	645f 7461 5f61      	0x5f617461645f
    eb20:	7571                	lui	a0,0xffffc
    eb22:	7565                	lui	a0,0xffff9
    eb24:	5f65                	li	t5,-7
    eb26:	6572                	flw	fa0,28(sp)
    eb28:	00746573          	csrrsi	a0,0x7,8
    eb2c:	0000                	unimp
    eb2e:	0000                	unimp
    eb30:	7472                	flw	fs0,60(sp)
    eb32:	645f 7461 5f61      	0x5f617461645f
    eb38:	7571                	lui	a0,0xffffc
    eb3a:	7565                	lui	a0,0xffff9
    eb3c:	5f65                	li	t5,-7
    eb3e:	6564                	flw	fs1,76(a0)
    eb40:	6e69                	lui	t3,0x1a
    eb42:	7469                	lui	s0,0xffffa
    eb44:	0000                	unimp
    eb46:	0000                	unimp
    eb48:	685f 5f77 6970      	0x69705f77685f
    eb4e:	2e6e                	fld	ft8,216(sp)
    eb50:	2073706f          	j	0x46556
    eb54:	3d21                	jal	0xe96c
    eb56:	5220                	lw	s0,96(a2)
    eb58:	5f54                	lw	a3,60(a4)
    eb5a:	554e                	lw	a0,240(sp)
    eb5c:	4c4c                	lw	a1,28(s0)
    eb5e:	0000                	unimp
    eb60:	616e                	flw	ft2,216(sp)
    eb62:	656d                	lui	a0,0x1b
    eb64:	205d305b          	0x205d305b
    eb68:	3d3d                	jal	0xe9a6
    eb6a:	2720                	fld	fs0,72(a4)
    eb6c:	2750                	fld	fa2,136(a4)
    eb6e:	0000                	unimp
    eb70:	7472                	flw	fs0,60(sp)
    eb72:	705f 6e69 6d5f      	0x6d5f6e69705f
    eb78:	0065646f          	jal	s0,0x64b7e
    eb7c:	0000                	unimp
    eb7e:	0000                	unimp
    eb80:	7472                	flw	fs0,60(sp)
    eb82:	705f 6e69 775f      	0x775f6e69705f
    eb88:	6972                	flw	fs2,28(sp)
    eb8a:	6574                	flw	fa3,76(a0)
    eb8c:	0000                	unimp
    eb8e:	0000                	unimp
    eb90:	7472                	flw	fs0,60(sp)
    eb92:	705f 6e69 725f      	0x725f6e69705f
    eb98:	6165                	addi	sp,sp,112
    eb9a:	0064                	addi	s1,sp,12
    eb9c:	0000                	unimp
    eb9e:	0000                	unimp
    eba0:	7472                	flw	fs0,60(sp)
    eba2:	705f 6e69 675f      	0x675f6e69705f
    eba8:	7465                	lui	s0,0xffff9
    ebaa:	0000                	unimp
    ebac:	0000                	unimp
    ebae:	0000                	unimp
    ebb0:	20746567          	0x20746567
    ebb4:	6970                	flw	fa2,84(a0)
    ebb6:	206e                	fld	ft0,216(sp)
    ebb8:	756e                	flw	fa0,248(sp)
    ebba:	626d                	lui	tp,0x1b
    ebbc:	7265                	lui	tp,0xffff9
    ebbe:	6620                	flw	fs0,72(a2)
    ebc0:	6f72                	flw	ft10,28(sp)
    ebc2:	206d                	jal	0xec6c
    ebc4:	6168                	flw	fa0,68(a0)
    ebc6:	6472                	flw	fs0,28(sp)
    ebc8:	65726177          	0x65726177
    ebcc:	7020                	flw	fs0,96(s0)
    ebce:	6e69                	lui	t3,0x1a
	...
    ebd8:	6970                	flw	fa2,84(a0)
    ebda:	476e                	lw	a4,216(sp)
    ebdc:	7465                	lui	s0,0xffff9
    ebde:	0000                	unimp
    ebe0:	6572                	flw	fa0,28(sp)
    ebe2:	6461                	lui	s0,0x18
    ebe4:	7320                	flw	fs0,96(a4)
    ebe6:	6174                	flw	fa3,68(a0)
    ebe8:	7574                	flw	fa3,108(a0)
    ebea:	72662073          	csrs	0x726,a2
    ebee:	68206d6f          	jal	s10,0x15270
    ebf2:	7261                	lui	tp,0xffff8
    ebf4:	7764                	flw	fs1,108(a4)
    ebf6:	7261                	lui	tp,0xffff8
    ebf8:	2065                	jal	0xeca0
    ebfa:	6970                	flw	fa2,84(a0)
    ebfc:	006e                	c.slli	zero,0x1b
    ebfe:	0000                	unimp
    ec00:	6970                	flw	fa2,84(a0)
    ec02:	526e                	lw	tp,248(sp)
    ec04:	6165                	addi	sp,sp,112
    ec06:	0064                	addi	s1,sp,12
    ec08:	74697277          	0x74697277
    ec0c:	2065                	jal	0xecb4
    ec0e:	6176                	flw	ft2,92(sp)
    ec10:	756c                	flw	fa1,108(a0)
    ec12:	2065                	jal	0xecba
    ec14:	6f74                	flw	fa3,92(a4)
    ec16:	6820                	flw	fs0,80(s0)
    ec18:	7261                	lui	tp,0xffff8
    ec1a:	7764                	flw	fs1,108(a4)
    ec1c:	7261                	lui	tp,0xffff8
    ec1e:	2065                	jal	0xecc6
    ec20:	6970                	flw	fa2,84(a0)
    ec22:	006e                	c.slli	zero,0x1b
    ec24:	0000                	unimp
    ec26:	0000                	unimp
    ec28:	6970                	flw	fa2,84(a0)
    ec2a:	576e                	lw	a4,248(sp)
    ec2c:	6972                	flw	fs2,28(sp)
    ec2e:	6574                	flw	fa3,76(a0)
	...
    ec38:	20746573          	csrrsi	a0,0x207,8
    ec3c:	6168                	flw	fa0,68(a0)
    ec3e:	6472                	flw	fs0,28(sp)
    ec40:	65726177          	0x65726177
    ec44:	7020                	flw	fs0,96(s0)
    ec46:	6e69                	lui	t3,0x1a
    ec48:	6d20                	flw	fs0,88(a0)
    ec4a:	0065646f          	jal	s0,0x64c50
    ec4e:	0000                	unimp
    ec50:	6970                	flw	fa2,84(a0)
    ec52:	4d6e                	lw	s10,216(sp)
    ec54:	0065646f          	jal	s0,0x64c5a
    ec58:	0000002f          	0x2f
    ec5c:	0000                	unimp
    ec5e:	0000                	unimp
    ec60:	6e65704f          	fnmadd.q	ft0,fa0,ft6,fa3
    ec64:	2520                	fld	fs0,72(a0)
    ec66:	61662073          	csrs	0x616,a2
    ec6a:	6c69                	lui	s8,0x1a
    ec6c:	6465                	lui	s0,0x19
    ec6e:	000a                	c.slli	zero,0x2
    ec70:	7325                	lui	t1,0xfffe9
    ec72:	0000                	unimp
    ec74:	0000                	unimp
    ec76:	0000                	unimp
    ec78:	6544                	flw	fs1,12(a0)
    ec7a:	656c                	flw	fa1,76(a0)
    ec7c:	6574                	flw	fa3,76(a0)
    ec7e:	2520                	fld	fs0,72(a0)
    ec80:	61662073          	csrs	0x616,a2
    ec84:	6c69                	lui	s8,0x1a
    ec86:	6465                	lui	s0,0x19
    ec88:	000a                	c.slli	zero,0x2
    ec8a:	0000                	unimp
    ec8c:	0000                	unimp
    ec8e:	0000                	unimp
    ec90:	2074756f          	jal	a0,0x56696
    ec94:	6d20666f          	jal	a2,0x15366
    ec98:	6d65                	lui	s10,0x19
    ec9a:	0a79726f          	jal	tp,0xa6540
    ec9e:	0000                	unimp
    eca0:	6552                	flw	fa0,20(sp)
    eca2:	6461                	lui	s0,0x18
    eca4:	2520                	fld	fs0,72(a0)
    eca6:	61662073          	csrs	0x616,a2
    ecaa:	6c69                	lui	s8,0x1a
    ecac:	6465                	lui	s0,0x19
    ecae:	000a                	c.slli	zero,0x2
    ecb0:	74697257          	0x74697257
    ecb4:	2065                	jal	0xed5c
    ecb6:	7325                	lui	t1,0xfffe9
    ecb8:	6620                	flw	fs0,72(a2)
    ecba:	6961                	lui	s2,0x18
    ecbc:	656c                	flw	fa1,76(a0)
    ecbe:	0a64                	addi	s1,sp,284
	...
    ecc8:	74697257          	0x74697257
    eccc:	2065                	jal	0xed74
    ecce:	6966                	flw	fs2,88(sp)
    ecd0:	656c                	flw	fa1,76(a0)
    ecd2:	6420                	flw	fs0,72(s0)
    ecd4:	7461                	lui	s0,0xffff8
    ecd6:	2061                	jal	0xed5e
    ecd8:	6166                	flw	ft2,88(sp)
    ecda:	6c69                	lui	s8,0x1a
    ecdc:	6465                	lui	s0,0x19
    ecde:	202c                	fld	fa1,64(s0)
    ece0:	7265                	lui	tp,0xffff9
    ece2:	6e72                	flw	ft8,28(sp)
    ece4:	64253d6f          	jal	s10,0x62326
    ece8:	000a                	c.slli	zero,0x2
    ecea:	0000                	unimp
    ecec:	0000                	unimp
    ecee:	0000                	unimp
    ecf0:	442f455b          	0x442f455b
    ecf4:	5346                	lw	t1,112(sp)
    ecf6:	205d                	jal	0xed9c
	...
    ed00:	276e6163          	bltu	t3,s6,0xef62
    ed04:	2074                	fld	fa3,192(s0)
    ed06:	6966                	flw	fs2,88(sp)
    ed08:	646e                	flw	fs0,216(sp)
    ed0a:	6d20                	flw	fs0,88(a0)
    ed0c:	746e756f          	jal	a0,0xf6452
    ed10:	6465                	lui	s0,0x19
    ed12:	6620                	flw	fs0,72(a2)
    ed14:	6c69                	lui	s8,0x1a
    ed16:	7365                	lui	t1,0xffff9
    ed18:	7379                	lui	t1,0xffffe
    ed1a:	6574                	flw	fa3,76(a0)
    ed1c:	206d                	jal	0xedc6
    ed1e:	74206e6f          	jal	t3,0x15460
    ed22:	6968                	flw	fa0,84(a0)
    ed24:	61702073          	csrr	zero,0x617
    ed28:	6874                	flw	fa3,84(s0)
    ed2a:	253a                	fld	fa0,392(sp)
    ed2c:	00000073          	ecall
    ed30:	6874                	flw	fa3,84(s0)
    ed32:	2065                	jal	0xedda
    ed34:	6966                	flw	fs2,88(sp)
    ed36:	656c                	flw	fa1,76(a0)
    ed38:	74737973          	csrrci	s2,0x747,6
    ed3c:	6d65                	lui	s10,0x19
    ed3e:	6420                	flw	fs0,72(s0)
    ed40:	6469                	lui	s0,0x1a
    ed42:	276e                	fld	fa4,216(sp)
    ed44:	2074                	fld	fa3,192(s0)
    ed46:	6d69                	lui	s10,0x1a
    ed48:	6c70                	flw	fa2,92(s0)
    ed4a:	6d65                	lui	s10,0x19
    ed4c:	6e65                	lui	t3,0x19
    ed4e:	2074                	fld	fa3,192(s0)
    ed50:	6874                	flw	fa3,84(s0)
    ed52:	7369                	lui	t1,0xffffa
    ed54:	6620                	flw	fs0,72(a2)
    ed56:	6e75                	lui	t3,0x1d
    ed58:	6f697463          	bgeu	s2,s6,0xf440
    ed5c:	006e                	c.slli	zero,0x1b
    ed5e:	0000                	unimp
    ed60:	6944                	flw	fs1,20(a0)
    ed62:	6572                	flw	fa0,28(sp)
    ed64:	726f7463          	bgeu	t5,t1,0xf48c
    ed68:	2079                	jal	0xedf6
    ed6a:	7325                	lui	t1,0xfffe9
    ed6c:	0a3a                	slli	s4,s4,0xe
    ed6e:	0000                	unimp
    ed70:	2d25                	jal	0xf3a8
    ed72:	3032                	fld	ft0,296(sp)
    ed74:	00000073          	ecall
    ed78:	443c                	lw	a5,72(s0)
    ed7a:	5249                	li	tp,-14
    ed7c:	003e                	c.slli	zero,0xf
    ed7e:	0000                	unimp
    ed80:	2d25                	jal	0xf3b8
    ed82:	3532                	fld	fa0,296(sp)
    ed84:	00000a73          	0xa73
    ed88:	2d25                	jal	0xf3c0
    ed8a:	3532                	fld	fa0,296(sp)
    ed8c:	756c                	flw	fa1,108(a0)
    ed8e:	000a                	c.slli	zero,0x2
    ed90:	4142                	lw	sp,16(sp)
    ed92:	2044                	fld	fs1,128(s0)
    ed94:	6966                	flw	fs2,88(sp)
    ed96:	656c                	flw	fa1,76(a0)
    ed98:	203a                	fld	ft0,392(sp)
    ed9a:	7325                	lui	t1,0xfffe9
    ed9c:	000a                	c.slli	zero,0x2
    ed9e:	0000                	unimp
    eda0:	6f4e                	flw	ft10,208(sp)
    eda2:	7320                	flw	fs0,96(a4)
    eda4:	6375                	lui	t1,0x1d
    eda6:	2068                	fld	fa0,192(s0)
    eda8:	6964                	flw	fs1,84(a0)
    edaa:	6572                	flw	fa0,28(sp)
    edac:	726f7463          	bgeu	t5,t1,0xf4d4
    edb0:	0a79                	addi	s4,s4,30
    edb2:	0000                	unimp
    edb4:	0000                	unimp
    edb6:	0000                	unimp
    edb8:	6e65706f          	j	0x6649e
    edbc:	2520                	fld	fs0,72(a0)
    edbe:	61662073          	csrs	0x616,a2
    edc2:	6c69                	lui	s8,0x1a
    edc4:	6465                	lui	s0,0x19
    edc6:	000a                	c.slli	zero,0x2
    edc8:	2e2e                	fld	ft8,200(sp)
    edca:	0000                	unimp
    edcc:	0000                	unimp
    edce:	0000                	unimp
    edd0:	2074756f          	jal	a0,0x567d6
    edd4:	6d20666f          	jal	a2,0x154a6
    edd8:	6d65                	lui	s10,0x19
    edda:	2179726f          	jal	tp,0xa67f0
    edde:	000a                	c.slli	zero,0x2
    ede0:	6e65706f          	j	0x664c6
    ede4:	6620                	flw	fs0,72(a2)
    ede6:	6c69                	lui	s8,0x1a
    ede8:	3a65                	jal	0xe7a0
    edea:	2520                	fld	fs0,72(a0)
    edec:	61662073          	csrs	0x616,a2
    edf0:	6c69                	lui	s8,0x1a
    edf2:	6465                	lui	s0,0x19
    edf4:	000a                	c.slli	zero,0x2
    edf6:	0000                	unimp
    edf8:	79706f63          	bltu	zero,s7,0xf596
    edfc:	6620                	flw	fs0,72(a2)
    edfe:	6961                	lui	s2,0x18
    ee00:	656c                	flw	fa1,76(a0)
    ee02:	2c64                	fld	fs1,216(s0)
    ee04:	6220                	flw	fs0,64(a2)
    ee06:	6461                	lui	s0,0x18
    ee08:	2520                	fld	fs0,72(a0)
    ee0a:	00000a73          	0xa73
    ee0e:	0000                	unimp
    ee10:	66207063          	bgeu	zero,sp,0xf470
    ee14:	6961                	lui	s2,0x18
    ee16:	646c                	flw	fa1,76(s0)
    ee18:	202c                	fld	fa1,64(s0)
    ee1a:	64207063          	bgeu	zero,sp,0xf45a
    ee1e:	7269                	lui	tp,0xffffa
    ee20:	7420                	flw	fs0,104(s0)
    ee22:	6966206f          	j	0x714b8
    ee26:	656c                	flw	fa1,76(a0)
    ee28:	6920                	flw	fs0,80(a0)
    ee2a:	6f6e2073          	csrs	0x6f6,t3
    ee2e:	2074                	fld	fa3,192(s0)
    ee30:	6570                	flw	fa2,76(a0)
    ee32:	6d72                	flw	fs10,28(sp)
    ee34:	7469                	lui	s0,0xffffa
    ee36:	6574                	flw	fa3,76(a0)
    ee38:	2164                	fld	fs1,192(a0)
    ee3a:	000a                	c.slli	zero,0x2
    ee3c:	0000                	unimp
    ee3e:	0000                	unimp
    ee40:	79706f63          	bltu	zero,s7,0xf5de
    ee44:	6620                	flw	fs0,72(a2)
    ee46:	6c69                	lui	s8,0x1a
    ee48:	2065                	jal	0xeef0
    ee4a:	6420726f          	jal	tp,0x1648c
    ee4e:	7269                	lui	tp,0xffffa
	...
    ee58:	79706f63          	bltu	zero,s7,0xf5f6
    ee5c:	0000                	unimp
    ee5e:	0000                	unimp
    ee60:	7270                	flw	fa2,100(a2)
    ee62:	6e69                	lui	t3,0x1a
    ee64:	2074                	fld	fa3,192(s0)
    ee66:	6966                	flw	fs2,88(sp)
    ee68:	656c                	flw	fa1,76(a0)
    ee6a:	0000                	unimp
    ee6c:	0000                	unimp
    ee6e:	0000                	unimp
    ee70:	00746163          	bltu	s0,t2,0xee72
    ee74:	0000                	unimp
    ee76:	0000                	unimp
    ee78:	6572                	flw	fa0,28(sp)
    ee7a:	6f6d                	lui	t5,0x1b
    ee7c:	6576                	flw	fa0,92(sp)
    ee7e:	6620                	flw	fs0,72(a2)
    ee80:	6c69                	lui	s8,0x1a
    ee82:	7365                	lui	t1,0xffff9
    ee84:	6f20                	flw	fs0,88(a4)
    ee86:	2072                	fld	ft0,280(sp)
    ee88:	6964                	flw	fs1,84(a0)
    ee8a:	6572                	flw	fa0,28(sp)
    ee8c:	726f7463          	bgeu	t5,t1,0xf5b4
    ee90:	6569                	lui	a0,0x1a
    ee92:	00000073          	ecall
    ee96:	0000                	unimp
    ee98:	6d72                	flw	fs10,28(sp)
    ee9a:	0000                	unimp
    ee9c:	0000                	unimp
    ee9e:	0000                	unimp
    eea0:	696c                	flw	fa1,84(a0)
    eea2:	64207473          	csrrci	s0,0x642,0
    eea6:	7269                	lui	tp,0xffffa
    eea8:	6365                	lui	t1,0x19
    eeaa:	6f74                	flw	fa3,92(a4)
    eeac:	7972                	flw	fs2,60(sp)
    eeae:	6320                	flw	fs0,64(a4)
    eeb0:	65746e6f          	jal	t3,0x55d06
    eeb4:	746e                	flw	fs0,248(sp)
    eeb6:	736c0073          	0x736c0073
    eeba:	0000                	unimp
    eebc:	0000                	unimp
    eebe:	0000                	unimp
    eec0:	6e616863          	bltu	sp,t1,0xf5b0
    eec4:	63206567          	0x63206567
    eec8:	7275                	lui	tp,0xffffd
    eeca:	6572                	flw	fa0,28(sp)
    eecc:	746e                	flw	fs0,248(sp)
    eece:	7720                	flw	fs0,104(a4)
    eed0:	696b726f          	jal	tp,0xc6566
    eed4:	676e                	flw	fa4,216(sp)
    eed6:	6420                	flw	fs0,72(s0)
    eed8:	7269                	lui	tp,0xffffa
    eeda:	6365                	lui	t1,0x19
    eedc:	6f74                	flw	fa3,92(a4)
    eede:	7972                	flw	fs2,60(sp)
	...
    eee8:	00006463          	bltu	zero,zero,0xeef0
    eeec:	0000                	unimp
    eeee:	0000                	unimp
    eef0:	61657263          	bgeu	a0,s6,0xf4f4
    eef4:	6574                	flw	fa3,76(a0)
    eef6:	6120                	flw	fs0,64(a0)
    eef8:	6420                	flw	fs0,72(s0)
    eefa:	7269                	lui	tp,0xffffa
    eefc:	6365                	lui	t1,0x19
    eefe:	6f74                	flw	fa3,92(a4)
    ef00:	7972                	flw	fs2,60(sp)
    ef02:	0000                	unimp
    ef04:	0000                	unimp
    ef06:	0000                	unimp
    ef08:	6b6d                	lui	s6,0x1b
    ef0a:	6964                	flw	fs1,84(a0)
    ef0c:	0072                	c.slli	zero,0x1c
    ef0e:	0000                	unimp
    ef10:	0000424b          	fnmsub.s	ft4,ft0,ft0,ft0,rmm
    ef14:	0000                	unimp
    ef16:	0000                	unimp
    ef18:	424d                	li	tp,19
    ef1a:	0000                	unimp
    ef1c:	0000                	unimp
    ef1e:	0000                	unimp
    ef20:	00004247          	fmsub.s	ft4,ft0,ft0,ft0,rmm
    ef24:	0000                	unimp
    ef26:	0000                	unimp
    ef28:	6854                	flw	fa3,20(s0)
    ef2a:	7265                	lui	tp,0xffff9
    ef2c:	2065                	jal	0xefd4
    ef2e:	7369                	lui	t1,0xffffa
    ef30:	6e20                	flw	fs0,88(a2)
    ef32:	7073206f          	j	0x41e38
    ef36:	6361                	lui	t1,0x18
    ef38:	2065                	jal	0xefe0
    ef3a:	6f74                	flw	fa3,92(a4)
    ef3c:	7220                	flw	fs0,96(a2)
    ef3e:	6765                	lui	a4,0x19
    ef40:	7369                	lui	t1,0xffffa
    ef42:	6574                	flw	fa3,76(a0)
    ef44:	2072                	fld	ft0,280(sp)
    ef46:	6874                	flw	fa3,84(s0)
    ef48:	7369                	lui	t1,0xffffa
    ef4a:	6620                	flw	fs0,72(a2)
    ef4c:	6c69                	lui	s8,0x1a
    ef4e:	2065                	jal	0xeff6
    ef50:	74737973          	csrrci	s2,0x747,6
    ef54:	6d65                	lui	s10,0x19
    ef56:	2820                	fld	fs0,80(s0)
    ef58:	7325                	lui	t1,0xfffe9
    ef5a:	2e29                	jal	0xf274
    ef5c:	0000                	unimp
    ef5e:	0000                	unimp
    ef60:	6170                	flw	fa2,68(a0)
    ef62:	6874                	flw	fa3,84(s0)
    ef64:	0000                	unimp
    ef66:	0000                	unimp
    ef68:	7665642f          	0x7665642f
    ef6c:	0000                	unimp
    ef6e:	0000                	unimp
    ef70:	6854                	flw	fa3,20(s0)
    ef72:	7265                	lui	tp,0xffff9
    ef74:	2065                	jal	0xf01c
    ef76:	7369                	lui	t1,0xffffa
    ef78:	6e20                	flw	fs0,88(a2)
    ef7a:	7073206f          	j	0x41e80
    ef7e:	6361                	lui	t1,0x18
    ef80:	2065                	jal	0xf028
    ef82:	6f74                	flw	fa3,92(a4)
    ef84:	6d20                	flw	fs0,88(a0)
    ef86:	746e756f          	jal	a0,0xf66cc
    ef8a:	7420                	flw	fs0,104(s0)
    ef8c:	6968                	flw	fa0,84(a0)
    ef8e:	69662073          	csrs	0x696,a2
    ef92:	656c                	flw	fa1,76(a0)
    ef94:	7320                	flw	fs0,96(a4)
    ef96:	7379                	lui	t1,0xffffe
    ef98:	6574                	flw	fa3,76(a0)
    ef9a:	206d                	jal	0xf044
    ef9c:	2528                	fld	fa0,72(a0)
    ef9e:	002e2973          	csrrs	s2,frm,t3
    efa2:	0000                	unimp
    efa4:	0000                	unimp
    efa6:	0000                	unimp
    efa8:	6544                	flw	fs1,12(a0)
    efaa:	6976                	flw	fs2,92(sp)
    efac:	28206563          	bltu	zero,sp,0xf236
    efb0:	7325                	lui	t1,0xfffe9
    efb2:	2029                	jal	0xefbc
    efb4:	20736177          	0x20736177
    efb8:	6f6e                	flw	ft10,216(sp)
    efba:	2074                	fld	fa3,192(s0)
    efbc:	6f66                	flw	ft10,88(sp)
    efbe:	6e75                	lui	t3,0x1d
    efc0:	0064                	addi	s1,sp,12
    efc2:	0000                	unimp
    efc4:	0000                	unimp
    efc6:	0000                	unimp
    efc8:	6946                	flw	fs2,80(sp)
    efca:	656c                	flw	fa1,76(a0)
    efcc:	7320                	flw	fs0,96(a4)
    efce:	7379                	lui	t1,0xffffe
    efd0:	6574                	flw	fa3,76(a0)
    efd2:	206d                	jal	0xf07c
    efd4:	2528                	fld	fa0,72(a0)
    efd6:	77202973          	csrr	s2,0x772
    efda:	7361                	lui	t1,0xffff8
    efdc:	6e20                	flw	fs0,88(a2)
    efde:	6620746f          	jal	s0,0x16640
    efe2:	646e756f          	jal	a0,0xf6628
    efe6:	002e                	c.slli	zero,0xb
    efe8:	6854                	flw	fa3,20(s0)
    efea:	2065                	jal	0xf092
    efec:	6966                	flw	fs2,88(sp)
    efee:	656c                	flw	fa1,76(a0)
    eff0:	7320                	flw	fs0,96(a4)
    eff2:	7379                	lui	t1,0xffffe
    eff4:	6574                	flw	fa3,76(a0)
    eff6:	206d                	jal	0xf0a0
    eff8:	2528                	fld	fa0,72(a0)
    effa:	6d202973          	csrr	s2,0x6d2
    effe:	2073666b          	0x2073666b
    f002:	7566                	flw	fa0,120(sp)
    f004:	636e                	flw	ft6,216(sp)
    f006:	6974                	flw	fa3,84(a0)
    f008:	77206e6f          	jal	t3,0x1577a
    f00c:	7361                	lui	t1,0xffff8
    f00e:	6e20                	flw	fs0,88(a2)
    f010:	6920746f          	jal	s0,0x166a2
    f014:	706d                	c.lui	zero,0xffffb
    f016:	656c                	flw	fa1,76(a0)
    f018:	656d                	lui	a0,0x1b
    f01a:	746e                	flw	fs0,248(sp)
    f01c:	0000                	unimp
    f01e:	0000                	unimp
    f020:	6664                	flw	fs1,76(a2)
    f022:	74735f73          	csrrwi	t5,0x747,6
    f026:	7461                	lui	s0,0xffff8
    f028:	7366                	flw	ft6,120(sp)
    f02a:	6620                	flw	fs0,72(a2)
    f02c:	6961                	lui	s2,0x18
    f02e:	656c                	flw	fa1,76(a0)
    f030:	2e64                	fld	fs1,216(a2)
    f032:	000a                	c.slli	zero,0x2
    f034:	0000                	unimp
    f036:	0000                	unimp
    f038:	6964                	flw	fs1,84(a0)
    f03a:	66206b73          	csrrsi	s6,0x662,0
    f03e:	6572                	flw	fa0,28(sp)
    f040:	3a65                	jal	0xe9f8
    f042:	2520                	fld	fs0,72(a0)
    f044:	2e64                	fld	fs1,216(a2)
    f046:	6425                	lui	s0,0x9
    f048:	2520                	fld	fs0,72(a0)
    f04a:	205b2073          	csrs	htvec,s6
    f04e:	6425                	lui	s0,0x9
    f050:	6220                	flw	fs0,64(a2)
    f052:	6f6c                	flw	fa1,92(a4)
    f054:	202c6b63          	bltu	s8,sp,0xf26a
    f058:	6425                	lui	s0,0x9
    f05a:	6220                	flw	fs0,64(a2)
    f05c:	7479                	lui	s0,0xffffe
    f05e:	7365                	lui	t1,0xffff9
    f060:	7020                	flw	fs0,96(s0)
    f062:	7265                	lui	tp,0xffff9
    f064:	6220                	flw	fs0,64(a2)
    f066:	6f6c                	flw	fa1,92(a4)
    f068:	5d206b63          	bltu	zero,s2,0xf63e
    f06c:	000a                	c.slli	zero,0x2
    f06e:	0000                	unimp
    f070:	6664                	flw	fs1,76(a2)
    f072:	69665f73          	csrrwi	t5,0x696,12
    f076:	656c                	flw	fa1,76(a0)
    f078:	74737973          	csrrci	s2,0x747,6
    f07c:	6d65                	lui	s10,0x19
    f07e:	6c5f 6f6f 756b      	0x756b6f6f6c5f
    f084:	0070                	addi	a2,sp,12
    f086:	0000                	unimp
    f088:	20746567          	0x20746567
    f08c:	6964                	flw	fs1,84(a0)
    f08e:	66206b73          	csrrsi	s6,0x662,0
    f092:	6572                	flw	fa0,28(sp)
    f094:	0065                	c.nop	25
    f096:	0000                	unimp
    f098:	6664                	flw	fs1,76(a2)
    f09a:	0000                	unimp
    f09c:	0000                	unimp
    f09e:	0000                	unimp
    f0a0:	616d                	addi	sp,sp,240
    f0a2:	6120656b          	0x6120656b
    f0a6:	6620                	flw	fs0,72(a2)
    f0a8:	6c69                	lui	s8,0x1a
    f0aa:	2065                	jal	0xf152
    f0ac:	74737973          	csrrci	s2,0x747,6
    f0b0:	6d65                	lui	s10,0x19
    f0b2:	0000                	unimp
    f0b4:	0000                	unimp
    f0b6:	0000                	unimp
    f0b8:	6b6d                	lui	s6,0x1b
    f0ba:	7366                	flw	ft6,120(sp)
    f0bc:	0000                	unimp
    f0be:	0000                	unimp
    f0c0:	6466                	flw	fs0,88(sp)
    f0c2:	7420                	flw	fs0,104(s0)
    f0c4:	7079                	c.lui	zero,0xffffe
    f0c6:	2065                	jal	0xf16e
    f0c8:	2020                	fld	fs0,64(s0)
    f0ca:	7220                	flw	fs0,96(a2)
    f0cc:	6665                	lui	a2,0x19
    f0ce:	6d20                	flw	fs0,88(a0)
    f0d0:	6761                	lui	a4,0x18
    f0d2:	6369                	lui	t1,0x1a
    f0d4:	2020                	fld	fs0,64(s0)
    f0d6:	6170                	flw	fa2,68(a0)
    f0d8:	6874                	flw	fa3,84(s0)
    f0da:	000a                	c.slli	zero,0x2
    f0dc:	0000                	unimp
    f0de:	0000                	unimp
    f0e0:	2d2d                	jal	0xf71a
    f0e2:	2d20                	fld	fs0,88(a0)
    f0e4:	2d2d                	jal	0xf71e
    f0e6:	2d2d                	jal	0xf720
    f0e8:	202d                	jal	0xf112
    f0ea:	2d20                	fld	fs0,88(a0)
    f0ec:	2d2d                	jal	0xf726
    f0ee:	2d20                	fld	fs0,88(a0)
    f0f0:	2d2d                	jal	0xf72a
    f0f2:	2d2d                	jal	0xf72c
    f0f4:	2d20                	fld	fs0,88(a0)
    f0f6:	2d2d                	jal	0xf730
    f0f8:	2d2d                	jal	0xf732
    f0fa:	0a2d                	addi	s4,s4,11
    f0fc:	0000                	unimp
    f0fe:	0000                	unimp
    f100:	3225                	jal	0xea28
    f102:	2064                	fld	fs1,192(s0)
    f104:	0000                	unimp
    f106:	0000                	unimp
    f108:	6964                	flw	fs1,84(a0)
    f10a:	0072                	c.slli	zero,0x1c
    f10c:	0000                	unimp
    f10e:	0000                	unimp
    f110:	2d25                	jal	0xf748
    f112:	73372e37          	lui	t3,0x73372
    f116:	0020                	addi	s0,sp,8
    f118:	6966                	flw	fs2,88(sp)
    f11a:	656c                	flw	fa1,76(a0)
    f11c:	0000                	unimp
    f11e:	0000                	unimp
    f120:	6b636f73          	csrrsi	t5,0x6b6,6
    f124:	7465                	lui	s0,0xffff9
    f126:	0000                	unimp
    f128:	7375                	lui	t1,0xffffd
    f12a:	7265                	lui	tp,0xffff9
    f12c:	0000                	unimp
    f12e:	0000                	unimp
    f130:	6564                	flw	fs1,76(a0)
    f132:	6976                	flw	fs2,92(sp)
    f134:	00006563          	bltu	zero,zero,0xf13e
    f138:	6e75                	lui	t3,0x1d
    f13a:	776f6e6b          	0x776f6e6b
    f13e:	006e                	c.slli	zero,0x1b
    f140:	2d25                	jal	0xf778
    f142:	2e38                	fld	fa4,88(a2)
    f144:	7338                	flw	fa4,96(a4)
    f146:	0020                	addi	s0,sp,8
    f148:	3325                	jal	0xee70
    f14a:	2064                	fld	fs1,192(s0)
    f14c:	0000                	unimp
    f14e:	0000                	unimp
    f150:	3025                	jal	0xe978
    f152:	7834                	flw	fa3,112(s0)
    f154:	2020                	fld	fs0,64(s0)
    f156:	0000                	unimp
    f158:	6664                	flw	fs1,76(a2)
    f15a:	6c612073          	csrs	0x6c6,sp
    f15e:	6572                	flw	fa0,28(sp)
    f160:	6461                	lui	s0,0x18
    f162:	2079                	jal	0xf1f0
    f164:	6e69                	lui	t3,0x1a
    f166:	7469                	lui	s0,0xffffa
    f168:	0a2e                	slli	s4,s4,0xb
    f16a:	0000                	unimp
    f16c:	0000                	unimp
    f16e:	0000                	unimp
    f170:	7366                	flw	ft6,120(sp)
    f172:	6f6c                	flw	fa1,92(a4)
    f174:	00006b63          	bltu	zero,zero,0xf18a
    f178:	6564                	flw	fs1,76(a0)
    f17a:	6676                	flw	fa2,92(sp)
    f17c:	00000073          	ecall
    f180:	4644                	lw	s1,12(a2)
    f182:	64662053          	0x64662053
    f186:	6e20                	flw	fs0,88(a2)
    f188:	7765                	lui	a4,0xffff9
    f18a:	6920                	flw	fs0,80(a0)
    f18c:	61662073          	csrs	0x616,a2
    f190:	6c69                	lui	s8,0x1a
    f192:	6465                	lui	s0,0x19
    f194:	2021                	jal	0xf19c
    f196:	6c756f43          	0x6c756f43
    f19a:	2064                	fld	fs1,192(s0)
    f19c:	6f6e                	flw	ft10,216(sp)
    f19e:	2074                	fld	fa3,192(s0)
    f1a0:	6f66                	flw	ft10,88(sp)
    f1a2:	6e75                	lui	t3,0x1d
    f1a4:	2064                	fld	fs1,192(s0)
    f1a6:	6e61                	lui	t3,0x18
    f1a8:	6520                	flw	fs0,72(a0)
    f1aa:	706d                	c.lui	zero,0xffffb
    f1ac:	7974                	flw	fa3,116(a0)
    f1ae:	6620                	flw	fs0,72(a2)
    f1b0:	2064                	fld	fs1,192(s0)
    f1b2:	6e65                	lui	t3,0x19
    f1b4:	7274                	flw	fa3,100(a2)
    f1b6:	2e79                	jal	0xf554
	...
    f1c0:	6466                	flw	fs0,88(sp)
    f1c2:	2120                	fld	fs0,64(a0)
    f1c4:	203d                	jal	0xf1f2
    f1c6:	554e                	lw	a0,240(sp)
    f1c8:	4c4c                	lw	a1,28(s0)
    f1ca:	0000                	unimp
    f1cc:	0000                	unimp
    f1ce:	0000                	unimp
    f1d0:	6966                	flw	fs2,88(sp)
    f1d2:	656c                	flw	fa1,76(a0)
    f1d4:	616e                	flw	ft2,216(sp)
    f1d6:	656d                	lui	a0,0x1b
    f1d8:	2120                	fld	fs0,64(a0)
    f1da:	203d                	jal	0xf208
    f1dc:	554e                	lw	a0,240(sp)
    f1de:	4c4c                	lw	a1,28(s0)
	...
    f1e8:	7325                	lui	t1,0xfffe9
    f1ea:	0073252f          	amoadd.w	a0,t2,(t1)
    f1ee:	0000                	unimp
    f1f0:	6664                	flw	fs1,76(a2)
    f1f2:	6f6c5f73          	csrrwi	t5,0x6f6,24
    f1f6:	00006b63          	bltu	zero,zero,0xf20c
    f1fa:	0000                	unimp
    f1fc:	0000                	unimp
    f1fe:	0000                	unimp
    f200:	6664                	flw	fs1,76(a2)
    f202:	6f6e5f73          	csrrwi	t5,0x6f6,28
    f206:	6d72                	flw	fs10,28(sp)
    f208:	6c61                	lui	s8,0x18
    f20a:	7a69                	lui	s4,0xffffa
    f20c:	5f65                	li	t5,-7
    f20e:	6170                	flw	fa2,68(a0)
    f210:	6874                	flw	fa3,84(s0)
    f212:	0000                	unimp
    f214:	0000                	unimp
    f216:	0000                	unimp
    f218:	696c                	flw	fa1,84(a0)
    f21a:	66207473          	csrrci	s0,0x662,0
    f21e:	6c69                	lui	s8,0x1a
    f220:	2065                	jal	0xf2c8
    f222:	6564                	flw	fs1,76(a0)
    f224:	69726373          	csrrsi	t1,0x697,4
    f228:	7470                	flw	fa2,108(s0)
    f22a:	0000726f          	jal	tp,0x1622a
    f22e:	0000                	unimp
    f230:	5f5f 6d63 5f64      	0x5f646d635f5f
    f236:	696c                	flw	fa1,84(a0)
    f238:	665f7473          	csrrci	s0,0x665,30
    f23c:	0064                	addi	s1,sp,12
    f23e:	0000                	unimp
    f240:	6966                	flw	fs2,88(sp)
    f242:	656c                	flw	fa1,76(a0)
    f244:	2120                	fld	fs0,64(a0)
    f246:	203d                	jal	0xf274
    f248:	5452                	lw	s0,52(sp)
    f24a:	4e5f 4c55 004c      	0x4c4c554e5f
    f250:	6564                	flw	fs1,76(a0)
    f252:	5f76                	lw	t5,124(sp)
    f254:	6469                	lui	s0,0x1a
    f256:	2120                	fld	fs0,64(a0)
    f258:	203d                	jal	0xf286
    f25a:	5452                	lw	s0,52(sp)
    f25c:	4e5f 4c55 004c      	0x4c4c554e5f
    f262:	0000                	unimp
    f264:	0000                	unimp
    f266:	0000                	unimp
    f268:	6f72                	flw	ft10,28(sp)
    f26a:	645f746f          	jal	s0,0x1070ae
    f26e:	7269                	lui	tp,0xffffa
    f270:	6e65                	lui	t3,0x19
    f272:	2074                	fld	fa3,192(s0)
    f274:	3d21                	jal	0xf08c
    f276:	5220                	lw	s0,96(a2)
    f278:	5f54                	lw	a3,60(a4)
    f27a:	554e                	lw	a0,240(sp)
    f27c:	4c4c                	lw	a1,28(s0)
    f27e:	0000                	unimp
    f280:	6664                	flw	fs1,76(a2)
    f282:	65645f73          	csrrwi	t5,0x656,8
    f286:	6976                	flw	fs2,92(sp)
    f288:	665f6563          	bltu	t5,t0,0xf8f2
    f28c:	6f695f73          	csrrwi	t5,0x6f6,18
    f290:	006c7463          	bgeu	s8,t1,0xf298
    f294:	0000                	unimp
    f296:	0000                	unimp
    f298:	6664                	flw	fs1,76(a2)
    f29a:	65645f73          	csrrwi	t5,0x656,8
    f29e:	6976                	flw	fs2,92(sp)
    f2a0:	665f6563          	bltu	t5,t0,0xf90a
    f2a4:	65725f73          	csrrwi	t5,0x657,4
    f2a8:	6461                	lui	s0,0x18
    f2aa:	0000                	unimp
    f2ac:	0000                	unimp
    f2ae:	0000                	unimp
    f2b0:	6664                	flw	fs1,76(a2)
    f2b2:	65645f73          	csrrwi	t5,0x656,8
    f2b6:	6976                	flw	fs2,92(sp)
    f2b8:	665f6563          	bltu	t5,t0,0xf922
    f2bc:	72775f73          	csrrwi	t5,0x727,14
    f2c0:	7469                	lui	s0,0xffffa
    f2c2:	0065                	c.nop	25
    f2c4:	0000                	unimp
    f2c6:	0000                	unimp
    f2c8:	6664                	flw	fs1,76(a2)
    f2ca:	65645f73          	csrrwi	t5,0x656,8
    f2ce:	6976                	flw	fs2,92(sp)
    f2d0:	665f6563          	bltu	t5,t0,0xf93a
    f2d4:	6c635f73          	csrrwi	t5,0x6c6,6
    f2d8:	0065736f          	jal	t1,0x662de
    f2dc:	0000                	unimp
    f2de:	0000                	unimp
    f2e0:	6664                	flw	fs1,76(a2)
    f2e2:	65645f73          	csrrwi	t5,0x656,8
    f2e6:	6976                	flw	fs2,92(sp)
    f2e8:	665f6563          	bltu	t5,t0,0xf952
    f2ec:	706f5f73          	csrrwi	t5,0x706,30
    f2f0:	6e65                	lui	t3,0x19
    f2f2:	0000                	unimp
    f2f4:	0000                	unimp
    f2f6:	0000                	unimp
    f2f8:	6664                	flw	fs1,76(a2)
    f2fa:	65645f73          	csrrwi	t5,0x656,8
    f2fe:	6976                	flw	fs2,92(sp)
    f300:	665f6563          	bltu	t5,t0,0xf96a
    f304:	65675f73          	csrrwi	t5,0x656,14
    f308:	6474                	flw	fa3,76(s0)
    f30a:	6e65                	lui	t3,0x19
    f30c:	7374                	flw	fa3,100(a4)
    f30e:	0000                	unimp
    f310:	98e4                	0x98e4
    f312:	8000                	0x8000
    f314:	0000                	unimp
    f316:	0000                	unimp
    f318:	978c                	0x978c
    f31a:	8000                	0x8000
    f31c:	0000                	unimp
    f31e:	0000                	unimp
    f320:	94b8                	0x94b8
    f322:	8000                	0x8000
    f324:	0000                	unimp
    f326:	0000                	unimp
    f328:	9540                	0x9540
    f32a:	8000                	0x8000
    f32c:	0000                	unimp
    f32e:	0000                	unimp
    f330:	95e0                	0x95e0
    f332:	8000                	0x8000
	...
    f348:	9680                	0x9680
    f34a:	8000                	0x8000
    f34c:	0000                	unimp
    f34e:	0000                	unimp
    f350:	94b0                	0x94b0
    f352:	8000                	0x8000
    f354:	0000                	unimp
    f356:	0000                	unimp
    f358:	f178                	fsw	fa4,100(a0)
    f35a:	8000                	0x8000
	...
    f368:	f310                	fsw	fa2,32(a4)
    f36a:	8000                	0x8000
    f36c:	0000                	unimp
    f36e:	0000                	unimp
    f370:	94a8                	0x94a8
    f372:	8000                	0x8000
	...
    f398:	9840                	0x9840
    f39a:	8000                	0x8000
	...
    f3a8:	6964                	flw	fs1,84(a0)
    f3aa:	6572                	flw	fa0,28(sp)
    f3ac:	746e                	flw	fs0,248(sp)
    f3ae:	2120                	fld	fs0,64(a0)
    f3b0:	203d                	jal	0xf3de
    f3b2:	554e                	lw	a0,240(sp)
    f3b4:	4c4c                	lw	a1,28(s0)
    f3b6:	0000                	unimp
    f3b8:	6964                	flw	fs1,84(a0)
    f3ba:	6572                	flw	fa0,28(sp)
    f3bc:	746e                	flw	fs0,248(sp)
    f3be:	3e2d                	jal	0xeef8
    f3c0:	7974                	flw	fa3,116(a0)
    f3c2:	6570                	flw	fa2,76(a0)
    f3c4:	3d20                	fld	fs0,120(a0)
    f3c6:	203d                	jal	0xf3f4
    f3c8:	4f52                	lw	t5,20(sp)
    f3ca:	464d                	li	a2,19
    f3cc:	49445f53          	0x49445f53
    f3d0:	4552                	lw	a0,20(sp)
    f3d2:	544e                	lw	s0,240(sp)
    f3d4:	445f 5249 0000      	0x5249445f
    f3da:	0000                	unimp
    f3dc:	0000                	unimp
    f3de:	0000                	unimp
    f3e0:	6f72                	flw	ft10,28(sp)
    f3e2:	006d                	c.nop	27
    f3e4:	0000                	unimp
    f3e6:	0000                	unimp
    f3e8:	6664                	flw	fs1,76(a2)
    f3ea:	6f725f73          	csrrwi	t5,0x6f7,4
    f3ee:	666d                	lui	a2,0x1b
    f3f0:	65725f73          	csrrwi	t5,0x657,4
    f3f4:	6461                	lui	s0,0x18
    f3f6:	0000                	unimp
    f3f8:	6664                	flw	fs1,76(a2)
    f3fa:	6f725f73          	csrrwi	t5,0x6f7,4
    f3fe:	666d                	lui	a2,0x1b
    f400:	65675f73          	csrrwi	t5,0x656,14
    f404:	6474                	flw	fa3,76(s0)
    f406:	6e65                	lui	t3,0x19
    f408:	7374                	flw	fa3,100(a4)
    f40a:	0000                	unimp
    f40c:	0000                	unimp
    f40e:	0000                	unimp
    f410:	9e74                	0x9e74
    f412:	8000                	0x8000
    f414:	0000                	unimp
    f416:	0000                	unimp
    f418:	9acc                	0x9acc
    f41a:	8000                	0x8000
    f41c:	0000                	unimp
    f41e:	0000                	unimp
    f420:	9a80                	0x9a80
    f422:	8000                	0x8000
    f424:	0000                	unimp
    f426:	0000                	unimp
    f428:	9ad8                	0x9ad8
    f42a:	8000                	0x8000
	...
    f440:	9ab0                	0x9ab0
    f442:	8000                	0x8000
    f444:	0000                	unimp
    f446:	0000                	unimp
    f448:	9b90                	0x9b90
    f44a:	8000                	0x8000
	...
    f458:	f3e0                	fsw	fs0,100(a5)
    f45a:	8000                	0x8000
	...
    f468:	f410                	fsw	fa2,40(s0)
    f46a:	8000                	0x8000
    f46c:	0000                	unimp
    f46e:	0000                	unimp
    f470:	9a60                	0x9a60
    f472:	8000                	0x8000
    f474:	0000                	unimp
    f476:	0000                	unimp
    f478:	9a78                	0x9a78
    f47a:	8000                	0x8000
	...
    f498:	9f20                	0x9f20
    f49a:	8000                	0x8000
	...
    f4a8:	6c656873          	csrrsi	a6,0x6c6,10
    f4ac:	206c                	fld	fa1,192(s0)
    f4ae:	3d21                	jal	0xf2c6
    f4b0:	5220                	lw	s0,96(a2)
    f4b2:	5f54                	lw	a3,60(a4)
    f4b4:	554e                	lw	a0,240(sp)
    f4b6:	4c4c                	lw	a1,28(s0)
	...
    f4c0:	736d                	lui	t1,0xffffb
    f4c2:	2068                	fld	fa0,192(s0)
    f4c4:	0000                	unimp
    f4c6:	0000                	unimp
    f4c8:	6966                	flw	fs2,88(sp)
    f4ca:	736e                	flw	ft6,248(sp)
    f4cc:	2068                	fld	fa0,192(s0)
    f4ce:	0000                	unimp
    f4d0:	003e                	c.slli	zero,0xf
    f4d2:	0000                	unimp
    f4d4:	0000                	unimp
    f4d6:	0000                	unimp
    f4d8:	4b325b1b          	0x4b325b1b
    f4dc:	000d                	c.nop	3
    f4de:	0000                	unimp
    f4e0:	7325                	lui	t1,0xfffe9
    f4e2:	7325                	lui	t1,0xfffe9
    f4e4:	0000                	unimp
    f4e6:	0000                	unimp
    f4e8:	6f6e                	flw	ft10,216(sp)
    f4ea:	6d20                	flw	fs0,88(a0)
    f4ec:	6d65                	lui	s10,0x19
    f4ee:	2079726f          	jal	tp,0xa6ef4
    f4f2:	6f66                	flw	ft10,88(sp)
    f4f4:	2072                	fld	ft0,280(sp)
    f4f6:	6c656873          	csrrsi	a6,0x6c6,10
    f4fa:	0a6c                	addi	a1,sp,284
    f4fc:	0000                	unimp
    f4fe:	0000                	unimp
    f500:	7374                	flw	fa3,100(a4)
    f502:	6568                	flw	fa0,76(a0)
    f504:	6c6c                	flw	fa1,92(s0)
    f506:	0000                	unimp
    f508:	78726873          	csrrsi	a6,0x787,4
    f50c:	0000                	unimp
    f50e:	0000                	unimp
    f510:	6966                	flw	fs2,88(sp)
    f512:	736e                	flw	ft6,248(sp)
    f514:	3a68                	fld	fa0,240(a2)
    f516:	6320                	flw	fs0,64(a4)
    f518:	6e61                	lui	t3,0x18
    f51a:	6e20                	flw	fs0,88(a2)
    f51c:	6620746f          	jal	s0,0x16b7e
    f520:	6e69                	lui	t3,0x1a
    f522:	2064                	fld	fs1,192(s0)
    f524:	6564                	flw	fs1,76(a0)
    f526:	6976                	flw	fs2,92(sp)
    f528:	203a6563          	bltu	s4,gp,0xf732
    f52c:	7325                	lui	t1,0xfffe9
    f52e:	000a                	c.slli	zero,0x2
    f530:	0008                	0x8
    f532:	0000                	unimp
    f534:	0000                	unimp
    f536:	0000                	unimp
    f538:	2508                	fld	fa0,8(a0)
    f53a:	08202073          	csrr	zero,0x82
    f53e:	0000                	unimp
    f540:	2008                	fld	fa0,0(s0)
    f542:	0008                	0x8
    f544:	0000                	unimp
    f546:	0000                	unimp
    f548:	6966                	flw	fs2,88(sp)
    f54a:	736e                	flw	ft6,248(sp)
    f54c:	5f68                	lw	a0,124(a4)
    f54e:	5f746573          	csrrsi	a0,0x5f7,8
    f552:	7270                	flw	fa2,100(a2)
    f554:	74706d6f          	jal	s10,0x1649a
    f558:	6d5f 646f 0065      	0x65646f6d5f
    f55e:	0000                	unimp
    f560:	6966                	flw	fs2,88(sp)
    f562:	736e                	flw	ft6,248(sp)
    f564:	5f68                	lw	a0,124(a4)
    f566:	63746567          	0x63746567
    f56a:	6168                	flw	fa0,68(a0)
    f56c:	0072                	c.slli	zero,0x1c
    f56e:	0000                	unimp
    f570:	6966                	flw	fs2,88(sp)
    f572:	736e                	flw	ft6,248(sp)
    f574:	5f68                	lw	a0,124(a4)
    f576:	7872                	flw	fa6,60(sp)
    f578:	695f 646e 0000      	0x646e695f
    f57e:	0000                	unimp
    f580:	6966                	flw	fs2,88(sp)
    f582:	736e                	flw	ft6,248(sp)
    f584:	5f68                	lw	a0,124(a4)
    f586:	5f746573          	csrrsi	a0,0x5f7,8
    f58a:	6564                	flw	fs1,76(a0)
    f58c:	6976                	flw	fs2,92(sp)
    f58e:	00006563          	bltu	zero,zero,0xf598
    f592:	0000                	unimp
    f594:	0000                	unimp
    f596:	0000                	unimp
    f598:	6548                	flw	fa0,12(a0)
    f59a:	6c6c                	flw	fa1,92(s0)
    f59c:	5452206f          	j	0x322e0
    f5a0:	542d                	li	s0,-21
    f5a2:	7268                	flw	fa0,100(a2)
    f5a4:	6165                	addi	sp,sp,112
    f5a6:	2164                	fld	fs1,192(a0)
    f5a8:	000a                	c.slli	zero,0x2
    f5aa:	0000                	unimp
    f5ac:	0000                	unimp
    f5ae:	0000                	unimp
    f5b0:	4a325b1b          	0x4a325b1b
    f5b4:	00485b1b          	0x485b1b
    f5b8:	2d2d                	jal	0xfbf2
    f5ba:	7546                	flw	fa0,112(sp)
    f5bc:	636e                	flw	ft6,216(sp)
    f5be:	6974                	flw	fa3,84(a0)
    f5c0:	4c206e6f          	jal	t3,0x15a82
    f5c4:	7369                	lui	t1,0xffffa
    f5c6:	3a74                	fld	fa3,240(a2)
    f5c8:	000a                	c.slli	zero,0x2
    f5ca:	0000                	unimp
    f5cc:	0000                	unimp
    f5ce:	0000                	unimp
    f5d0:	5f5f 0000 0000      	0x5f5f
    f5d6:	0000                	unimp
    f5d8:	2d25                	jal	0xfc10
    f5da:	3631                	jal	0xf0e6
    f5dc:	2d2d2073          	csrs	0x2d2,s10
    f5e0:	2520                	fld	fs0,72(a0)
    f5e2:	00000a73          	0xa73
    f5e6:	0000                	unimp
    f5e8:	002d                	c.nop	11
    f5ea:	0000                	unimp
    f5ec:	0000                	unimp
    f5ee:	0000                	unimp
    f5f0:	6874                	flw	fa3,84(s0)
    f5f2:	6572                	flw	fa0,28(sp)
    f5f4:	6461                	lui	s0,0x18
    f5f6:	0000                	unimp
    f5f8:	2d25                	jal	0xfc30
    f5fa:	2e2a                	fld	ft8,136(sp)
    f5fc:	72702073          	csrr	zero,0x727
    f600:	2069                	jal	0xf68a
    f602:	7320                	flw	fs0,96(a4)
    f604:	6174                	flw	fa3,68(a0)
    f606:	7574                	flw	fa3,108(a0)
    f608:	20202073          	csrr	zero,hedeleg
    f60c:	2020                	fld	fs0,64(s0)
    f60e:	7320                	flw	fs0,96(a4)
    f610:	2070                	fld	fa2,192(s0)
    f612:	2020                	fld	fs0,64(s0)
    f614:	2020                	fld	fs0,64(s0)
    f616:	63617473          	csrrci	s0,0x636,2
    f61a:	6973206b          	0x6973206b
    f61e:	657a                	flw	fa0,156(sp)
    f620:	6d20                	flw	fs0,88(a0)
    f622:	7861                	lui	a6,0xffff8
    f624:	7520                	flw	fs0,104(a0)
    f626:	20646573          	csrrsi	a0,0x206,8
    f62a:	656c                	flw	fa1,76(a0)
    f62c:	7466                	flw	fs0,120(sp)
    f62e:	7420                	flw	fs0,104(s0)
    f630:	6369                	lui	t1,0x1a
    f632:	6520206b          	0x6520206b
    f636:	7272                	flw	ft4,60(sp)
    f638:	000a726f          	jal	tp,0xb6638
    f63c:	0000                	unimp
    f63e:	0000                	unimp
    f640:	2d20                	fld	fs0,88(a0)
    f642:	2d2d                	jal	0xfc7c
    f644:	2020                	fld	fs0,64(s0)
    f646:	2d2d                	jal	0xfc80
    f648:	2d2d                	jal	0xfc82
    f64a:	2d2d                	jal	0xfc84
    f64c:	202d                	jal	0xf676
    f64e:	2d2d                	jal	0xfc88
    f650:	2d2d                	jal	0xfc8a
    f652:	2d2d                	jal	0xfc8c
    f654:	2d2d                	jal	0xfc8e
    f656:	2d2d                	jal	0xfc90
    f658:	2d20                	fld	fs0,88(a0)
    f65a:	2d2d                	jal	0xfc94
    f65c:	2d2d                	jal	0xfc96
    f65e:	2d2d                	jal	0xfc98
    f660:	2d2d                	jal	0xfc9a
    f662:	202d                	jal	0xf68c
    f664:	2d20                	fld	fs0,88(a0)
    f666:	2d2d                	jal	0xfca0
    f668:	2d2d                	jal	0xfca2
    f66a:	202d                	jal	0xf694
    f66c:	2d20                	fld	fs0,88(a0)
    f66e:	2d2d                	jal	0xfca8
    f670:	2d2d                	jal	0xfcaa
    f672:	2d2d                	jal	0xfcac
    f674:	2d2d                	jal	0xfcae
    f676:	202d                	jal	0xf6a0
    f678:	2d2d                	jal	0xfcb2
    f67a:	0a2d                	addi	s4,s4,11
    f67c:	0000                	unimp
    f67e:	0000                	unimp
    f680:	2d25                	jal	0xfcb8
    f682:	2e2a                	fld	ft8,136(sp)
    f684:	732a                	flw	ft6,168(sp)
    f686:	2520                	fld	fs0,72(a0)
    f688:	00206433          	or	s0,zero,sp
    f68c:	0000                	unimp
    f68e:	0000                	unimp
    f690:	7220                	flw	fs0,96(a2)
    f692:	6165                	addi	sp,sp,112
    f694:	7964                	flw	fs1,116(a0)
    f696:	2020                	fld	fs0,64(s0)
	...
    f6a0:	7320                	flw	fs0,96(a4)
    f6a2:	7375                	lui	t1,0xffffd
    f6a4:	6570                	flw	fa2,76(a0)
    f6a6:	646e                	flw	fs0,216(sp)
	...
    f6b0:	6920                	flw	fs0,80(a0)
    f6b2:	696e                	flw	fs2,216(sp)
    f6b4:	2074                	fld	fa3,192(s0)
    f6b6:	2020                	fld	fs0,64(s0)
	...
    f6c0:	6320                	flw	fs0,64(a4)
    f6c2:	6f6c                	flw	fa1,92(a4)
    f6c4:	20206573          	csrrsi	a0,hedeleg,0
	...
    f6d0:	7220                	flw	fs0,96(a2)
    f6d2:	6e75                	lui	t3,0x1d
    f6d4:	696e                	flw	fs2,216(sp)
    f6d6:	676e                	flw	fa4,216(sp)
	...
    f6e0:	3020                	fld	fs0,96(s0)
    f6e2:	2578                	fld	fa4,200(a0)
    f6e4:	3830                	fld	fa2,112(s0)
    f6e6:	2078                	fld	fa4,192(s0)
    f6e8:	7830                	flw	fa2,112(s0)
    f6ea:	3025                	jal	0xef12
    f6ec:	7838                	flw	fa4,112(s0)
    f6ee:	2020                	fld	fs0,64(s0)
    f6f0:	2020                	fld	fs0,64(s0)
    f6f2:	3025                	jal	0xef1a
    f6f4:	6432                	flw	fs0,12(sp)
    f6f6:	2525                	jal	0xfd1e
    f6f8:	2020                	fld	fs0,64(s0)
    f6fa:	3020                	fld	fs0,96(s0)
    f6fc:	2578                	fld	fa4,200(a0)
    f6fe:	3830                	fld	fa2,112(s0)
    f700:	2078                	fld	fa4,192(s0)
    f702:	3025                	jal	0xef2a
    f704:	000a6433          	or	s0,s4,zero
    f708:	6e55                	lui	t3,0x15
    f70a:	776f6e6b          	0x776f6e6b
    f70e:	006e                	c.slli	zero,0x1b
    f710:	2d25                	jal	0xfd48
    f712:	2e2a                	fld	ft8,136(sp)
    f714:	20202073          	csrr	zero,hedeleg
    f718:	2020                	fld	fs0,64(s0)
    f71a:	2020                	fld	fs0,64(s0)
    f71c:	2020                	fld	fs0,64(s0)
    f71e:	7974                	flw	fa3,116(a0)
    f720:	6570                	flw	fa2,76(a0)
    f722:	2020                	fld	fs0,64(s0)
    f724:	2020                	fld	fs0,64(s0)
    f726:	2020                	fld	fs0,64(s0)
    f728:	2020                	fld	fs0,64(s0)
    f72a:	7220                	flw	fs0,96(a2)
    f72c:	6665                	lui	a2,0x19
    f72e:	6320                	flw	fs0,64(a4)
    f730:	746e756f          	jal	a0,0xf6e76
    f734:	000a                	c.slli	zero,0x2
    f736:	0000                	unimp
    f738:	2d20                	fld	fs0,88(a0)
    f73a:	2d2d                	jal	0xfd74
    f73c:	2d2d                	jal	0xfd76
    f73e:	2d2d                	jal	0xfd78
    f740:	2d2d                	jal	0xfd7a
    f742:	2d2d                	jal	0xfd7c
    f744:	2d2d                	jal	0xfd7e
    f746:	2d2d                	jal	0xfd80
    f748:	2d2d                	jal	0xfd82
    f74a:	2d2d                	jal	0xfd84
    f74c:	202d                	jal	0xf776
    f74e:	2d2d                	jal	0xfd88
    f750:	2d2d                	jal	0xfd8a
    f752:	2d2d                	jal	0xfd8c
    f754:	2d2d                	jal	0xfd8e
    f756:	2d2d                	jal	0xfd90
    f758:	000a                	c.slli	zero,0x2
    f75a:	0000                	unimp
    f75c:	0000                	unimp
    f75e:	0000                	unimp
    f760:	2d25                	jal	0xfd98
    f762:	2e2a                	fld	ft8,136(sp)
    f764:	732a                	flw	ft6,168(sp)
    f766:	2520                	fld	fs0,72(a0)
    f768:	322d                	jal	0xf092
    f76a:	7330                	flw	fa2,96(a4)
    f76c:	2520                	fld	fs0,72(a0)
    f76e:	382d                	jal	0xefa8
    f770:	0a64                	addi	s1,sp,284
    f772:	0000                	unimp
    f774:	0000                	unimp
    f776:	0000                	unimp
    f778:	756d                	lui	a0,0xffffb
    f77a:	6574                	flw	fa3,76(a0)
    f77c:	0078                	addi	a4,sp,12
    f77e:	0000                	unimp
    f780:	2d25                	jal	0xfdb8
    f782:	2e2a                	fld	ft8,136(sp)
    f784:	20202073          	csrr	zero,hedeleg
    f788:	656e776f          	jal	a4,0xf6dde
    f78c:	2072                	fld	ft0,280(sp)
    f78e:	6820                	flw	fs0,80(s0)
    f790:	20646c6f          	jal	s8,0x55996
    f794:	70737573          	csrrci	a0,0x707,6
    f798:	6e65                	lui	t3,0x19
    f79a:	2064                	fld	fs1,192(s0)
    f79c:	6874                	flw	fa3,84(s0)
    f79e:	6572                	flw	fa0,28(sp)
    f7a0:	6461                	lui	s0,0x18
    f7a2:	000a                	c.slli	zero,0x2
    f7a4:	0000                	unimp
    f7a6:	0000                	unimp
    f7a8:	2d20                	fld	fs0,88(a0)
    f7aa:	2d2d                	jal	0xfde4
    f7ac:	2d2d                	jal	0xfde6
    f7ae:	2d2d                	jal	0xfde8
    f7b0:	202d                	jal	0xf7da
    f7b2:	2d2d                	jal	0xfdec
    f7b4:	2d2d                	jal	0xfdee
    f7b6:	2d20                	fld	fs0,88(a0)
    f7b8:	2d2d                	jal	0xfdf2
    f7ba:	2d2d                	jal	0xfdf4
    f7bc:	2d2d                	jal	0xfdf6
    f7be:	2d2d                	jal	0xfdf8
    f7c0:	2d2d                	jal	0xfdfa
    f7c2:	2d2d                	jal	0xfdfc
    f7c4:	0a2d                	addi	s4,s4,11
    f7c6:	0000                	unimp
    f7c8:	2d25                	jal	0xfe00
    f7ca:	2e2a                	fld	ft8,136(sp)
    f7cc:	732a                	flw	ft6,168(sp)
    f7ce:	2520                	fld	fs0,72(a0)
    f7d0:	382d                	jal	0xf00a
    f7d2:	2a2e                	fld	fs4,200(sp)
    f7d4:	30252073          	csrs	medeleg,a0
    f7d8:	6434                	flw	fa3,72(s0)
    f7da:	2520                	fld	fs0,72(a0)
    f7dc:	0a64                	addi	s1,sp,284
    f7de:	0000                	unimp
    f7e0:	2d25                	jal	0xfe18
    f7e2:	2e2a                	fld	ft8,136(sp)
    f7e4:	70202073          	csrr	zero,0x702
    f7e8:	7265                	lui	tp,0xffff9
    f7ea:	6f69                	lui	t5,0x1a
    f7ec:	6964                	flw	fs1,84(a0)
    f7ee:	20202063          	0x20202063
    f7f2:	6974                	flw	fa3,84(a0)
    f7f4:	656d                	lui	a0,0x1b
    f7f6:	2074756f          	jal	a0,0x571fc
    f7fa:	2020                	fld	fs0,64(s0)
    f7fc:	2020                	fld	fs0,64(s0)
    f7fe:	2020                	fld	fs0,64(s0)
    f800:	6c66                	flw	fs8,88(sp)
    f802:	6761                	lui	a4,0x18
    f804:	000a                	c.slli	zero,0x2
    f806:	0000                	unimp
    f808:	2d20                	fld	fs0,88(a0)
    f80a:	2d2d                	jal	0xfe44
    f80c:	2d2d                	jal	0xfe46
    f80e:	2d2d                	jal	0xfe48
    f810:	2d2d                	jal	0xfe4a
    f812:	202d                	jal	0xf83c
    f814:	2d2d                	jal	0xfe4e
    f816:	2d2d                	jal	0xfe50
    f818:	2d2d                	jal	0xfe52
    f81a:	2d2d                	jal	0xfe54
    f81c:	2d2d                	jal	0xfe56
    f81e:	2d20                	fld	fs0,88(a0)
    f820:	2d2d                	jal	0xfe5a
    f822:	2d2d                	jal	0xfe5c
    f824:	2d2d                	jal	0xfe5e
    f826:	2d2d                	jal	0xfe60
    f828:	2d2d                	jal	0xfe62
    f82a:	000a                	c.slli	zero,0x2
    f82c:	0000                	unimp
    f82e:	0000                	unimp
    f830:	2d25                	jal	0xfe68
    f832:	2e2a                	fld	ft8,136(sp)
    f834:	732a                	flw	ft6,168(sp)
    f836:	3020                	fld	fs0,96(s0)
    f838:	2578                	fld	fa4,200(a0)
    f83a:	3830                	fld	fa2,112(s0)
    f83c:	2078                	fld	fa4,192(s0)
    f83e:	7830                	flw	fa2,112(s0)
    f840:	3025                	jal	0xf068
    f842:	7838                	flw	fa4,112(s0)
    f844:	0020                	addi	s0,sp,8
    f846:	0000                	unimp
    f848:	6361                	lui	t1,0x18
    f84a:	6974                	flw	fa3,84(a0)
    f84c:	6176                	flw	ft2,92(sp)
    f84e:	6574                	flw	fa3,76(a0)
    f850:	0a64                	addi	s1,sp,284
    f852:	0000                	unimp
    f854:	0000                	unimp
    f856:	0000                	unimp
    f858:	6564                	flw	fs1,76(a0)
    f85a:	6361                	lui	t1,0x18
    f85c:	6974                	flw	fa3,84(a0)
    f85e:	6176                	flw	ft2,92(sp)
    f860:	6574                	flw	fa3,76(a0)
    f862:	0a64                	addi	s1,sp,284
    f864:	0000                	unimp
    f866:	0000                	unimp
    f868:	72727563          	bgeu	tp,t2,0xff92
    f86c:	6e65                	lui	t3,0x19
    f86e:	2074                	fld	fa3,192(s0)
    f870:	6974                	flw	fa3,84(a0)
    f872:	303a6b63          	bltu	s4,gp,0xfb88
    f876:	2578                	fld	fa4,200(a0)
    f878:	3830                	fld	fa2,112(s0)
    f87a:	0a78                	addi	a4,sp,284
    f87c:	0000                	unimp
    f87e:	0000                	unimp
    f880:	7665                	lui	a2,0xffff9
    f882:	6e65                	lui	t3,0x19
    f884:	0074                	addi	a3,sp,12
    f886:	0000                	unimp
    f888:	2d25                	jal	0xfec0
    f88a:	2e2a                	fld	ft8,136(sp)
    f88c:	20202073          	csrr	zero,hedeleg
    f890:	2020                	fld	fs0,64(s0)
    f892:	7320                	flw	fs0,96(a4)
    f894:	7465                	lui	s0,0xffff9
    f896:	2020                	fld	fs0,64(s0)
    f898:	2020                	fld	fs0,64(s0)
    f89a:	70737573          	csrrci	a0,0x707,6
    f89e:	6e65                	lui	t3,0x19
    f8a0:	2064                	fld	fs1,192(s0)
    f8a2:	6874                	flw	fa3,84(s0)
    f8a4:	6572                	flw	fa0,28(sp)
    f8a6:	6461                	lui	s0,0x18
    f8a8:	000a                	c.slli	zero,0x2
    f8aa:	0000                	unimp
    f8ac:	0000                	unimp
    f8ae:	0000                	unimp
    f8b0:	2020                	fld	fs0,64(s0)
    f8b2:	2d2d                	jal	0xfeec
    f8b4:	2d2d                	jal	0xfeee
    f8b6:	2d2d                	jal	0xfef0
    f8b8:	2d2d                	jal	0xfef2
    f8ba:	2d2d                	jal	0xfef4
    f8bc:	2d20                	fld	fs0,88(a0)
    f8be:	2d2d                	jal	0xfef8
    f8c0:	2d2d                	jal	0xfefa
    f8c2:	2d2d                	jal	0xfefc
    f8c4:	2d2d                	jal	0xfefe
    f8c6:	2d2d                	jal	0xff00
    f8c8:	2d2d                	jal	0xff02
    f8ca:	0a2d                	addi	s4,s4,11
    f8cc:	0000                	unimp
    f8ce:	0000                	unimp
    f8d0:	2d25                	jal	0xff08
    f8d2:	2e2a                	fld	ft8,136(sp)
    f8d4:	732a                	flw	ft6,168(sp)
    f8d6:	2020                	fld	fs0,64(s0)
    f8d8:	7830                	flw	fa2,112(s0)
    f8da:	3025                	jal	0xf102
    f8dc:	7838                	flw	fa4,112(s0)
    f8de:	2520                	fld	fs0,72(a0)
    f8e0:	3330                	fld	fa2,96(a4)
    f8e2:	3a64                	fld	fs1,240(a2)
    f8e4:	0000                	unimp
    f8e6:	0000                	unimp
    f8e8:	2d25                	jal	0xff20
    f8ea:	2e2a                	fld	ft8,136(sp)
    f8ec:	732a                	flw	ft6,168(sp)
    f8ee:	2020                	fld	fs0,64(s0)
    f8f0:	7830                	flw	fa2,112(s0)
    f8f2:	3025                	jal	0xf11a
    f8f4:	7838                	flw	fa4,112(s0)
    f8f6:	3020                	fld	fs0,96(s0)
    f8f8:	000a                	c.slli	zero,0x2
    f8fa:	0000                	unimp
    f8fc:	0000                	unimp
    f8fe:	0000                	unimp
    f900:	736d                	lui	t1,0xffffb
    f902:	65757167          	0x65757167
    f906:	6575                	lui	a0,0x1d
	...
    f910:	2d25                	jal	0xff48
    f912:	2e2a                	fld	ft8,136(sp)
    f914:	6e652073          	csrs	0x6e6,a0
    f918:	7274                	flw	fa3,100(a2)
    f91a:	2079                	jal	0xf9a8
    f91c:	70737573          	csrrci	a0,0x707,6
    f920:	6e65                	lui	t3,0x19
    f922:	2064                	fld	fs1,192(s0)
    f924:	6874                	flw	fa3,84(s0)
    f926:	6572                	flw	fa0,28(sp)
    f928:	6461                	lui	s0,0x18
    f92a:	000a                	c.slli	zero,0x2
    f92c:	0000                	unimp
    f92e:	0000                	unimp
    f930:	2d20                	fld	fs0,88(a0)
    f932:	2d2d                	jal	0xff6c
    f934:	202d                	jal	0xf95e
    f936:	2d20                	fld	fs0,88(a0)
    f938:	2d2d                	jal	0xff72
    f93a:	2d2d                	jal	0xff74
    f93c:	2d2d                	jal	0xff76
    f93e:	2d2d                	jal	0xff78
    f940:	2d2d                	jal	0xff7a
    f942:	2d2d                	jal	0xff7c
    f944:	0a2d                	addi	s4,s4,11
    f946:	0000                	unimp
    f948:	2d25                	jal	0xff80
    f94a:	2e2a                	fld	ft8,136(sp)
    f94c:	732a                	flw	ft6,168(sp)
    f94e:	2520                	fld	fs0,72(a0)
    f950:	3430                	fld	fa2,104(s0)
    f952:	2064                	fld	fs1,192(s0)
    f954:	2520                	fld	fs0,72(a0)
    f956:	3a64                	fld	fs1,240(a2)
	...
    f960:	2d25                	jal	0xff98
    f962:	2e2a                	fld	ft8,136(sp)
    f964:	732a                	flw	ft6,168(sp)
    f966:	2520                	fld	fs0,72(a0)
    f968:	3430                	fld	fa2,104(s0)
    f96a:	2064                	fld	fs1,192(s0)
    f96c:	2520                	fld	fs0,72(a0)
    f96e:	0a64                	addi	s1,sp,284
	...
    f978:	616d6573          	csrrsi	a0,0x616,26
    f97c:	6870                	flw	fa2,84(s0)
    f97e:	0065726f          	jal	tp,0x66984
    f982:	0000                	unimp
    f984:	0000                	unimp
    f986:	0000                	unimp
    f988:	2d25                	jal	0xffc0
    f98a:	2e2a                	fld	ft8,136(sp)
    f98c:	20762073          	csrs	0x207,a2
    f990:	2020                	fld	fs0,64(s0)
    f992:	70737573          	csrrci	a0,0x707,6
    f996:	6e65                	lui	t3,0x19
    f998:	2064                	fld	fs1,192(s0)
    f99a:	6874                	flw	fa3,84(s0)
    f99c:	6572                	flw	fa0,28(sp)
    f99e:	6461                	lui	s0,0x18
    f9a0:	000a                	c.slli	zero,0x2
    f9a2:	0000                	unimp
    f9a4:	0000                	unimp
    f9a6:	0000                	unimp
    f9a8:	2d20                	fld	fs0,88(a0)
    f9aa:	2d2d                	jal	0xffe4
    f9ac:	2d20                	fld	fs0,88(a0)
    f9ae:	2d2d                	jal	0xffe8
    f9b0:	2d2d                	jal	0xffea
    f9b2:	2d2d                	jal	0xffec
    f9b4:	2d2d                	jal	0xffee
    f9b6:	2d2d                	jal	0xfff0
    f9b8:	2d2d                	jal	0xfff2
    f9ba:	0a2d                	addi	s4,s4,11
    f9bc:	0000                	unimp
    f9be:	0000                	unimp
    f9c0:	2d25                	jal	0xfff8
    f9c2:	2e2a                	fld	ft8,136(sp)
    f9c4:	732a                	flw	ft6,168(sp)
    f9c6:	2520                	fld	fs0,72(a0)
    f9c8:	3330                	fld	fa2,96(a4)
    f9ca:	2064                	fld	fs1,192(s0)
    f9cc:	6425                	lui	s0,0x9
    f9ce:	003a                	c.slli	zero,0xe
    f9d0:	2d25                	jal	0x10008
    f9d2:	2e2a                	fld	ft8,136(sp)
    f9d4:	732a                	flw	ft6,168(sp)
    f9d6:	2520                	fld	fs0,72(a0)
    f9d8:	3330                	fld	fa2,96(a4)
    f9da:	2064                	fld	fs1,192(s0)
    f9dc:	6425                	lui	s0,0x9
    f9de:	000a                	c.slli	zero,0x2
    f9e0:	616d                	addi	sp,sp,240
    f9e2:	6c69                	lui	s8,0x1a
    f9e4:	6f62                	flw	ft10,24(sp)
    f9e6:	0078                	addi	a4,sp,12
    f9e8:	2d25                	jal	0x10020
    f9ea:	2e2a                	fld	ft8,136(sp)
    f9ec:	6e652073          	csrs	0x6e6,a0
    f9f0:	7274                	flw	fa3,100(a2)
    f9f2:	2079                	jal	0xfa80
    f9f4:	657a6973          	csrrsi	s2,0x657,20
    f9f8:	7320                	flw	fs0,96(a4)
    f9fa:	7375                	lui	t1,0xffffd
    f9fc:	6570                	flw	fa2,76(a0)
    f9fe:	646e                	flw	fs0,216(sp)
    fa00:	7420                	flw	fs0,104(s0)
    fa02:	7268                	flw	fa0,100(a2)
    fa04:	6165                	addi	sp,sp,112
    fa06:	0a64                	addi	s1,sp,284
	...
    fa10:	2d20                	fld	fs0,88(a0)
    fa12:	2d2d                	jal	0x1004c
    fa14:	202d                	jal	0xfa3e
    fa16:	2d20                	fld	fs0,88(a0)
    fa18:	2d2d                	jal	0x10052
    fa1a:	202d                	jal	0xfa44
    fa1c:	2d2d                	jal	0x10056
    fa1e:	2d2d                	jal	0x10058
    fa20:	2d2d                	jal	0x1005a
    fa22:	2d2d                	jal	0x1005c
    fa24:	2d2d                	jal	0x1005e
    fa26:	2d2d                	jal	0x10060
    fa28:	2d2d                	jal	0x10062
    fa2a:	000a                	c.slli	zero,0x2
    fa2c:	0000                	unimp
    fa2e:	0000                	unimp
    fa30:	2d25                	jal	0x10068
    fa32:	2e2a                	fld	ft8,136(sp)
    fa34:	732a                	flw	ft6,168(sp)
    fa36:	2520                	fld	fs0,72(a0)
    fa38:	3430                	fld	fa2,104(s0)
    fa3a:	2064                	fld	fs1,192(s0)
    fa3c:	2520                	fld	fs0,72(a0)
    fa3e:	3430                	fld	fa2,104(s0)
    fa40:	2064                	fld	fs1,192(s0)
    fa42:	6425                	lui	s0,0x9
    fa44:	003a                	c.slli	zero,0xe
    fa46:	0000                	unimp
    fa48:	2d25                	jal	0x10080
    fa4a:	2e2a                	fld	ft8,136(sp)
    fa4c:	732a                	flw	ft6,168(sp)
    fa4e:	2520                	fld	fs0,72(a0)
    fa50:	3430                	fld	fa2,104(s0)
    fa52:	2064                	fld	fs1,192(s0)
    fa54:	2520                	fld	fs0,72(a0)
    fa56:	3430                	fld	fa2,104(s0)
    fa58:	2064                	fld	fs1,192(s0)
    fa5a:	6425                	lui	s0,0x9
    fa5c:	000a                	c.slli	zero,0x2
    fa5e:	0000                	unimp
    fa60:	656d                	lui	a0,0x1b
    fa62:	706d                	c.lui	zero,0xffffb
    fa64:	006c6f6f          	jal	t5,0xd5a6a
    fa68:	2d25                	jal	0x100a0
    fa6a:	2e2a                	fld	ft8,136(sp)
    fa6c:	6c622073          	csrs	0x6c6,tp
    fa70:	206b636f          	jal	t1,0xc5c76
    fa74:	6f74                	flw	fa3,92(a4)
    fa76:	6174                	flw	fa3,68(a0)
    fa78:	206c                	fld	fa1,192(s0)
    fa7a:	7266                	flw	ft4,120(sp)
    fa7c:	6565                	lui	a0,0x19
    fa7e:	7320                	flw	fs0,96(a4)
    fa80:	7375                	lui	t1,0xffffd
    fa82:	6570                	flw	fa2,76(a0)
    fa84:	646e                	flw	fs0,216(sp)
    fa86:	7420                	flw	fs0,104(s0)
    fa88:	7268                	flw	fa0,100(a2)
    fa8a:	6165                	addi	sp,sp,112
    fa8c:	0a64                	addi	s1,sp,284
    fa8e:	0000                	unimp
    fa90:	2d20                	fld	fs0,88(a0)
    fa92:	2d2d                	jal	0x100cc
    fa94:	202d                	jal	0xfabe
    fa96:	2d20                	fld	fs0,88(a0)
    fa98:	2d2d                	jal	0x100d2
    fa9a:	202d                	jal	0xfac4
    fa9c:	2d20                	fld	fs0,88(a0)
    fa9e:	2d2d                	jal	0x100d8
    faa0:	202d                	jal	0xfaca
    faa2:	2d2d                	jal	0x100dc
    faa4:	2d2d                	jal	0x100de
    faa6:	2d2d                	jal	0x100e0
    faa8:	2d2d                	jal	0x100e2
    faaa:	2d2d                	jal	0x100e4
    faac:	2d2d                	jal	0x100e6
    faae:	2d2d                	jal	0x100e8
    fab0:	000a                	c.slli	zero,0x2
    fab2:	0000                	unimp
    fab4:	0000                	unimp
    fab6:	0000                	unimp
    fab8:	2d25                	jal	0x100f0
    faba:	2e2a                	fld	ft8,136(sp)
    fabc:	732a                	flw	ft6,168(sp)
    fabe:	2520                	fld	fs0,72(a0)
    fac0:	3430                	fld	fa2,104(s0)
    fac2:	2064                	fld	fs1,192(s0)
    fac4:	2520                	fld	fs0,72(a0)
    fac6:	3430                	fld	fa2,104(s0)
    fac8:	2064                	fld	fs1,192(s0)
    faca:	2520                	fld	fs0,72(a0)
    facc:	3430                	fld	fa2,104(s0)
    face:	2064                	fld	fs1,192(s0)
    fad0:	6425                	lui	s0,0x9
    fad2:	003a                	c.slli	zero,0xe
    fad4:	0000                	unimp
    fad6:	0000                	unimp
    fad8:	2d25                	jal	0x10110
    fada:	2e2a                	fld	ft8,136(sp)
    fadc:	732a                	flw	ft6,168(sp)
    fade:	2520                	fld	fs0,72(a0)
    fae0:	3430                	fld	fa2,104(s0)
    fae2:	2064                	fld	fs1,192(s0)
    fae4:	2520                	fld	fs0,72(a0)
    fae6:	3430                	fld	fa2,104(s0)
    fae8:	2064                	fld	fs1,192(s0)
    faea:	2520                	fld	fs0,72(a0)
    faec:	3430                	fld	fa2,104(s0)
    faee:	2064                	fld	fs1,192(s0)
    faf0:	6425                	lui	s0,0x9
    faf2:	000a                	c.slli	zero,0x2
    faf4:	0000                	unimp
    faf6:	0000                	unimp
    faf8:	72616843          	fmadd.d	fa6,ft2,ft6,fa4,unknown
    fafc:	6361                	lui	t1,0x18
    fafe:	6574                	flw	fa3,76(a0)
    fb00:	2072                	fld	ft0,280(sp)
    fb02:	6544                	flw	fs1,12(a0)
    fb04:	6976                	flw	fs2,92(sp)
    fb06:	00006563          	bltu	zero,zero,0xfb10
    fb0a:	0000                	unimp
    fb0c:	0000                	unimp
    fb0e:	0000                	unimp
    fb10:	6c42                	flw	fs8,16(sp)
    fb12:	206b636f          	jal	t1,0xc5d18
    fb16:	6544                	flw	fs1,12(a0)
    fb18:	6976                	flw	fs2,92(sp)
    fb1a:	00006563          	bltu	zero,zero,0xfb24
    fb1e:	0000                	unimp
    fb20:	654e                	flw	fa0,208(sp)
    fb22:	7774                	flw	fa3,108(a4)
    fb24:	206b726f          	jal	tp,0xc6d2a
    fb28:	6e49                	lui	t3,0x12
    fb2a:	6574                	flw	fa3,76(a0)
    fb2c:	6672                	flw	fa2,28(sp)
    fb2e:	6361                	lui	t1,0x18
    fb30:	0065                	c.nop	25
    fb32:	0000                	unimp
    fb34:	0000                	unimp
    fb36:	0000                	unimp
    fb38:	544d                	li	s0,-13
    fb3a:	2044                	fld	fs1,128(s0)
    fb3c:	6544                	flw	fs1,12(a0)
    fb3e:	6976                	flw	fs2,92(sp)
    fb40:	00006563          	bltu	zero,zero,0xfb4a
    fb44:	0000                	unimp
    fb46:	0000                	unimp
    fb48:	204e4143          	fmadd.s	ft2,ft8,ft4,ft4,rmm
    fb4c:	6544                	flw	fs1,12(a0)
    fb4e:	6976                	flw	fs2,92(sp)
    fb50:	00006563          	bltu	zero,zero,0xfb5a
    fb54:	0000                	unimp
    fb56:	0000                	unimp
    fb58:	5452                	lw	s0,52(sp)
    fb5a:	00000043          	fmadd.s	ft0,ft0,ft0,ft0,rne
    fb5e:	0000                	unimp
    fb60:	6e756f53          	0x6e756f53
    fb64:	2064                	fld	fs1,192(s0)
    fb66:	6544                	flw	fs1,12(a0)
    fb68:	6976                	flw	fs2,92(sp)
    fb6a:	00006563          	bltu	zero,zero,0xfb74
    fb6e:	0000                	unimp
    fb70:	70617247          	fmsub.s	ft4,ft2,ft6,fa4
    fb74:	6968                	flw	fa0,84(a0)
    fb76:	65442063          	0x65442063
    fb7a:	6976                	flw	fs2,92(sp)
    fb7c:	00006563          	bltu	zero,zero,0xfb86
    fb80:	3249                	jal	0xf502
    fb82:	75422043          	0x75422043
    fb86:	53550073          	0x53550073
    fb8a:	2042                	fld	ft0,16(sp)
    fb8c:	76616c53          	0x76616c53
    fb90:	2065                	jal	0xfc38
    fb92:	6544                	flw	fs1,12(a0)
    fb94:	6976                	flw	fs2,92(sp)
    fb96:	00006563          	bltu	zero,zero,0xfba0
    fb9a:	0000                	unimp
    fb9c:	0000                	unimp
    fb9e:	0000                	unimp
    fba0:	5355                	li	t1,-11
    fba2:	2042                	fld	ft0,16(sp)
    fba4:	6f48                	flw	fa0,28(a4)
    fba6:	42207473          	csrrci	s0,0x422,0
    fbaa:	7375                	lui	t1,0xffffd
    fbac:	0000                	unimp
    fbae:	0000                	unimp
    fbb0:	20495053          	0x20495053
    fbb4:	7542                	flw	fa0,48(sp)
    fbb6:	50530073          	0x50530073
    fbba:	2049                	jal	0xfc3c
    fbbc:	6544                	flw	fs1,12(a0)
    fbbe:	6976                	flw	fs2,92(sp)
    fbc0:	00006563          	bltu	zero,zero,0xfbca
    fbc4:	0000                	unimp
    fbc6:	0000                	unimp
    fbc8:	4f494453          	0x4f494453
    fbcc:	4220                	lw	s0,64(a2)
    fbce:	7375                	lui	t1,0xffffd
	...
    fbd8:	4d50                	lw	a2,28(a0)
    fbda:	5020                	lw	s0,96(s0)
    fbdc:	64756573          	csrrsi	a0,0x647,10
    fbe0:	6544206f          	j	0x52234
    fbe4:	6976                	flw	fs2,92(sp)
    fbe6:	00006563          	bltu	zero,zero,0xfbf0
    fbea:	0000                	unimp
    fbec:	0000                	unimp
    fbee:	0000                	unimp
    fbf0:	6950                	flw	fa2,20(a0)
    fbf2:	6570                	flw	fa2,76(a0)
    fbf4:	0000                	unimp
    fbf6:	0000                	unimp
    fbf8:	6f50                	flw	fa2,28(a4)
    fbfa:	7472                	flw	fs0,60(sp)
    fbfc:	6c61                	lui	s8,0x18
    fbfe:	4420                	lw	s0,72(s0)
    fc00:	7665                	lui	a2,0xffff9
    fc02:	6369                	lui	t1,0x1a
    fc04:	0065                	c.nop	25
    fc06:	0000                	unimp
    fc08:	6954                	flw	fa3,20(a0)
    fc0a:	656d                	lui	a0,0x1b
    fc0c:	2072                	fld	ft0,280(sp)
    fc0e:	6544                	flw	fs1,12(a0)
    fc10:	6976                	flw	fs2,92(sp)
    fc12:	00006563          	bltu	zero,zero,0xfc1c
    fc16:	0000                	unimp
    fc18:	694d                	lui	s2,0x13
    fc1a:	6c656373          	csrrsi	t1,0x6c6,10
    fc1e:	616c                	flw	fa1,68(a0)
    fc20:	656e                	flw	fa0,216(sp)
    fc22:	2073756f          	jal	a0,0x47628
    fc26:	6544                	flw	fs1,12(a0)
    fc28:	6976                	flw	fs2,92(sp)
    fc2a:	00006563          	bltu	zero,zero,0xfc34
    fc2e:	0000                	unimp
    fc30:	736e6553          	0x736e6553
    fc34:	4420726f          	jal	tp,0x17076
    fc38:	7665                	lui	a2,0xffff9
    fc3a:	6369                	lui	t1,0x1a
    fc3c:	0065                	c.nop	25
    fc3e:	0000                	unimp
    fc40:	6f54                	flw	fa3,28(a4)
    fc42:	6375                	lui	t1,0x1d
    fc44:	2068                	fld	fa0,192(s0)
    fc46:	6544                	flw	fs1,12(a0)
    fc48:	6976                	flw	fs2,92(sp)
    fc4a:	00006563          	bltu	zero,zero,0xfc54
    fc4e:	0000                	unimp
    fc50:	6850                	flw	fa2,20(s0)
    fc52:	2079                	jal	0xfce0
    fc54:	6544                	flw	fs1,12(a0)
    fc56:	6976                	flw	fs2,92(sp)
    fc58:	00006563          	bltu	zero,zero,0xfc62
    fc5c:	0000                	unimp
    fc5e:	0000                	unimp
    fc60:	faf8                	fsw	fa4,116(a3)
    fc62:	8000                	0x8000
    fc64:	0000                	unimp
    fc66:	0000                	unimp
    fc68:	fb10                	fsw	fa2,48(a4)
    fc6a:	8000                	0x8000
    fc6c:	0000                	unimp
    fc6e:	0000                	unimp
    fc70:	fb20                	fsw	fs0,112(a4)
    fc72:	8000                	0x8000
    fc74:	0000                	unimp
    fc76:	0000                	unimp
    fc78:	fb38                	fsw	fa4,112(a4)
    fc7a:	8000                	0x8000
    fc7c:	0000                	unimp
    fc7e:	0000                	unimp
    fc80:	fb48                	fsw	fa0,52(a4)
    fc82:	8000                	0x8000
    fc84:	0000                	unimp
    fc86:	0000                	unimp
    fc88:	fb58                	fsw	fa4,52(a4)
    fc8a:	8000                	0x8000
    fc8c:	0000                	unimp
    fc8e:	0000                	unimp
    fc90:	fb60                	fsw	fs0,116(a4)
    fc92:	8000                	0x8000
    fc94:	0000                	unimp
    fc96:	0000                	unimp
    fc98:	fb70                	fsw	fa2,116(a4)
    fc9a:	8000                	0x8000
    fc9c:	0000                	unimp
    fc9e:	0000                	unimp
    fca0:	fb80                	fsw	fs0,48(a5)
    fca2:	8000                	0x8000
    fca4:	0000                	unimp
    fca6:	0000                	unimp
    fca8:	fb88                	fsw	fa0,48(a5)
    fcaa:	8000                	0x8000
    fcac:	0000                	unimp
    fcae:	0000                	unimp
    fcb0:	fba0                	fsw	fs0,112(a5)
    fcb2:	8000                	0x8000
    fcb4:	0000                	unimp
    fcb6:	0000                	unimp
    fcb8:	fbb0                	fsw	fa2,112(a5)
    fcba:	8000                	0x8000
    fcbc:	0000                	unimp
    fcbe:	0000                	unimp
    fcc0:	fbb8                	fsw	fa4,112(a5)
    fcc2:	8000                	0x8000
    fcc4:	0000                	unimp
    fcc6:	0000                	unimp
    fcc8:	fbc8                	fsw	fa0,52(a5)
    fcca:	8000                	0x8000
    fccc:	0000                	unimp
    fcce:	0000                	unimp
    fcd0:	fbd8                	fsw	fa4,52(a5)
    fcd2:	8000                	0x8000
    fcd4:	0000                	unimp
    fcd6:	0000                	unimp
    fcd8:	fbf0                	fsw	fa2,116(a5)
    fcda:	8000                	0x8000
    fcdc:	0000                	unimp
    fcde:	0000                	unimp
    fce0:	fbf8                	fsw	fa4,116(a5)
    fce2:	8000                	0x8000
    fce4:	0000                	unimp
    fce6:	0000                	unimp
    fce8:	fc08                	fsw	fa0,56(s0)
    fcea:	8000                	0x8000
    fcec:	0000                	unimp
    fcee:	0000                	unimp
    fcf0:	fc18                	fsw	fa4,56(s0)
    fcf2:	8000                	0x8000
    fcf4:	0000                	unimp
    fcf6:	0000                	unimp
    fcf8:	fc30                	fsw	fa2,120(s0)
    fcfa:	8000                	0x8000
    fcfc:	0000                	unimp
    fcfe:	0000                	unimp
    fd00:	fc40                	fsw	fs0,60(s0)
    fd02:	8000                	0x8000
    fd04:	0000                	unimp
    fd06:	0000                	unimp
    fd08:	fc50                	fsw	fa2,60(s0)
    fd0a:	8000                	0x8000
    fd0c:	0000                	unimp
    fd0e:	0000                	unimp
    fd10:	f708                	fsw	fa0,40(a4)
    fd12:	8000                	0x8000
    fd14:	0000                	unimp
    fd16:	0000                	unimp
    fd18:	696c                	flw	fa1,84(a0)
    fd1a:	61207473          	csrrci	s0,0x612,0
    fd1e:	6c6c                	flw	fa1,92(s0)
    fd20:	7320                	flw	fs0,96(a4)
    fd22:	6d79                	lui	s10,0x1e
    fd24:	6f62                	flw	ft10,24(sp)
    fd26:	206c                	fld	fa1,192(s0)
    fd28:	6e69                	lui	t3,0x1a
    fd2a:	7320                	flw	fs0,96(a4)
    fd2c:	7379                	lui	t1,0xffffe
    fd2e:	6574                	flw	fa3,76(a0)
    fd30:	006d                	c.nop	27
    fd32:	0000                	unimp
    fd34:	0000                	unimp
    fd36:	0000                	unimp
    fd38:	696c                	flw	fa1,84(a0)
    fd3a:	00007473          	csrrci	s0,ustatus,0
    fd3e:	0000                	unimp
    fd40:	696c                	flw	fa1,84(a0)
    fd42:	64207473          	csrrci	s0,0x642,0
    fd46:	7665                	lui	a2,0xffff9
    fd48:	6369                	lui	t1,0x1a
    fd4a:	2065                	jal	0xfdf2
    fd4c:	6e69                	lui	t3,0x1a
    fd4e:	7320                	flw	fs0,96(a4)
    fd50:	7379                	lui	t1,0xffffe
    fd52:	6574                	flw	fa3,76(a0)
    fd54:	006d                	c.nop	27
    fd56:	0000                	unimp
    fd58:	5f5f 6d63 5f64      	0x5f646d635f5f
    fd5e:	696c                	flw	fa1,84(a0)
    fd60:	645f7473          	csrrci	s0,0x645,30
    fd64:	7665                	lui	a2,0xffff9
    fd66:	6369                	lui	t1,0x1a
    fd68:	0065                	c.nop	25
    fd6a:	0000                	unimp
    fd6c:	0000                	unimp
    fd6e:	0000                	unimp
    fd70:	696c                	flw	fa1,84(a0)
    fd72:	64207473          	csrrci	s0,0x642,0
    fd76:	7665                	lui	a2,0xffff9
    fd78:	6369                	lui	t1,0x1a
    fd7a:	2065                	jal	0xfe22
    fd7c:	6e69                	lui	t3,0x1a
    fd7e:	7320                	flw	fs0,96(a4)
    fd80:	7379                	lui	t1,0xffffe
    fd82:	6574                	flw	fa3,76(a0)
    fd84:	006d                	c.nop	27
    fd86:	0000                	unimp
    fd88:	696c                	flw	fa1,84(a0)
    fd8a:	645f7473          	csrrci	s0,0x645,30
    fd8e:	7665                	lui	a2,0xffff9
    fd90:	6369                	lui	t1,0x1a
    fd92:	0065                	c.nop	25
    fd94:	0000                	unimp
    fd96:	0000                	unimp
    fd98:	696c                	flw	fa1,84(a0)
    fd9a:	74207473          	csrrci	s0,0x742,0
    fd9e:	6d69                	lui	s10,0x1a
    fda0:	7265                	lui	tp,0xffff9
    fda2:	6920                	flw	fs0,80(a0)
    fda4:	206e                	fld	ft0,216(sp)
    fda6:	74737973          	csrrci	s2,0x747,6
    fdaa:	6d65                	lui	s10,0x19
    fdac:	0000                	unimp
    fdae:	0000                	unimp
    fdb0:	5f5f 6d63 5f64      	0x5f646d635f5f
    fdb6:	696c                	flw	fa1,84(a0)
    fdb8:	745f7473          	csrrci	s0,0x745,30
    fdbc:	6d69                	lui	s10,0x1a
    fdbe:	7265                	lui	tp,0xffff9
	...
    fdc8:	696c                	flw	fa1,84(a0)
    fdca:	74207473          	csrrci	s0,0x742,0
    fdce:	6d69                	lui	s10,0x1a
    fdd0:	7265                	lui	tp,0xffff9
    fdd2:	6920                	flw	fs0,80(a0)
    fdd4:	206e                	fld	ft0,216(sp)
    fdd6:	74737973          	csrrci	s2,0x747,6
    fdda:	6d65                	lui	s10,0x19
    fddc:	0000                	unimp
    fdde:	0000                	unimp
    fde0:	696c                	flw	fa1,84(a0)
    fde2:	745f7473          	csrrci	s0,0x745,30
    fde6:	6d69                	lui	s10,0x1a
    fde8:	7265                	lui	tp,0xffff9
    fdea:	0000                	unimp
    fdec:	0000                	unimp
    fdee:	0000                	unimp
    fdf0:	696c                	flw	fa1,84(a0)
    fdf2:	6d207473          	csrrci	s0,0x6d2,0
    fdf6:	6d65                	lui	s10,0x19
    fdf8:	2079726f          	jal	tp,0xa77fe
    fdfc:	6f70                	flw	fa2,92(a4)
    fdfe:	69206c6f          	jal	s8,0x16490
    fe02:	206e                	fld	ft0,216(sp)
    fe04:	74737973          	csrrci	s2,0x747,6
    fe08:	6d65                	lui	s10,0x19
    fe0a:	0000                	unimp
    fe0c:	0000                	unimp
    fe0e:	0000                	unimp
    fe10:	5f5f 6d63 5f64      	0x5f646d635f5f
    fe16:	696c                	flw	fa1,84(a0)
    fe18:	6d5f7473          	csrrci	s0,0x6d5,30
    fe1c:	6d65                	lui	s10,0x19
    fe1e:	6f70                	flw	fa2,92(a4)
    fe20:	00006c6f          	jal	s8,0x15e20
    fe24:	0000                	unimp
    fe26:	0000                	unimp
    fe28:	696c                	flw	fa1,84(a0)
    fe2a:	6d207473          	csrrci	s0,0x6d2,0
    fe2e:	6d65                	lui	s10,0x19
    fe30:	2079726f          	jal	tp,0xa7836
    fe34:	6f70                	flw	fa2,92(a4)
    fe36:	69206c6f          	jal	s8,0x164c8
    fe3a:	206e                	fld	ft0,216(sp)
    fe3c:	74737973          	csrrci	s2,0x747,6
    fe40:	6d65                	lui	s10,0x19
    fe42:	0000                	unimp
    fe44:	0000                	unimp
    fe46:	0000                	unimp
    fe48:	696c                	flw	fa1,84(a0)
    fe4a:	6d5f7473          	csrrci	s0,0x6d5,30
    fe4e:	6d65                	lui	s10,0x19
    fe50:	6f70                	flw	fa2,92(a4)
    fe52:	00006c6f          	jal	s8,0x15e52
    fe56:	0000                	unimp
    fe58:	696c                	flw	fa1,84(a0)
    fe5a:	6d207473          	csrrci	s0,0x6d2,0
    fe5e:	7365                	lui	t1,0xffff9
    fe60:	65676173          	csrrsi	sp,0x656,14
    fe64:	7120                	flw	fs0,96(a0)
    fe66:	6575                	lui	a0,0x1d
    fe68:	6575                	lui	a0,0x1d
    fe6a:	6920                	flw	fs0,80(a0)
    fe6c:	206e                	fld	ft0,216(sp)
    fe6e:	74737973          	csrrci	s2,0x747,6
    fe72:	6d65                	lui	s10,0x19
    fe74:	0000                	unimp
    fe76:	0000                	unimp
    fe78:	5f5f 6d63 5f64      	0x5f646d635f5f
    fe7e:	696c                	flw	fa1,84(a0)
    fe80:	6d5f7473          	csrrci	s0,0x6d5,30
    fe84:	75716773          	csrrsi	a4,0x757,2
    fe88:	7565                	lui	a0,0xffff9
    fe8a:	0065                	c.nop	25
    fe8c:	0000                	unimp
    fe8e:	0000                	unimp
    fe90:	696c                	flw	fa1,84(a0)
    fe92:	6d207473          	csrrci	s0,0x6d2,0
    fe96:	7365                	lui	t1,0xffff9
    fe98:	65676173          	csrrsi	sp,0x656,14
    fe9c:	7120                	flw	fs0,96(a0)
    fe9e:	6575                	lui	a0,0x1d
    fea0:	6575                	lui	a0,0x1d
    fea2:	6920                	flw	fs0,80(a0)
    fea4:	206e                	fld	ft0,216(sp)
    fea6:	74737973          	csrrci	s2,0x747,6
    feaa:	6d65                	lui	s10,0x19
    feac:	0000                	unimp
    feae:	0000                	unimp
    feb0:	696c                	flw	fa1,84(a0)
    feb2:	6d5f7473          	csrrci	s0,0x6d5,30
    feb6:	75716773          	csrrsi	a4,0x757,2
    feba:	7565                	lui	a0,0xffff9
    febc:	0065                	c.nop	25
    febe:	0000                	unimp
    fec0:	696c                	flw	fa1,84(a0)
    fec2:	6d207473          	csrrci	s0,0x6d2,0
    fec6:	6961                	lui	s2,0x18
    fec8:	206c                	fld	fa1,192(s0)
    feca:	6f62                	flw	ft10,24(sp)
    fecc:	2078                	fld	fa4,192(s0)
    fece:	6e69                	lui	t3,0x1a
    fed0:	7320                	flw	fs0,96(a4)
    fed2:	7379                	lui	t1,0xffffe
    fed4:	6574                	flw	fa3,76(a0)
    fed6:	006d                	c.nop	27
    fed8:	5f5f 6d63 5f64      	0x5f646d635f5f
    fede:	696c                	flw	fa1,84(a0)
    fee0:	6d5f7473          	csrrci	s0,0x6d5,30
    fee4:	6961                	lui	s2,0x18
    fee6:	626c                	flw	fa1,68(a2)
    fee8:	0000786f          	jal	a6,0x16ee8
    feec:	0000                	unimp
    feee:	0000                	unimp
    fef0:	696c                	flw	fa1,84(a0)
    fef2:	6d207473          	csrrci	s0,0x6d2,0
    fef6:	6961                	lui	s2,0x18
    fef8:	206c                	fld	fa1,192(s0)
    fefa:	6f62                	flw	ft10,24(sp)
    fefc:	2078                	fld	fa4,192(s0)
    fefe:	6e69                	lui	t3,0x1a
    ff00:	7320                	flw	fs0,96(a4)
    ff02:	7379                	lui	t1,0xffffe
    ff04:	6574                	flw	fa3,76(a0)
    ff06:	006d                	c.nop	27
    ff08:	696c                	flw	fa1,84(a0)
    ff0a:	6d5f7473          	csrrci	s0,0x6d5,30
    ff0e:	6961                	lui	s2,0x18
    ff10:	626c                	flw	fa1,68(a2)
    ff12:	0000786f          	jal	a6,0x16f12
    ff16:	0000                	unimp
    ff18:	696c                	flw	fa1,84(a0)
    ff1a:	6d207473          	csrrci	s0,0x6d2,0
    ff1e:	7475                	lui	s0,0xffffd
    ff20:	7865                	lui	a6,0xffff9
    ff22:	6920                	flw	fs0,80(a0)
    ff24:	206e                	fld	ft0,216(sp)
    ff26:	74737973          	csrrci	s2,0x747,6
    ff2a:	6d65                	lui	s10,0x19
    ff2c:	0000                	unimp
    ff2e:	0000                	unimp
    ff30:	5f5f 6d63 5f64      	0x5f646d635f5f
    ff36:	696c                	flw	fa1,84(a0)
    ff38:	6d5f7473          	csrrci	s0,0x6d5,30
    ff3c:	7475                	lui	s0,0xffffd
    ff3e:	7865                	lui	a6,0xffff9
	...
    ff48:	696c                	flw	fa1,84(a0)
    ff4a:	6d207473          	csrrci	s0,0x6d2,0
    ff4e:	7475                	lui	s0,0xffffd
    ff50:	7865                	lui	a6,0xffff9
    ff52:	6920                	flw	fs0,80(a0)
    ff54:	206e                	fld	ft0,216(sp)
    ff56:	74737973          	csrrci	s2,0x747,6
    ff5a:	6d65                	lui	s10,0x19
    ff5c:	0000                	unimp
    ff5e:	0000                	unimp
    ff60:	696c                	flw	fa1,84(a0)
    ff62:	6d5f7473          	csrrci	s0,0x6d5,30
    ff66:	7475                	lui	s0,0xffffd
    ff68:	7865                	lui	a6,0xffff9
    ff6a:	0000                	unimp
    ff6c:	0000                	unimp
    ff6e:	0000                	unimp
    ff70:	696c                	flw	fa1,84(a0)
    ff72:	65207473          	csrrci	s0,0x652,0
    ff76:	6576                	flw	fa0,92(sp)
    ff78:	746e                	flw	fs0,248(sp)
    ff7a:	6920                	flw	fs0,80(a0)
    ff7c:	206e                	fld	ft0,216(sp)
    ff7e:	74737973          	csrrci	s2,0x747,6
    ff82:	6d65                	lui	s10,0x19
    ff84:	0000                	unimp
    ff86:	0000                	unimp
    ff88:	5f5f 6d63 5f64      	0x5f646d635f5f
    ff8e:	696c                	flw	fa1,84(a0)
    ff90:	655f7473          	csrrci	s0,0x655,30
    ff94:	6576                	flw	fa0,92(sp)
    ff96:	746e                	flw	fs0,248(sp)
	...
    ffa0:	696c                	flw	fa1,84(a0)
    ffa2:	65207473          	csrrci	s0,0x652,0
    ffa6:	6576                	flw	fa0,92(sp)
    ffa8:	746e                	flw	fs0,248(sp)
    ffaa:	6920                	flw	fs0,80(a0)
    ffac:	206e                	fld	ft0,216(sp)
    ffae:	74737973          	csrrci	s2,0x747,6
    ffb2:	6d65                	lui	s10,0x19
    ffb4:	0000                	unimp
    ffb6:	0000                	unimp
    ffb8:	696c                	flw	fa1,84(a0)
    ffba:	655f7473          	csrrci	s0,0x655,30
    ffbe:	6576                	flw	fa0,92(sp)
    ffc0:	746e                	flw	fs0,248(sp)
    ffc2:	0000                	unimp
    ffc4:	0000                	unimp
    ffc6:	0000                	unimp
    ffc8:	696c                	flw	fa1,84(a0)
    ffca:	73207473          	csrrci	s0,0x732,0
    ffce:	6d65                	lui	s10,0x19
    ffd0:	7061                	c.lui	zero,0xffff8
    ffd2:	6f68                	flw	fa0,92(a4)
    ffd4:	6572                	flw	fa0,28(sp)
    ffd6:	6920                	flw	fs0,80(a0)
    ffd8:	206e                	fld	ft0,216(sp)
    ffda:	74737973          	csrrci	s2,0x747,6
    ffde:	6d65                	lui	s10,0x19
	...
    ffe8:	5f5f 6d63 5f64      	0x5f646d635f5f
    ffee:	696c                	flw	fa1,84(a0)
    fff0:	735f7473          	csrrci	s0,0x735,30
    fff4:	6d65                	lui	s10,0x19
    fff6:	0000                	unimp
    fff8:	696c                	flw	fa1,84(a0)
    fffa:	73207473          	csrrci	s0,0x732,0
    fffe:	6d65                	lui	s10,0x19
   10000:	7061                	c.lui	zero,0xffff8
   10002:	6f68                	flw	fa0,92(a4)
   10004:	6572                	flw	fa0,28(sp)
   10006:	6920                	flw	fs0,80(a0)
   10008:	206e                	fld	ft0,216(sp)
   1000a:	74737973          	csrrci	s2,0x747,6
   1000e:	6d65                	lui	s10,0x19
	...
   10018:	696c                	flw	fa1,84(a0)
   1001a:	735f7473          	csrrci	s0,0x735,30
   1001e:	6d65                	lui	s10,0x19
	...
   10028:	696c                	flw	fa1,84(a0)
   1002a:	74207473          	csrrci	s0,0x742,0
   1002e:	7268                	flw	fa0,100(a2)
   10030:	6165                	addi	sp,sp,112
   10032:	0064                	addi	s1,sp,12
   10034:	0000                	unimp
   10036:	0000                	unimp
   10038:	5f5f 6d63 5f64      	0x5f646d635f5f
   1003e:	696c                	flw	fa1,84(a0)
   10040:	745f7473          	csrrci	s0,0x745,30
   10044:	7268                	flw	fa0,100(a2)
   10046:	6165                	addi	sp,sp,112
   10048:	0064                	addi	s1,sp,12
   1004a:	0000                	unimp
   1004c:	0000                	unimp
   1004e:	0000                	unimp
   10050:	696c                	flw	fa1,84(a0)
   10052:	74207473          	csrrci	s0,0x742,0
   10056:	7268                	flw	fa0,100(a2)
   10058:	6165                	addi	sp,sp,112
   1005a:	0064                	addi	s1,sp,12
   1005c:	0000                	unimp
   1005e:	0000                	unimp
   10060:	696c                	flw	fa1,84(a0)
   10062:	745f7473          	csrrci	s0,0x745,30
   10066:	7268                	flw	fa0,100(a2)
   10068:	6165                	addi	sp,sp,112
   1006a:	0064                	addi	s1,sp,12
   1006c:	0000                	unimp
   1006e:	0000                	unimp
   10070:	776f6873          	csrrsi	a6,0x776,30
   10074:	5220                	lw	s0,96(a2)
   10076:	2d54                	fld	fa3,152(a0)
   10078:	6854                	flw	fa3,20(s0)
   1007a:	6572                	flw	fa0,28(sp)
   1007c:	6461                	lui	s0,0x18
   1007e:	7620                	flw	fs0,104(a2)
   10080:	7265                	lui	tp,0xffff9
   10082:	6e6f6973          	csrrsi	s2,0x6e6,30
   10086:	6920                	flw	fs0,80(a0)
   10088:	666e                	flw	fa2,216(sp)
   1008a:	616d726f          	jal	tp,0xe76a0
   1008e:	6974                	flw	fa3,84(a0)
   10090:	00006e6f          	jal	t3,0x16090
   10094:	0000                	unimp
   10096:	0000                	unimp
   10098:	5f5f 6d63 5f64      	0x5f646d635f5f
   1009e:	6576                	flw	fa0,92(sp)
   100a0:	7372                	flw	ft6,60(sp)
   100a2:	6f69                	lui	t5,0x1a
   100a4:	006e                	c.slli	zero,0x1b
   100a6:	0000                	unimp
   100a8:	776f6873          	csrrsi	a6,0x776,30
   100ac:	5220                	lw	s0,96(a2)
   100ae:	2d54                	fld	fa3,152(a0)
   100b0:	6854                	flw	fa3,20(s0)
   100b2:	6572                	flw	fa0,28(sp)
   100b4:	6461                	lui	s0,0x18
   100b6:	7620                	flw	fs0,104(a2)
   100b8:	7265                	lui	tp,0xffff9
   100ba:	6e6f6973          	csrrsi	s2,0x6e6,30
   100be:	6920                	flw	fs0,80(a0)
   100c0:	666e                	flw	fa2,216(sp)
   100c2:	616d726f          	jal	tp,0xe76d8
   100c6:	6974                	flw	fa3,84(a0)
   100c8:	00006e6f          	jal	t3,0x160c8
   100cc:	0000                	unimp
   100ce:	0000                	unimp
   100d0:	6576                	flw	fa0,92(sp)
   100d2:	7372                	flw	ft6,60(sp)
   100d4:	6f69                	lui	t5,0x1a
   100d6:	006e                	c.slli	zero,0x1b
   100d8:	61656c63          	bltu	a0,s6,0x106f0
   100dc:	2072                	fld	ft0,280(sp)
   100de:	6874                	flw	fa3,84(s0)
   100e0:	2065                	jal	0x10188
   100e2:	6574                	flw	fa3,76(a0)
   100e4:	6d72                	flw	fs10,28(sp)
   100e6:	6e69                	lui	t3,0x1a
   100e8:	6c61                	lui	s8,0x18
   100ea:	7320                	flw	fs0,96(a4)
   100ec:	65657263          	bgeu	a0,s6,0x10730
   100f0:	006e                	c.slli	zero,0x1b
   100f2:	0000                	unimp
   100f4:	0000                	unimp
   100f6:	0000                	unimp
   100f8:	5f5f 6d63 5f64      	0x5f646d635f5f
   100fe:	61656c63          	bltu	a0,s6,0x10716
   10102:	0072                	c.slli	zero,0x1c
   10104:	0000                	unimp
   10106:	0000                	unimp
   10108:	61656c63          	bltu	a0,s6,0x10720
   1010c:	2072                	fld	ft0,280(sp)
   1010e:	6874                	flw	fa3,84(s0)
   10110:	2065                	jal	0x101b8
   10112:	6574                	flw	fa3,76(a0)
   10114:	6d72                	flw	fs10,28(sp)
   10116:	6e69                	lui	t3,0x1a
   10118:	6c61                	lui	s8,0x18
   1011a:	7320                	flw	fs0,96(a4)
   1011c:	65657263          	bgeu	a0,s6,0x10760
   10120:	006e                	c.slli	zero,0x1b
   10122:	0000                	unimp
   10124:	0000                	unimp
   10126:	0000                	unimp
   10128:	61656c63          	bltu	a0,s6,0x10740
   1012c:	0072                	c.slli	zero,0x1c
   1012e:	0000                	unimp
   10130:	20796173          	csrrsi	sp,0x207,18
   10134:	6568                	flw	fa0,76(a0)
   10136:	6c6c                	flw	fa1,92(s0)
   10138:	6f77206f          	j	0x8302e
   1013c:	6c72                	flw	fs8,28(sp)
   1013e:	0064                	addi	s1,sp,12
   10140:	6568                	flw	fa0,76(a0)
   10142:	6c6c                	flw	fa1,92(s0)
   10144:	0000006f          	j	0x10144
   10148:	6e6e6163          	bltu	t3,t1,0x1082a
   1014c:	7220746f          	jal	s0,0x1786e
   10150:	6d65                	lui	s10,0x19
   10152:	2065766f          	jal	a2,0x67358
   10156:	27732527          	fsw	fs7,618(t1) # 0xffffffffffffe26a
   1015a:	000a                	c.slli	zero,0x2
   1015c:	0000                	unimp
   1015e:	0000                	unimp
   10160:	6572                	flw	fa0,28(sp)
   10162:	6f6d                	lui	t5,0x1b
   10164:	6576                	flw	fa0,92(sp)
   10166:	2064                	fld	fs1,192(s0)
   10168:	27732527          	fsw	fs7,618(t1)
   1016c:	000a                	c.slli	zero,0x2
   1016e:	0000                	unimp
   10170:	6572                	flw	fa0,28(sp)
   10172:	6f6d                	lui	t5,0x1b
   10174:	6576                	flw	fa0,92(sp)
   10176:	2064                	fld	fs1,192(s0)
   10178:	6964                	flw	fs1,84(a0)
   1017a:	6572                	flw	fa0,28(sp)
   1017c:	726f7463          	bgeu	t5,t1,0x108a4
   10180:	2079                	jal	0x1020e
   10182:	27732527          	fsw	fs7,618(t1)
   10186:	000a                	c.slli	zero,0x2
   10188:	7355                	lui	t1,0xffff5
   1018a:	6761                	lui	a4,0x18
   1018c:	3a65                	jal	0xfb44
   1018e:	7220                	flw	fs0,96(a2)
   10190:	206d                	jal	0x1023a
   10192:	6974706f          	j	0x58028
   10196:	73286e6f          	jal	t3,0x968c8
   1019a:	2029                	jal	0x101a4
   1019c:	4946                	lw	s2,80(sp)
   1019e:	454c                	lw	a1,12(a0)
   101a0:	2e2e                	fld	ft8,200(sp)
   101a2:	0a2e                	slli	s4,s4,0xb
   101a4:	0000                	unimp
   101a6:	0000                	unimp
   101a8:	6552                	flw	fa0,20(sp)
   101aa:	6f6d                	lui	t5,0x1b
   101ac:	6576                	flw	fa0,92(sp)
   101ae:	2820                	fld	fs0,80(s0)
   101b0:	6e75                	lui	t3,0x1d
   101b2:	696c                	flw	fa1,84(a0)
   101b4:	6b6e                	flw	fs6,216(sp)
   101b6:	2029                	jal	0x101c0
   101b8:	6874                	flw	fa3,84(s0)
   101ba:	2065                	jal	0x10262
   101bc:	4946                	lw	s2,80(sp)
   101be:	454c                	lw	a1,12(a0)
   101c0:	7328                	flw	fa0,96(a4)
   101c2:	2e29                	jal	0x104dc
   101c4:	000a                	c.slli	zero,0x2
   101c6:	0000                	unimp
   101c8:	7245                	lui	tp,0xffff1
   101ca:	6f72                	flw	ft10,28(sp)
   101cc:	3a72                	fld	fs4,312(sp)
   101ce:	4220                	lw	s0,64(a2)
   101d0:	6461                	lui	s0,0x18
   101d2:	6f20                	flw	fs0,88(a4)
   101d4:	7470                	flw	fa2,108(s0)
   101d6:	6f69                	lui	t5,0x1a
   101d8:	3a6e                	fld	fs4,248(sp)
   101da:	2520                	fld	fs0,72(a0)
   101dc:	00000a63          	beqz	zero,0x101f0
   101e0:	6e6e6163          	bltu	t3,t1,0x108c2
   101e4:	7220746f          	jal	s0,0x17906
   101e8:	6d65                	lui	s10,0x19
   101ea:	2065766f          	jal	a2,0x673f0
   101ee:	27732527          	fsw	fs7,618(t1) # 0xffffffffffff526a
   101f2:	203a                	fld	ft0,392(sp)
   101f4:	7349                	lui	t1,0xffff2
   101f6:	6120                	flw	fs0,64(a0)
   101f8:	6420                	flw	fs0,72(s0)
   101fa:	7269                	lui	tp,0xffffa
   101fc:	6365                	lui	t1,0x19
   101fe:	6f74                	flw	fa3,92(a4)
   10200:	7972                	flw	fs2,60(sp)
   10202:	000a                	c.slli	zero,0x2
   10204:	0000                	unimp
   10206:	0000                	unimp
   10208:	6e6e6163          	bltu	t3,t1,0x108ea
   1020c:	7220746f          	jal	s0,0x1792e
   10210:	6d65                	lui	s10,0x19
   10212:	2065766f          	jal	a2,0x67418
   10216:	27732527          	fsw	fs7,618(t1) # 0x1926a
   1021a:	203a                	fld	ft0,392(sp)
   1021c:	6f4e                	flw	ft10,208(sp)
   1021e:	7320                	flw	fs0,96(a4)
   10220:	6375                	lui	t1,0x1d
   10222:	2068                	fld	fa0,192(s0)
   10224:	6966                	flw	fs2,88(sp)
   10226:	656c                	flw	fa1,76(a0)
   10228:	6f20                	flw	fs0,88(a4)
   1022a:	2072                	fld	ft0,280(sp)
   1022c:	6964                	flw	fs1,84(a0)
   1022e:	6572                	flw	fa0,28(sp)
   10230:	726f7463          	bgeu	t5,t1,0x10958
   10234:	0a79                	addi	s4,s4,30
   10236:	0000                	unimp
   10238:	6c65                	lui	s8,0x19
   1023a:	006d                	c.nop	27
   1023c:	0000                	unimp
   1023e:	0000                	unimp
   10240:	742d                	lui	s0,0xfffeb
   10242:	0000                	unimp
   10244:	0000                	unimp
   10246:	0000                	unimp
   10248:	7355                	lui	t1,0xffff5
   1024a:	6761                	lui	a4,0x18
   1024c:	3a65                	jal	0xfc04
   1024e:	6d20                	flw	fs0,88(a0)
   10250:	2073666b          	0x2073666b
   10254:	20742d5b          	0x20742d5b
   10258:	7974                	flw	fa3,116(a0)
   1025a:	6570                	flw	fa2,76(a0)
   1025c:	205d                	jal	0x10302
   1025e:	6564                	flw	fs1,76(a0)
   10260:	6976                	flw	fs2,92(sp)
   10262:	000a6563          	bltu	s4,zero,0x1026c
   10266:	0000                	unimp
   10268:	6b6d                	lui	s6,0x1b
   1026a:	7366                	flw	ft6,120(sp)
   1026c:	6620                	flw	fs0,72(a2)
   1026e:	6961                	lui	s2,0x18
   10270:	656c                	flw	fa1,76(a0)
   10272:	2c64                	fld	fs1,216(s0)
   10274:	7220                	flw	fs0,96(a2)
   10276:	7365                	lui	t1,0xffff9
   10278:	6c75                	lui	s8,0x1d
   1027a:	3d74                	fld	fa3,248(a0)
   1027c:	6425                	lui	s0,0x9
   1027e:	000a                	c.slli	zero,0x2
   10280:	7355                	lui	t1,0xffff5
   10282:	6761                	lui	a4,0x18
   10284:	3a65                	jal	0xfc3c
   10286:	7520                	flw	fs0,104(a0)
   10288:	6d6e                	flw	fs10,216(sp)
   1028a:	746e756f          	jal	a0,0xf79d0
   1028e:	3c20                	fld	fs0,120(s0)
   10290:	6f6d                	lui	t5,0x1b
   10292:	6e75                	lui	t3,0x1d
   10294:	7074                	flw	fa3,100(s0)
   10296:	746e696f          	jal	s2,0xf69dc
   1029a:	2e3e                	fld	ft8,456(sp)
   1029c:	000a                	c.slli	zero,0x2
   1029e:	0000                	unimp
   102a0:	6e75                	lui	t3,0x1d
   102a2:	6f6d                	lui	t5,0x1b
   102a4:	6e75                	lui	t3,0x1d
   102a6:	2074                	fld	fa3,192(s0)
   102a8:	7325                	lui	t1,0xfffe9
   102aa:	2e20                	fld	fs0,88(a2)
   102ac:	2e2e                	fld	ft8,200(sp)
   102ae:	0020                	addi	s0,sp,8
   102b0:	6166                	flw	ft2,88(sp)
   102b2:	6c69                	lui	s8,0x1a
   102b4:	6465                	lui	s0,0x19
   102b6:	0a21                	addi	s4,s4,8
	...
   102c0:	63637573          	csrrci	a0,0x636,6
   102c4:	6565                	lui	a0,0x19
   102c6:	2164                	fld	fs1,192(a0)
   102c8:	000a                	c.slli	zero,0x2
   102ca:	0000                	unimp
   102cc:	0000                	unimp
   102ce:	0000                	unimp
   102d0:	7355                	lui	t1,0xffff5
   102d2:	6761                	lui	a4,0x18
   102d4:	3a65                	jal	0xfc8c
   102d6:	7420                	flw	fs0,104(s0)
   102d8:	6961                	lui	s2,0x18
   102da:	206c                	fld	fa1,192(s0)
   102dc:	206e2d5b          	0x206e2d5b
   102e0:	756e                	flw	fa0,248(sp)
   102e2:	626d                	lui	tp,0x1b
   102e4:	7265                	lui	tp,0xffff9
   102e6:	3c205d73          	csrrwi	s10,0x3c2,0
   102ea:	6966                	flw	fs2,88(sp)
   102ec:	656c                	flw	fa1,76(a0)
   102ee:	616e                	flw	ft2,216(sp)
   102f0:	656d                	lui	a0,0x1b
   102f2:	0a3e                	slli	s4,s4,0xf
   102f4:	0000                	unimp
   102f6:	0000                	unimp
   102f8:	6e2d                	lui	t3,0xb
   102fa:	0000                	unimp
   102fc:	0000                	unimp
   102fe:	0000                	unimp
   10300:	6946                	flw	fs2,80(sp)
   10302:	656c                	flw	fa1,76(a0)
   10304:	6420                	flw	fs0,72(s0)
   10306:	6e73656f          	jal	a0,0x471ec
   1030a:	65207427          	0x65207427
   1030e:	6978                	flw	fa4,84(a0)
   10310:	000a7473          	csrrci	s0,ustatus,20
   10314:	0000                	unimp
   10316:	0000                	unimp
   10318:	540a                	lw	s0,160(sp)
   1031a:	6c61746f          	jal	s0,0x279e0
   1031e:	4e20                	lw	s0,88(a2)
   10320:	6d75                	lui	s10,0x1d
   10322:	6562                	flw	fa0,24(sp)
   10324:	2072                	fld	ft0,280(sp)
   10326:	6c20666f          	jal	a2,0x169e8
   1032a:	6e69                	lui	t3,0x1a
   1032c:	7365                	lui	t1,0xffff9
   1032e:	253a                	fld	fa0,392(sp)
   10330:	0a64                	addi	s1,sp,284
   10332:	0000                	unimp
   10334:	0000                	unimp
   10336:	0000                	unimp
   10338:	450a                	lw	a0,128(sp)
   1033a:	7272                	flw	ft4,60(sp)
   1033c:	523a726f          	jal	tp,0xb805e
   10340:	7165                	addi	sp,sp,-400
   10342:	6975                	lui	s2,0x1d
   10344:	6572                	flw	fa0,28(sp)
   10346:	2064                	fld	fs1,192(s0)
   10348:	696c                	flw	fa1,84(a0)
   1034a:	656e                	flw	fa0,216(sp)
   1034c:	72612073          	csrs	0x726,sp
   10350:	2065                	jal	0x103f8
   10352:	6f6d                	lui	t5,0x1b
   10354:	6572                	flw	fa0,28(sp)
   10356:	7420                	flw	fs0,104(s0)
   10358:	6168                	flw	fa0,68(a0)
   1035a:	206e                	fld	ft0,216(sp)
   1035c:	6f74                	flw	fa3,92(a4)
   1035e:	6174                	flw	fa3,68(a0)
   10360:	206c                	fld	fa1,192(s0)
   10362:	756e                	flw	fa0,248(sp)
   10364:	626d                	lui	tp,0x1b
   10366:	7265                	lui	tp,0xffff9
   10368:	6f20                	flw	fs0,88(a4)
   1036a:	2066                	fld	ft0,88(sp)
   1036c:	696c                	flw	fa1,84(a0)
   1036e:	656e                	flw	fa0,216(sp)
   10370:	00000a73          	0xa73
   10374:	0000                	unimp
   10376:	0000                	unimp
   10378:	6552                	flw	fa0,20(sp)
   1037a:	7571                	lui	a0,0xffffc
   1037c:	7269                	lui	tp,0xffffa
   1037e:	6465                	lui	s0,0x19
   10380:	4e20                	lw	s0,88(a2)
   10382:	6d75                	lui	s10,0x1d
   10384:	6562                	flw	fa0,24(sp)
   10386:	2072                	fld	ft0,280(sp)
   10388:	6c20666f          	jal	a2,0x16a4a
   1038c:	6e69                	lui	t3,0x1a
   1038e:	7365                	lui	t1,0xffff9
   10390:	253a                	fld	fa0,392(sp)
   10392:	0a64                	addi	s1,sp,284
   10394:	0000                	unimp
   10396:	0000                	unimp
   10398:	7355                	lui	t1,0xffff5
   1039a:	6761                	lui	a4,0x18
   1039c:	3a65                	jal	0xfd54
   1039e:	6320                	flw	fs0,64(a4)
   103a0:	2070                	fld	fa2,192(s0)
   103a2:	52554f53          	0x52554f53
   103a6:	44204543          	0x44204543
   103aa:	5345                	li	t1,-15
   103ac:	0a54                	addi	a3,sp,276
   103ae:	0000                	unimp
   103b0:	79706f43          	fmadd.s	ft10,ft0,fs7,fa5,unknown
   103b4:	5320                	lw	s0,96(a4)
   103b6:	4352554f          	fnmadd.d	fa0,ft4,fs5,fs0,unknown
   103ba:	2045                	jal	0x1045a
   103bc:	6f74                	flw	fa3,92(a4)
   103be:	4420                	lw	s0,72(s0)
   103c0:	5345                	li	t1,-15
   103c2:	2e54                	fld	fa3,152(a2)
   103c4:	000a                	c.slli	zero,0x2
   103c6:	0000                	unimp
   103c8:	7355                	lui	t1,0xffff5
   103ca:	6761                	lui	a4,0x18
   103cc:	3a65                	jal	0xfd84
   103ce:	6d20                	flw	fs0,88(a0)
   103d0:	2076                	fld	ft0,344(sp)
   103d2:	52554f53          	0x52554f53
   103d6:	44204543          	0x44204543
   103da:	5345                	li	t1,-15
   103dc:	0a54                	addi	a3,sp,276
   103de:	0000                	unimp
   103e0:	6552                	flw	fa0,20(sp)
   103e2:	616e                	flw	ft2,216(sp)
   103e4:	656d                	lui	a0,0x1b
   103e6:	5320                	lw	s0,96(a4)
   103e8:	4352554f          	fnmadd.d	fa0,ft4,fs5,fs0,unknown
   103ec:	2045                	jal	0x1048c
   103ee:	6f74                	flw	fa3,92(a4)
   103f0:	4420                	lw	s0,72(s0)
   103f2:	5345                	li	t1,-15
   103f4:	2c54                	fld	fa3,152(s0)
   103f6:	6f20                	flw	fs0,88(a4)
   103f8:	2072                	fld	ft0,280(sp)
   103fa:	6f6d                	lui	t5,0x1b
   103fc:	6576                	flw	fa0,92(sp)
   103fe:	5320                	lw	s0,96(a4)
   10400:	4352554f          	fnmadd.d	fa0,ft4,fs5,fs0,unknown
   10404:	2845                	jal	0x104b4
   10406:	74202973          	csrr	s2,0x742
   1040a:	4944206f          	j	0x5289e
   1040e:	4552                	lw	a0,20(sp)
   10410:	524f5443          	fmadd.d	fs0,ft10,ft4,fa0,unknown
   10414:	2e59                	jal	0x107aa
   10416:	000a                	c.slli	zero,0x2
   10418:	7325                	lui	t1,0xfffe9
   1041a:	3d20                	fld	fs0,120(a0)
   1041c:	203e                	fld	ft0,456(sp)
   1041e:	7325                	lui	t1,0xfffe9
   10420:	000a                	c.slli	zero,0x2
   10422:	0000                	unimp
   10424:	0000                	unimp
   10426:	0000                	unimp
   10428:	7355                	lui	t1,0xffff5
   1042a:	6761                	lui	a4,0x18
   1042c:	3a65                	jal	0xfde4
   1042e:	6320                	flw	fs0,64(a4)
   10430:	7461                	lui	s0,0xffff8
   10432:	5b20                	lw	s0,112(a4)
   10434:	4946                	lw	s2,80(sp)
   10436:	454c                	lw	a1,12(a0)
   10438:	2e5d                	jal	0x107ee
   1043a:	2e2e                	fld	ft8,200(sp)
   1043c:	000a                	c.slli	zero,0x2
   1043e:	0000                	unimp
   10440:	636e6f43          	fmadd.d	ft10,ft8,fs6,fa2,unknown
   10444:	7461                	lui	s0,0xffff8
   10446:	6e65                	lui	t3,0x19
   10448:	7461                	lui	s0,0xffff8
   1044a:	2065                	jal	0x104f2
   1044c:	4946                	lw	s2,80(sp)
   1044e:	454c                	lw	a1,12(a0)
   10450:	7328                	flw	fa0,96(a4)
   10452:	0a29                	addi	s4,s4,10
   10454:	0000                	unimp
   10456:	0000                	unimp
   10458:	6f4e                	flw	ft10,208(sp)
   1045a:	7320                	flw	fs0,96(a4)
   1045c:	6375                	lui	t1,0x1d
   1045e:	2068                	fld	fa0,192(s0)
   10460:	6964                	flw	fs1,84(a0)
   10462:	6572                	flw	fa0,28(sp)
   10464:	726f7463          	bgeu	t5,t1,0x10b8c
   10468:	3a79                	jal	0xfe06
   1046a:	2520                	fld	fs0,72(a0)
   1046c:	00000a73          	0xa73
   10470:	7355                	lui	t1,0xffff5
   10472:	6761                	lui	a4,0x18
   10474:	3a65                	jal	0xfe2c
   10476:	6d20                	flw	fs0,88(a0)
   10478:	7269646b          	0x7269646b
   1047c:	5b20                	lw	s0,112(a4)
   1047e:	4954504f          	fnmadd.s	ft0,fs0,fs5,fs1,unknown
   10482:	205d4e4f          	fnmadd.s	ft8,fs10,ft5,ft4,rmm
   10486:	4944                	lw	s1,20(a0)
   10488:	4552                	lw	a0,20(sp)
   1048a:	524f5443          	fmadd.d	fs0,ft10,ft4,fa0,unknown
   1048e:	0a59                	addi	s4,s4,22
	...
   10498:	61657243          	fmadd.s	ft4,fa0,fs6,fa2
   1049c:	6574                	flw	fa3,76(a0)
   1049e:	7420                	flw	fs0,104(s0)
   104a0:	6568                	flw	fa0,76(a0)
   104a2:	4420                	lw	s0,72(s0)
   104a4:	5249                	li	tp,-14
   104a6:	4345                	li	t1,17
   104a8:	4f54                	lw	a3,28(a4)
   104aa:	5952                	lw	s2,52(sp)
   104ac:	202c                	fld	fa1,64(s0)
   104ae:	6669                	lui	a2,0x1a
   104b0:	7420                	flw	fs0,104(s0)
   104b2:	6568                	flw	fa0,76(a0)
   104b4:	2079                	jal	0x10542
   104b6:	6f64                	flw	fs1,92(a4)
   104b8:	6e20                	flw	fs0,88(a2)
   104ba:	6120746f          	jal	s0,0x17acc
   104be:	726c                	flw	fa1,100(a2)
   104c0:	6165                	addi	sp,sp,112
   104c2:	7964                	flw	fs1,116(a0)
   104c4:	6520                	flw	fs0,72(a0)
   104c6:	6978                	flw	fa4,84(a0)
   104c8:	0a2e7473          	csrrci	s0,0xa2,28
   104cc:	0000                	unimp
   104ce:	0000                	unimp
   104d0:	6966                	flw	fs2,88(sp)
   104d2:	656c                	flw	fa1,76(a0)
   104d4:	74737973          	csrrci	s2,0x747,6
   104d8:	6d65                	lui	s10,0x19
   104da:	2020                	fld	fs0,64(s0)
   104dc:	6564                	flw	fs1,76(a0)
   104de:	6976                	flw	fs2,92(sp)
   104e0:	20206563          	bltu	zero,sp,0x106ea
   104e4:	6f6d                	lui	t5,0x1b
   104e6:	6e75                	lui	t3,0x1d
   104e8:	7074                	flw	fa3,100(s0)
   104ea:	746e696f          	jal	s2,0xf6c30
   104ee:	000a                	c.slli	zero,0x2
   104f0:	2d2d                	jal	0x10b2a
   104f2:	2d2d                	jal	0x10b2c
   104f4:	2d2d                	jal	0x10b2e
   104f6:	2d2d                	jal	0x10b30
   104f8:	2d2d                	jal	0x10b32
   104fa:	2020                	fld	fs0,64(s0)
   104fc:	2d2d                	jal	0x10b36
   104fe:	2d2d                	jal	0x10b38
   10500:	2d2d                	jal	0x10b3a
   10502:	2020                	fld	fs0,64(s0)
   10504:	2d2d                	jal	0x10b3e
   10506:	2d2d                	jal	0x10b40
   10508:	2d2d                	jal	0x10b42
   1050a:	2d2d                	jal	0x10b44
   1050c:	2d2d                	jal	0x10b46
   1050e:	000a                	c.slli	zero,0x2
   10510:	2d25                	jal	0x10b48
   10512:	3031                	jal	0xfd1e
   10514:	25202073          	csrr	zero,0x252
   10518:	362d                	jal	0x10042
   1051a:	25202073          	csrr	zero,0x252
   1051e:	732d                	lui	t1,0xfffeb
   10520:	000a                	c.slli	zero,0x2
   10522:	0000                	unimp
   10524:	0000                	unimp
   10526:	0000                	unimp
   10528:	6f6d                	lui	t5,0x1b
   1052a:	6e75                	lui	t3,0x1d
   1052c:	2074                	fld	fa3,192(s0)
   1052e:	6564                	flw	fs1,76(a0)
   10530:	6976                	flw	fs2,92(sp)
   10532:	25206563          	bltu	zero,s2,0x1077c
   10536:	73252873          	csrrs	a6,0x732,a0
   1053a:	2029                	jal	0x10544
   1053c:	6f746e6f          	jal	t3,0x57432
   10540:	2520                	fld	fs0,72(a0)
   10542:	2e2e2073          	csrs	0x2e2,t3
   10546:	202e                	fld	ft0,200(sp)
	...
   10550:	7355                	lui	t1,0xffff5
   10552:	6761                	lui	a4,0x18
   10554:	3a65                	jal	0xff0c
   10556:	6d20                	flw	fs0,88(a0)
   10558:	746e756f          	jal	a0,0xf7c9e
   1055c:	3c20                	fld	fs0,120(s0)
   1055e:	6564                	flw	fs1,76(a0)
   10560:	6976                	flw	fs2,92(sp)
   10562:	203e6563          	bltu	t3,gp,0x1076c
   10566:	6d3c                	flw	fa5,88(a0)
   10568:	746e756f          	jal	a0,0xf7cae
   1056c:	6f70                	flw	fa2,92(a4)
   1056e:	6e69                	lui	t3,0x1a
   10570:	3e74                	fld	fa3,248(a2)
   10572:	3c20                	fld	fs0,120(s0)
   10574:	7366                	flw	ft6,120(sp)
   10576:	7974                	flw	fa3,116(a0)
   10578:	6570                	flw	fa2,76(a0)
   1057a:	2e3e                	fld	ft8,456(sp)
   1057c:	000a                	c.slli	zero,0x2
   1057e:	0000                	unimp
   10580:	2d2d                	jal	0x10bba
   10582:	6568                	flw	fa0,76(a0)
   10584:	706c                	flw	fa1,100(s0)
   10586:	0000                	unimp
   10588:	682d                	lui	a6,0xb
   1058a:	0000                	unimp
   1058c:	0000                	unimp
   1058e:	0000                	unimp
   10590:	6664                	flw	fs1,76(a2)
   10592:	5b20                	lw	s0,112(a4)
   10594:	6170                	flw	fa2,68(a0)
   10596:	6874                	flw	fa3,84(s0)
   10598:	0a5d                	addi	s4,s4,23
   1059a:	0000                	unimp
   1059c:	0000                	unimp
   1059e:	0000                	unimp
   105a0:	6e65706f          	j	0x67c86
   105a4:	6620                	flw	fs0,72(a2)
   105a6:	6c69                	lui	s8,0x1a
   105a8:	3a65                	jal	0xff60
   105aa:	7325                	lui	t1,0xfffe9
   105ac:	6620                	flw	fs0,72(a2)
   105ae:	6961                	lui	s2,0x18
   105b0:	656c                	flw	fa1,76(a0)
   105b2:	2164                	fld	fs1,192(a0)
   105b4:	000a                	c.slli	zero,0x2
   105b6:	0000                	unimp
   105b8:	7355                	lui	t1,0xffff5
   105ba:	6761                	lui	a4,0x18
   105bc:	3a65                	jal	0xff74
   105be:	6520                	flw	fs0,72(a0)
   105c0:	206f6863          	bltu	t5,t1,0x107d0
   105c4:	7322                	flw	ft6,40(sp)
   105c6:	7274                	flw	fa3,100(a2)
   105c8:	6e69                	lui	t3,0x1a
   105ca:	5b202267          	0x5b202267
   105ce:	6966                	flw	fs2,88(sp)
   105d0:	656c                	flw	fa1,76(a0)
   105d2:	616e                	flw	ft2,216(sp)
   105d4:	656d                	lui	a0,0x1b
   105d6:	0a5d                	addi	s4,s4,23
	...
   105e0:	732e                	flw	ft6,232(sp)
   105e2:	0068                	addi	a0,sp,12
   105e4:	0000                	unimp
   105e6:	0000                	unimp
   105e8:	532e                	lw	t1,232(sp)
   105ea:	0048                	addi	a0,sp,4
   105ec:	0000                	unimp
   105ee:	0000                	unimp
   105f0:	6e69622f          	0x6e69622f
   105f4:	2a2e252f          	0x2a2e252f
   105f8:	00000073          	ecall
   105fc:	0000                	unimp
   105fe:	0000                	unimp
   10600:	7270                	flw	fa2,100(a2)
   10602:	6e69                	lui	t3,0x1a
   10604:	2074                	fld	fa3,192(s0)
   10606:	6874                	flw	fa3,84(s0)
   10608:	2065                	jal	0x106b0
   1060a:	616c                	flw	fa1,68(a0)
   1060c:	4e207473          	csrrci	s0,0x4e2,0
   10610:	6c2d                	lui	s8,0xb
   10612:	6e69                	lui	t3,0x1a
   10614:	7365                	lui	t1,0xffff9
   10616:	6420                	flw	fs0,72(s0)
   10618:	7461                	lui	s0,0xffff8
   1061a:	2061                	jal	0x106a2
   1061c:	7420666f          	jal	a2,0x16d5e
   10620:	6568                	flw	fa0,76(a0)
   10622:	6720                	flw	fs0,72(a4)
   10624:	7669                	lui	a2,0xffffa
   10626:	6e65                	lui	t3,0x19
   10628:	6620                	flw	fs0,72(a2)
   1062a:	6c69                	lui	s8,0x1a
   1062c:	0065                	c.nop	25
   1062e:	0000                	unimp
   10630:	5f5f 6d63 5f64      	0x5f646d635f5f
   10636:	6174                	flw	fa3,68(a0)
   10638:	6c69                	lui	s8,0x1a
   1063a:	0000                	unimp
   1063c:	0000                	unimp
   1063e:	0000                	unimp
   10640:	6365                	lui	t1,0x19
   10642:	6f68                	flw	fa0,92(a4)
   10644:	7320                	flw	fs0,96(a4)
   10646:	7274                	flw	fa3,100(a2)
   10648:	6e69                	lui	t3,0x1a
   1064a:	6f742067          	0x6f742067
   1064e:	6620                	flw	fs0,72(a2)
   10650:	6c69                	lui	s8,0x1a
   10652:	0065                	c.nop	25
   10654:	0000                	unimp
   10656:	0000                	unimp
   10658:	5f5f 6d63 5f64      	0x5f646d635f5f
   1065e:	6365                	lui	t1,0x19
   10660:	6f68                	flw	fa0,92(a4)
   10662:	0000                	unimp
   10664:	0000                	unimp
   10666:	0000                	unimp
   10668:	6964                	flw	fs1,84(a0)
   1066a:	66206b73          	csrrsi	s6,0x662,0
   1066e:	6572                	flw	fa0,28(sp)
   10670:	0065                	c.nop	25
   10672:	0000                	unimp
   10674:	0000                	unimp
   10676:	0000                	unimp
   10678:	5f5f 6d63 5f64      	0x5f646d635f5f
   1067e:	6664                	flw	fs1,76(a2)
	...
   10688:	6e55                	lui	t3,0x15
   1068a:	6f6d                	lui	t5,0x1b
   1068c:	6e75                	lui	t3,0x1d
   1068e:	2074                	fld	fa3,192(s0)
   10690:	6564                	flw	fs1,76(a0)
   10692:	6976                	flw	fs2,92(sp)
   10694:	66206563          	bltu	zero,sp,0x10cfe
   10698:	6f72                	flw	ft10,28(sp)
   1069a:	206d                	jal	0x10744
   1069c:	6966                	flw	fs2,88(sp)
   1069e:	656c                	flw	fa1,76(a0)
   106a0:	7320                	flw	fs0,96(a4)
   106a2:	7379                	lui	t1,0xffffe
   106a4:	6574                	flw	fa3,76(a0)
   106a6:	006d                	c.nop	27
   106a8:	5f5f 6d63 5f64      	0x5f646d635f5f
   106ae:	6d75                	lui	s10,0x1d
   106b0:	746e756f          	jal	a0,0xf7df6
   106b4:	0000                	unimp
   106b6:	0000                	unimp
   106b8:	6f6d                	lui	t5,0x1b
   106ba:	6e75                	lui	t3,0x1d
   106bc:	2074                	fld	fa3,192(s0)
   106be:	643c                	flw	fa5,72(s0)
   106c0:	7665                	lui	a2,0xffff9
   106c2:	6369                	lui	t1,0x1a
   106c4:	3e65                	jal	0x1027c
   106c6:	3c20                	fld	fs0,120(s0)
   106c8:	6f6d                	lui	t5,0x1b
   106ca:	6e75                	lui	t3,0x1d
   106cc:	7074                	flw	fa3,100(s0)
   106ce:	746e696f          	jal	s2,0xf6e14
   106d2:	203e                	fld	ft0,456(sp)
   106d4:	663c                	flw	fa5,72(a2)
   106d6:	70797473          	csrrci	s0,0x707,18
   106da:	3e65                	jal	0x10292
   106dc:	0000                	unimp
   106de:	0000                	unimp
   106e0:	5f5f 6d63 5f64      	0x5f646d635f5f
   106e6:	6f6d                	lui	t5,0x1b
   106e8:	6e75                	lui	t3,0x1d
   106ea:	0074                	addi	a3,sp,12
   106ec:	0000                	unimp
   106ee:	0000                	unimp
   106f0:	6f66                	flw	ft10,88(sp)
   106f2:	6d72                	flw	fs10,28(sp)
   106f4:	7461                	lui	s0,0xffff8
   106f6:	6420                	flw	fs0,72(s0)
   106f8:	7369                	lui	t1,0xffffa
   106fa:	6977206b          	0x6977206b
   106fe:	6874                	flw	fa3,84(s0)
   10700:	6620                	flw	fs0,72(a2)
   10702:	6c69                	lui	s8,0x1a
   10704:	2065                	jal	0x107ac
   10706:	74737973          	csrrci	s2,0x747,6
   1070a:	6d65                	lui	s10,0x19
   1070c:	0000                	unimp
   1070e:	0000                	unimp
   10710:	5f5f 6d63 5f64      	0x5f646d635f5f
   10716:	6b6d                	lui	s6,0x1b
   10718:	7366                	flw	ft6,120(sp)
   1071a:	0000                	unimp
   1071c:	0000                	unimp
   1071e:	0000                	unimp
   10720:	61657243          	fmadd.s	ft4,fa0,fs6,fa2
   10724:	6574                	flw	fa3,76(a0)
   10726:	7420                	flw	fs0,104(s0)
   10728:	6568                	flw	fa0,76(a0)
   1072a:	4420                	lw	s0,72(s0)
   1072c:	5249                	li	tp,-14
   1072e:	4345                	li	t1,17
   10730:	4f54                	lw	a3,28(a4)
   10732:	5952                	lw	s2,52(sp)
   10734:	002e                	c.slli	zero,0xb
   10736:	0000                	unimp
   10738:	5f5f 6d63 5f64      	0x5f646d635f5f
   1073e:	6b6d                	lui	s6,0x1b
   10740:	6964                	flw	fs1,84(a0)
   10742:	0072                	c.slli	zero,0x1c
   10744:	0000                	unimp
   10746:	0000                	unimp
   10748:	7250                	flw	fa2,36(a2)
   1074a:	6e69                	lui	t3,0x1a
   1074c:	2074                	fld	fa3,192(s0)
   1074e:	6874                	flw	fa3,84(s0)
   10750:	2065                	jal	0x107f8
   10752:	616e                	flw	ft2,216(sp)
   10754:	656d                	lui	a0,0x1b
   10756:	6f20                	flw	fs0,88(a4)
   10758:	2066                	fld	ft0,88(sp)
   1075a:	6874                	flw	fa3,84(s0)
   1075c:	2065                	jal	0x10804
   1075e:	72727563          	bgeu	tp,t2,0x10e88
   10762:	6e65                	lui	t3,0x19
   10764:	2074                	fld	fa3,192(s0)
   10766:	6b726f77          	0x6b726f77
   1076a:	6e69                	lui	t3,0x1a
   1076c:	69642067          	0x69642067
   10770:	6572                	flw	fa0,28(sp)
   10772:	726f7463          	bgeu	t5,t1,0x10e9a
   10776:	2e79                	jal	0x10b14
	...
   10780:	5f5f 6d63 5f64      	0x5f646d635f5f
   10786:	7770                	flw	fa2,108(a4)
   10788:	0064                	addi	s1,sp,12
   1078a:	0000                	unimp
   1078c:	0000                	unimp
   1078e:	0000                	unimp
   10790:	6e616843          	fmadd.q	fa6,ft2,ft6,fa3,unknown
   10794:	74206567          	0x74206567
   10798:	6568                	flw	fa0,76(a0)
   1079a:	7320                	flw	fs0,96(a4)
   1079c:	6568                	flw	fa0,76(a0)
   1079e:	6c6c                	flw	fa1,92(s0)
   107a0:	7720                	flw	fs0,104(a4)
   107a2:	696b726f          	jal	tp,0xc7e38
   107a6:	676e                	flw	fa4,216(sp)
   107a8:	6420                	flw	fs0,72(s0)
   107aa:	7269                	lui	tp,0xffffa
   107ac:	6365                	lui	t1,0x19
   107ae:	6f74                	flw	fa3,92(a4)
   107b0:	7972                	flw	fs2,60(sp)
   107b2:	002e                	c.slli	zero,0xb
   107b4:	0000                	unimp
   107b6:	0000                	unimp
   107b8:	5f5f 6d63 5f64      	0x5f646d635f5f
   107be:	00006463          	bltu	zero,zero,0x107c6
   107c2:	0000                	unimp
   107c4:	0000                	unimp
   107c6:	0000                	unimp
   107c8:	6552                	flw	fa0,20(sp)
   107ca:	6f6d                	lui	t5,0x1b
   107cc:	6576                	flw	fa0,92(sp)
   107ce:	7528                	flw	fa0,104(a0)
   107d0:	6c6e                	flw	fs8,216(sp)
   107d2:	6e69                	lui	t3,0x1a
   107d4:	7420296b          	0x7420296b
   107d8:	6568                	flw	fa0,76(a0)
   107da:	4620                	lw	s0,72(a2)
   107dc:	4c49                	li	s8,18
   107de:	2845                	jal	0x1088e
   107e0:	002e2973          	csrrs	s2,frm,t3
   107e4:	0000                	unimp
   107e6:	0000                	unimp
   107e8:	5f5f 6d63 5f64      	0x5f646d635f5f
   107ee:	6d72                	flw	fs10,28(sp)
	...
   107f8:	636e6f43          	fmadd.d	ft10,ft8,fs6,fa2,unknown
   107fc:	7461                	lui	s0,0xffff8
   107fe:	6e65                	lui	t3,0x19
   10800:	7461                	lui	s0,0xffff8
   10802:	2065                	jal	0x108aa
   10804:	4946                	lw	s2,80(sp)
   10806:	454c                	lw	a1,12(a0)
   10808:	7328                	flw	fa0,96(a4)
   1080a:	0029                	c.nop	10
   1080c:	0000                	unimp
   1080e:	0000                	unimp
   10810:	5f5f 6d63 5f64      	0x5f646d635f5f
   10816:	00746163          	bltu	s0,t2,0x10818
   1081a:	0000                	unimp
   1081c:	0000                	unimp
   1081e:	0000                	unimp
   10820:	6552                	flw	fa0,20(sp)
   10822:	616e                	flw	ft2,216(sp)
   10824:	656d                	lui	a0,0x1b
   10826:	5320                	lw	s0,96(a4)
   10828:	4352554f          	fnmadd.d	fa0,ft4,fs5,fs0,unknown
   1082c:	2045                	jal	0x108cc
   1082e:	6f74                	flw	fa3,92(a4)
   10830:	4420                	lw	s0,72(s0)
   10832:	5345                	li	t1,-15
   10834:	2e54                	fld	fa3,152(a2)
   10836:	0000                	unimp
   10838:	5f5f 6d63 5f64      	0x5f646d635f5f
   1083e:	766d                	lui	a2,0xffffb
	...
   10848:	79706f43          	fmadd.s	ft10,ft0,fs7,fa5,unknown
   1084c:	5320                	lw	s0,96(a4)
   1084e:	4352554f          	fnmadd.d	fa0,ft4,fs5,fs0,unknown
   10852:	2045                	jal	0x108f2
   10854:	6f74                	flw	fa3,92(a4)
   10856:	4420                	lw	s0,72(s0)
   10858:	5345                	li	t1,-15
   1085a:	2e54                	fld	fa3,152(a2)
   1085c:	0000                	unimp
   1085e:	0000                	unimp
   10860:	5f5f 6d63 5f64      	0x5f646d635f5f
   10866:	00007063          	bgeu	zero,zero,0x10866
   1086a:	0000                	unimp
   1086c:	0000                	unimp
   1086e:	0000                	unimp
   10870:	694c                	flw	fa1,20(a0)
   10872:	69207473          	csrrci	s0,0x692,0
   10876:	666e                	flw	fa2,216(sp)
   10878:	616d726f          	jal	tp,0xe7e8e
   1087c:	6974                	flw	fa3,84(a0)
   1087e:	61206e6f          	jal	t3,0x16e90
   10882:	6f62                	flw	ft10,24(sp)
   10884:	7475                	lui	s0,0xffffd
   10886:	7420                	flw	fs0,104(s0)
   10888:	6568                	flw	fa0,76(a0)
   1088a:	4620                	lw	s0,72(a2)
   1088c:	4c49                	li	s8,18
   1088e:	7345                	lui	t1,0xffff1
   10890:	002e                	c.slli	zero,0xb
   10892:	0000                	unimp
   10894:	0000                	unimp
   10896:	0000                	unimp
   10898:	5f5f 6d63 5f64      	0x5f646d635f5f
   1089e:	736c                	flw	fa1,100(a4)
	...
   108a8:	5452                	lw	s0,52(sp)
   108aa:	542d                	li	s0,-21
   108ac:	7268                	flw	fa0,100(a2)
   108ae:	6165                	addi	sp,sp,112
   108b0:	2064                	fld	fs1,192(s0)
   108b2:	6c656873          	csrrsi	a6,0x6c6,10
   108b6:	206c                	fld	fa1,192(s0)
   108b8:	6d6d6f63          	bltu	s10,s6,0x10f96
   108bc:	6e61                	lui	t3,0x18
   108be:	7364                	flw	fs1,100(a4)
   108c0:	0a3a                	slli	s4,s4,0xe
   108c2:	0000                	unimp
   108c4:	0000                	unimp
   108c6:	0000                	unimp
   108c8:	5f5f 6d63 5f64      	0x5f646d635f5f
   108ce:	0000                	unimp
   108d0:	2d25                	jal	0x10f08
   108d2:	3631                	jal	0x103de
   108d4:	202d2073          	csrs	hedeleg,s10
   108d8:	7325                	lui	t1,0xfffe9
   108da:	000a                	c.slli	zero,0x2
   108dc:	0000                	unimp
   108de:	0000                	unimp
   108e0:	6f54                	flw	fa3,28(a4)
   108e2:	616d206f          	j	0xe2ef8
   108e6:	796e                	flw	fs2,248(sp)
   108e8:	6120                	flw	fs0,64(a0)
   108ea:	6772                	flw	fa4,28(sp)
   108ec:	20212073          	csrs	hedeleg,sp
   108f0:	6f206557          	0x6f206557
   108f4:	6c6e                	flw	fs8,216(sp)
   108f6:	2079                	jal	0x10984
   108f8:	7355                	lui	t1,0xffff5
   108fa:	3a65                	jal	0x102b2
   108fc:	000a                	c.slli	zero,0x2
   108fe:	0000                	unimp
   10900:	7325                	lui	t1,0xfffe9
   10902:	0020                	addi	s0,sp,8
   10904:	0000                	unimp
   10906:	0000                	unimp
   10908:	7325                	lui	t1,0xfffe9
   1090a:	203a                	fld	ft0,392(sp)
   1090c:	6d6d6f63          	bltu	s10,s6,0x10fea
   10910:	6e61                	lui	t3,0x18
   10912:	2064                	fld	fs1,192(s0)
   10914:	6f6e                	flw	ft10,216(sp)
   10916:	2074                	fld	fa3,192(s0)
   10918:	6f66                	flw	ft10,88(sp)
   1091a:	6e75                	lui	t3,0x1d
   1091c:	2e64                	fld	fs1,216(a2)
   1091e:	000a                	c.slli	zero,0x2
   10920:	776f6853          	0x776f6853
   10924:	7420                	flw	fs0,104(s0)
   10926:	6568                	flw	fa0,76(a0)
   10928:	6d20                	flw	fs0,88(a0)
   1092a:	6d65                	lui	s10,0x19
   1092c:	2079726f          	jal	tp,0xa8332
   10930:	7375                	lui	t1,0xffffd
   10932:	6761                	lui	a4,0x18
   10934:	2065                	jal	0x109dc
   10936:	6e69                	lui	t3,0x1a
   10938:	7420                	flw	fs0,104(s0)
   1093a:	6568                	flw	fa0,76(a0)
   1093c:	7320                	flw	fs0,96(a4)
   1093e:	7379                	lui	t1,0xffffe
   10940:	6574                	flw	fa3,76(a0)
   10942:	2e6d                	jal	0x10cfc
   10944:	0000                	unimp
   10946:	0000                	unimp
   10948:	5f5f 6d63 5f64      	0x5f646d635f5f
   1094e:	7266                	flw	ft4,120(sp)
   10950:	6565                	lui	a0,0x19
   10952:	0000                	unimp
   10954:	0000                	unimp
   10956:	0000                	unimp
   10958:	694c                	flw	fa1,20(a0)
   1095a:	74207473          	csrrci	s0,0x742,0
   1095e:	7268                	flw	fa0,100(a2)
   10960:	6165                	addi	sp,sp,112
   10962:	7364                	flw	fs1,100(a4)
   10964:	6920                	flw	fs0,80(a0)
   10966:	206e                	fld	ft0,216(sp)
   10968:	6874                	flw	fa3,84(s0)
   1096a:	2065                	jal	0x10a12
   1096c:	74737973          	csrrci	s2,0x747,6
   10970:	6d65                	lui	s10,0x19
   10972:	002e                	c.slli	zero,0xb
   10974:	0000                	unimp
   10976:	0000                	unimp
   10978:	5f5f 6d63 5f64      	0x5f646d635f5f
   1097e:	7370                	flw	fa2,100(a4)
	...
   10988:	5452                	lw	s0,52(sp)
   1098a:	542d                	li	s0,-21
   1098c:	7268                	flw	fa0,100(a2)
   1098e:	6165                	addi	sp,sp,112
   10990:	2064                	fld	fs1,192(s0)
   10992:	6c656873          	csrrsi	a6,0x6c6,10
   10996:	206c                	fld	fa1,192(s0)
   10998:	6568                	flw	fa0,76(a0)
   1099a:	706c                	flw	fa1,100(s0)
   1099c:	002e                	c.slli	zero,0xb
   1099e:	0000                	unimp
   109a0:	5f5f 6d63 5f64      	0x5f646d635f5f
   109a6:	6568                	flw	fa0,76(a0)
   109a8:	706c                	flw	fa1,100(s0)
   109aa:	0000                	unimp
   109ac:	0000                	unimp
   109ae:	0000                	unimp
   109b0:	d040                	sw	s0,36(s0)
   109b2:	8000                	0x8000
   109b4:	0000                	unimp
   109b6:	0000                	unimp
   109b8:	d030                	sw	a2,96(s0)
   109ba:	8000                	0x8000
   109bc:	0000                	unimp
   109be:	0000                	unimp
   109c0:	031c                	addi	a5,sp,384
   109c2:	8000                	0x8000
   109c4:	0000                	unimp
   109c6:	0000                	unimp
   109c8:	d5c8                	sw	a0,44(a1)
   109ca:	8000                	0x8000
   109cc:	0000                	unimp
   109ce:	0000                	unimp
   109d0:	d5a8                	sw	a0,104(a1)
   109d2:	8000                	0x8000
   109d4:	0000                	unimp
   109d6:	0000                	unimp
   109d8:	0be4                	addi	s1,sp,476
   109da:	8000                	0x8000
   109dc:	0000                	unimp
   109de:	0000                	unimp
   109e0:	d5f0                	sw	a2,108(a1)
   109e2:	8000                	0x8000
   109e4:	0000                	unimp
   109e6:	0000                	unimp
   109e8:	d5d8                	sw	a4,44(a1)
   109ea:	8000                	0x8000
   109ec:	0000                	unimp
   109ee:	0000                	unimp
   109f0:	0eac                	addi	a1,sp,856
   109f2:	8000                	0x8000
   109f4:	0000                	unimp
   109f6:	0000                	unimp
   109f8:	d620                	sw	s0,104(a2)
   109fa:	8000                	0x8000
   109fc:	0000                	unimp
   109fe:	0000                	unimp
   10a00:	d600                	sw	s0,40(a2)
   10a02:	8000                	0x8000
   10a04:	0000                	unimp
   10a06:	0000                	unimp
   10a08:	0b98                	addi	a4,sp,464
   10a0a:	8000                	0x8000
   10a0c:	0000                	unimp
   10a0e:	0000                	unimp
   10a10:	ebd8                	fsw	fa4,20(a5)
   10a12:	8000                	0x8000
   10a14:	0000                	unimp
   10a16:	0000                	unimp
   10a18:	ebb0                	fsw	fa2,80(a5)
   10a1a:	8000                	0x8000
   10a1c:	0000                	unimp
   10a1e:	0000                	unimp
   10a20:	6eb0                	flw	fa2,88(a3)
   10a22:	8000                	0x8000
   10a24:	0000                	unimp
   10a26:	0000                	unimp
   10a28:	ec00                	fsw	fs0,24(s0)
   10a2a:	8000                	0x8000
   10a2c:	0000                	unimp
   10a2e:	0000                	unimp
   10a30:	ebe0                	fsw	fs0,84(a5)
   10a32:	8000                	0x8000
   10a34:	0000                	unimp
   10a36:	0000                	unimp
   10a38:	6e48                	flw	fa0,28(a2)
   10a3a:	8000                	0x8000
   10a3c:	0000                	unimp
   10a3e:	0000                	unimp
   10a40:	ec28                	fsw	fa0,88(s0)
   10a42:	8000                	0x8000
   10a44:	0000                	unimp
   10a46:	0000                	unimp
   10a48:	ec08                	fsw	fa0,24(s0)
   10a4a:	8000                	0x8000
   10a4c:	0000                	unimp
   10a4e:	0000                	unimp
   10a50:	6dd0                	flw	fa2,28(a1)
   10a52:	8000                	0x8000
   10a54:	0000                	unimp
   10a56:	0000                	unimp
   10a58:	ec50                	fsw	fa2,28(s0)
   10a5a:	8000                	0x8000
   10a5c:	0000                	unimp
   10a5e:	0000                	unimp
   10a60:	ec38                	fsw	fa4,88(s0)
   10a62:	8000                	0x8000
   10a64:	0000                	unimp
   10a66:	0000                	unimp
   10a68:	6d58                	flw	fa4,28(a0)
   10a6a:	8000                	0x8000
   10a6c:	0000                	unimp
   10a6e:	0000                	unimp
   10a70:	ee58                	fsw	fa4,28(a2)
   10a72:	8000                	0x8000
   10a74:	0000                	unimp
   10a76:	0000                	unimp
   10a78:	ee40                	fsw	fs0,28(a2)
   10a7a:	8000                	0x8000
   10a7c:	0000                	unimp
   10a7e:	0000                	unimp
   10a80:	79c4                	flw	fs1,52(a1)
   10a82:	8000                	0x8000
   10a84:	0000                	unimp
   10a86:	0000                	unimp
   10a88:	ee70                	fsw	fa2,92(a2)
   10a8a:	8000                	0x8000
   10a8c:	0000                	unimp
   10a8e:	0000                	unimp
   10a90:	ee60                	fsw	fs0,92(a2)
   10a92:	8000                	0x8000
   10a94:	0000                	unimp
   10a96:	0000                	unimp
   10a98:	716c                	flw	fa1,100(a0)
   10a9a:	8000                	0x8000
   10a9c:	0000                	unimp
   10a9e:	0000                	unimp
   10aa0:	ee98                	fsw	fa4,24(a3)
   10aa2:	8000                	0x8000
   10aa4:	0000                	unimp
   10aa6:	0000                	unimp
   10aa8:	ee78                	fsw	fa4,92(a2)
   10aaa:	8000                	0x8000
   10aac:	0000                	unimp
   10aae:	0000                	unimp
   10ab0:	7328                	flw	fa0,96(a4)
   10ab2:	8000                	0x8000
   10ab4:	0000                	unimp
   10ab6:	0000                	unimp
   10ab8:	eeb8                	fsw	fa4,88(a3)
   10aba:	8000                	0x8000
   10abc:	0000                	unimp
   10abe:	0000                	unimp
   10ac0:	eea0                	fsw	fs0,88(a3)
   10ac2:	8000                	0x8000
   10ac4:	0000                	unimp
   10ac6:	0000                	unimp
   10ac8:	7658                	flw	fa4,44(a2)
   10aca:	8000                	0x8000
   10acc:	0000                	unimp
   10ace:	0000                	unimp
   10ad0:	eee8                	fsw	fa0,92(a3)
   10ad2:	8000                	0x8000
   10ad4:	0000                	unimp
   10ad6:	0000                	unimp
   10ad8:	eec0                	fsw	fs0,28(a3)
   10ada:	8000                	0x8000
   10adc:	0000                	unimp
   10ade:	0000                	unimp
   10ae0:	8294                	0x8294
   10ae2:	8000                	0x8000
   10ae4:	0000                	unimp
   10ae6:	0000                	unimp
   10ae8:	ef08                	fsw	fa0,24(a4)
   10aea:	8000                	0x8000
   10aec:	0000                	unimp
   10aee:	0000                	unimp
   10af0:	eef0                	fsw	fa2,92(a3)
   10af2:	8000                	0x8000
   10af4:	0000                	unimp
   10af6:	0000                	unimp
   10af8:	7c50                	flw	fa2,60(s0)
   10afa:	8000                	0x8000
   10afc:	0000                	unimp
   10afe:	0000                	unimp
   10b00:	f098                	fsw	fa4,32(s1)
   10b02:	8000                	0x8000
   10b04:	0000                	unimp
   10b06:	0000                	unimp
   10b08:	f088                	fsw	fa0,32(s1)
   10b0a:	8000                	0x8000
   10b0c:	0000                	unimp
   10b0e:	0000                	unimp
   10b10:	8aa0                	0x8aa0
   10b12:	8000                	0x8000
   10b14:	0000                	unimp
   10b16:	0000                	unimp
   10b18:	f0b8                	fsw	fa4,96(s1)
   10b1a:	8000                	0x8000
   10b1c:	0000                	unimp
   10b1e:	0000                	unimp
   10b20:	f0a0                	fsw	fs0,96(s1)
   10b22:	8000                	0x8000
   10b24:	0000                	unimp
   10b26:	0000                	unimp
   10b28:	8a5c                	0x8a5c
   10b2a:	8000                	0x8000
   10b2c:	0000                	unimp
   10b2e:	0000                	unimp
   10b30:	f230                	fsw	fa2,96(a2)
   10b32:	8000                	0x8000
   10b34:	0000                	unimp
   10b36:	0000                	unimp
   10b38:	f218                	fsw	fa4,32(a2)
   10b3a:	8000                	0x8000
   10b3c:	0000                	unimp
   10b3e:	0000                	unimp
   10b40:	8bac                	0x8bac
   10b42:	8000                	0x8000
   10b44:	0000                	unimp
   10b46:	0000                	unimp
   10b48:	fd38                	fsw	fa4,120(a0)
   10b4a:	8000                	0x8000
   10b4c:	0000                	unimp
   10b4e:	0000                	unimp
   10b50:	fd18                	fsw	fa4,56(a0)
   10b52:	8000                	0x8000
   10b54:	0000                	unimp
   10b56:	0000                	unimp
   10b58:	aa24                	fsd	fs1,80(a2)
   10b5a:	8000                	0x8000
   10b5c:	0000                	unimp
   10b5e:	0000                	unimp
   10b60:	fd58                	fsw	fa4,60(a0)
   10b62:	8000                	0x8000
   10b64:	0000                	unimp
   10b66:	0000                	unimp
   10b68:	fd40                	fsw	fs0,60(a0)
   10b6a:	8000                	0x8000
   10b6c:	0000                	unimp
   10b6e:	0000                	unimp
   10b70:	ae38                	fsd	fa4,88(a2)
   10b72:	8000                	0x8000
   10b74:	0000                	unimp
   10b76:	0000                	unimp
   10b78:	fd88                	fsw	fa0,56(a1)
   10b7a:	8000                	0x8000
   10b7c:	0000                	unimp
   10b7e:	0000                	unimp
   10b80:	fd70                	fsw	fa2,124(a0)
   10b82:	8000                	0x8000
   10b84:	0000                	unimp
   10b86:	0000                	unimp
   10b88:	ae38                	fsd	fa4,88(a2)
   10b8a:	8000                	0x8000
   10b8c:	0000                	unimp
   10b8e:	0000                	unimp
   10b90:	fdb0                	fsw	fa2,120(a1)
   10b92:	8000                	0x8000
   10b94:	0000                	unimp
   10b96:	0000                	unimp
   10b98:	fd98                	fsw	fa4,56(a1)
   10b9a:	8000                	0x8000
   10b9c:	0000                	unimp
   10b9e:	0000                	unimp
   10ba0:	b0c4                	fsd	fs1,160(s1)
   10ba2:	8000                	0x8000
   10ba4:	0000                	unimp
   10ba6:	0000                	unimp
   10ba8:	fde0                	fsw	fs0,124(a1)
   10baa:	8000                	0x8000
   10bac:	0000                	unimp
   10bae:	0000                	unimp
   10bb0:	fdc8                	fsw	fa0,60(a1)
   10bb2:	8000                	0x8000
   10bb4:	0000                	unimp
   10bb6:	0000                	unimp
   10bb8:	b0c4                	fsd	fs1,160(s1)
   10bba:	8000                	0x8000
   10bbc:	0000                	unimp
   10bbe:	0000                	unimp
   10bc0:	fe10                	fsw	fa2,56(a2)
   10bc2:	8000                	0x8000
   10bc4:	0000                	unimp
   10bc6:	0000                	unimp
   10bc8:	fdf0                	fsw	fa2,124(a1)
   10bca:	8000                	0x8000
   10bcc:	0000                	unimp
   10bce:	0000                	unimp
   10bd0:	b864                	fsd	fs1,240(s0)
   10bd2:	8000                	0x8000
   10bd4:	0000                	unimp
   10bd6:	0000                	unimp
   10bd8:	fe48                	fsw	fa0,60(a2)
   10bda:	8000                	0x8000
   10bdc:	0000                	unimp
   10bde:	0000                	unimp
   10be0:	fe28                	fsw	fa0,120(a2)
   10be2:	8000                	0x8000
   10be4:	0000                	unimp
   10be6:	0000                	unimp
   10be8:	b864                	fsd	fs1,240(s0)
   10bea:	8000                	0x8000
   10bec:	0000                	unimp
   10bee:	0000                	unimp
   10bf0:	fe78                	fsw	fa4,124(a2)
   10bf2:	8000                	0x8000
   10bf4:	0000                	unimp
   10bf6:	0000                	unimp
   10bf8:	fe58                	fsw	fa4,60(a2)
   10bfa:	8000                	0x8000
   10bfc:	0000                	unimp
   10bfe:	0000                	unimp
   10c00:	b3ac                	fsd	fa1,96(a5)
   10c02:	8000                	0x8000
   10c04:	0000                	unimp
   10c06:	0000                	unimp
   10c08:	feb0                	fsw	fa2,120(a3)
   10c0a:	8000                	0x8000
   10c0c:	0000                	unimp
   10c0e:	0000                	unimp
   10c10:	fe90                	fsw	fa2,56(a3)
   10c12:	8000                	0x8000
   10c14:	0000                	unimp
   10c16:	0000                	unimp
   10c18:	b3ac                	fsd	fa1,96(a5)
   10c1a:	8000                	0x8000
   10c1c:	0000                	unimp
   10c1e:	0000                	unimp
   10c20:	fed8                	fsw	fa4,60(a3)
   10c22:	8000                	0x8000
   10c24:	0000                	unimp
   10c26:	0000                	unimp
   10c28:	fec0                	fsw	fs0,60(a3)
   10c2a:	8000                	0x8000
   10c2c:	0000                	unimp
   10c2e:	0000                	unimp
   10c30:	b6cc                	fsd	fa1,168(a3)
   10c32:	8000                	0x8000
   10c34:	0000                	unimp
   10c36:	0000                	unimp
   10c38:	ff08                	fsw	fa0,56(a4)
   10c3a:	8000                	0x8000
   10c3c:	0000                	unimp
   10c3e:	0000                	unimp
   10c40:	fef0                	fsw	fa2,124(a3)
   10c42:	8000                	0x8000
   10c44:	0000                	unimp
   10c46:	0000                	unimp
   10c48:	b6cc                	fsd	fa1,168(a3)
   10c4a:	8000                	0x8000
   10c4c:	0000                	unimp
   10c4e:	0000                	unimp
   10c50:	ff30                	fsw	fa2,120(a4)
   10c52:	8000                	0x8000
   10c54:	0000                	unimp
   10c56:	0000                	unimp
   10c58:	ff18                	fsw	fa4,56(a4)
   10c5a:	8000                	0x8000
   10c5c:	0000                	unimp
   10c5e:	0000                	unimp
   10c60:	af94                	fsd	fa3,24(a5)
   10c62:	8000                	0x8000
   10c64:	0000                	unimp
   10c66:	0000                	unimp
   10c68:	ff60                	fsw	fs0,124(a4)
   10c6a:	8000                	0x8000
   10c6c:	0000                	unimp
   10c6e:	0000                	unimp
   10c70:	ff48                	fsw	fa0,60(a4)
   10c72:	8000                	0x8000
   10c74:	0000                	unimp
   10c76:	0000                	unimp
   10c78:	af94                	fsd	fa3,24(a5)
   10c7a:	8000                	0x8000
   10c7c:	0000                	unimp
   10c7e:	0000                	unimp
   10c80:	ff88                	fsw	fa0,56(a5)
   10c82:	8000                	0x8000
   10c84:	0000                	unimp
   10c86:	0000                	unimp
   10c88:	ff70                	fsw	fa2,124(a4)
   10c8a:	8000                	0x8000
   10c8c:	0000                	unimp
   10c8e:	0000                	unimp
   10c90:	b228                	fsd	fa0,96(a2)
   10c92:	8000                	0x8000
   10c94:	0000                	unimp
   10c96:	0000                	unimp
   10c98:	ffb8                	fsw	fa4,120(a5)
   10c9a:	8000                	0x8000
   10c9c:	0000                	unimp
   10c9e:	0000                	unimp
   10ca0:	ffa0                	fsw	fs0,120(a5)
   10ca2:	8000                	0x8000
   10ca4:	0000                	unimp
   10ca6:	0000                	unimp
   10ca8:	b228                	fsd	fa0,96(a2)
   10caa:	8000                	0x8000
   10cac:	0000                	unimp
   10cae:	0000                	unimp
   10cb0:	ffe8                	fsw	fa0,124(a5)
   10cb2:	8000                	0x8000
   10cb4:	0000                	unimp
   10cb6:	0000                	unimp
   10cb8:	ffc8                	fsw	fa0,60(a5)
   10cba:	8000                	0x8000
   10cbc:	0000                	unimp
   10cbe:	0000                	unimp
   10cc0:	b53c                	fsd	fa5,104(a0)
   10cc2:	8000                	0x8000
   10cc4:	0000                	unimp
   10cc6:	0000                	unimp
   10cc8:	0018                	0x18
   10cca:	8001                	c.srli64	s0
   10ccc:	0000                	unimp
   10cce:	0000                	unimp
   10cd0:	fff8                	fsw	fa4,124(a5)
   10cd2:	8000                	0x8000
   10cd4:	0000                	unimp
   10cd6:	0000                	unimp
   10cd8:	b53c                	fsd	fa5,104(a0)
   10cda:	8000                	0x8000
   10cdc:	0000                	unimp
   10cde:	0000                	unimp
   10ce0:	0038                	addi	a4,sp,8
   10ce2:	8001                	c.srli64	s0
   10ce4:	0000                	unimp
   10ce6:	0000                	unimp
   10ce8:	0028                	addi	a0,sp,8
   10cea:	8001                	c.srli64	s0
   10cec:	0000                	unimp
   10cee:	0000                	unimp
   10cf0:	abec                	fsd	fa1,208(a5)
   10cf2:	8000                	0x8000
   10cf4:	0000                	unimp
   10cf6:	0000                	unimp
   10cf8:	0060                	addi	s0,sp,12
   10cfa:	8001                	c.srli64	s0
   10cfc:	0000                	unimp
   10cfe:	0000                	unimp
   10d00:	0050                	addi	a2,sp,4
   10d02:	8001                	c.srli64	s0
   10d04:	0000                	unimp
   10d06:	0000                	unimp
   10d08:	abec                	fsd	fa1,208(a5)
   10d0a:	8000                	0x8000
   10d0c:	0000                	unimp
   10d0e:	0000                	unimp
   10d10:	0098                	addi	a4,sp,64
   10d12:	8001                	c.srli64	s0
   10d14:	0000                	unimp
   10d16:	0000                	unimp
   10d18:	0070                	addi	a2,sp,12
   10d1a:	8001                	c.srli64	s0
   10d1c:	0000                	unimp
   10d1e:	0000                	unimp
   10d20:	aa08                	fsd	fa0,16(a2)
   10d22:	8000                	0x8000
   10d24:	0000                	unimp
   10d26:	0000                	unimp
   10d28:	00d0                	addi	a2,sp,68
   10d2a:	8001                	c.srli64	s0
   10d2c:	0000                	unimp
   10d2e:	0000                	unimp
   10d30:	00a8                	addi	a0,sp,72
   10d32:	8001                	c.srli64	s0
   10d34:	0000                	unimp
   10d36:	0000                	unimp
   10d38:	aa08                	fsd	fa0,16(a2)
   10d3a:	8000                	0x8000
   10d3c:	0000                	unimp
   10d3e:	0000                	unimp
   10d40:	00f8                	addi	a4,sp,76
   10d42:	8001                	c.srli64	s0
   10d44:	0000                	unimp
   10d46:	0000                	unimp
   10d48:	00d8                	addi	a4,sp,68
   10d4a:	8001                	c.srli64	s0
   10d4c:	0000                	unimp
   10d4e:	0000                	unimp
   10d50:	a970                	fsd	fa2,208(a0)
   10d52:	8000                	0x8000
   10d54:	0000                	unimp
   10d56:	0000                	unimp
   10d58:	0128                	addi	a0,sp,136
   10d5a:	8001                	c.srli64	s0
   10d5c:	0000                	unimp
   10d5e:	0000                	unimp
   10d60:	0108                	addi	a0,sp,128
   10d62:	8001                	c.srli64	s0
   10d64:	0000                	unimp
   10d66:	0000                	unimp
   10d68:	a970                	fsd	fa2,208(a0)
   10d6a:	8000                	0x8000
   10d6c:	0000                	unimp
   10d6e:	0000                	unimp
   10d70:	0140                	addi	s0,sp,132
   10d72:	8001                	c.srli64	s0
   10d74:	0000                	unimp
   10d76:	0000                	unimp
   10d78:	0130                	addi	a2,sp,136
   10d7a:	8001                	c.srli64	s0
   10d7c:	0000                	unimp
   10d7e:	0000                	unimp
   10d80:	a94c                	fsd	fa1,144(a0)
   10d82:	8000                	0x8000
   10d84:	0000                	unimp
   10d86:	0000                	unimp
   10d88:	0630                	addi	a2,sp,776
   10d8a:	8001                	c.srli64	s0
   10d8c:	0000                	unimp
   10d8e:	0000                	unimp
   10d90:	0600                	addi	s0,sp,768
   10d92:	8001                	c.srli64	s0
   10d94:	0000                	unimp
   10d96:	0000                	unimp
   10d98:	bf78                	fsd	fa4,248(a4)
   10d9a:	8000                	0x8000
   10d9c:	0000                	unimp
   10d9e:	0000                	unimp
   10da0:	0658                	addi	a4,sp,772
   10da2:	8001                	c.srli64	s0
   10da4:	0000                	unimp
   10da6:	0000                	unimp
   10da8:	0640                	addi	s0,sp,772
   10daa:	8001                	c.srli64	s0
   10dac:	0000                	unimp
   10dae:	0000                	unimp
   10db0:	c56c                	sw	a1,76(a0)
   10db2:	8000                	0x8000
   10db4:	0000                	unimp
   10db6:	0000                	unimp
   10db8:	0678                	addi	a4,sp,780
   10dba:	8001                	c.srli64	s0
   10dbc:	0000                	unimp
   10dbe:	0000                	unimp
   10dc0:	0668                	addi	a0,sp,780
   10dc2:	8001                	c.srli64	s0
   10dc4:	0000                	unimp
   10dc6:	0000                	unimp
   10dc8:	c4f4                	sw	a3,76(s1)
   10dca:	8000                	0x8000
   10dcc:	0000                	unimp
   10dce:	0000                	unimp
   10dd0:	06a8                	addi	a0,sp,840
   10dd2:	8001                	c.srli64	s0
   10dd4:	0000                	unimp
   10dd6:	0000                	unimp
   10dd8:	0688                	addi	a0,sp,832
   10dda:	8001                	c.srli64	s0
   10ddc:	0000                	unimp
   10dde:	0000                	unimp
   10de0:	bf04                	fsd	fs1,56(a4)
   10de2:	8000                	0x8000
   10de4:	0000                	unimp
   10de6:	0000                	unimp
   10de8:	06e0                	addi	s0,sp,844
   10dea:	8001                	c.srli64	s0
   10dec:	0000                	unimp
   10dee:	0000                	unimp
   10df0:	06b8                	addi	a4,sp,840
   10df2:	8001                	c.srli64	s0
   10df4:	0000                	unimp
   10df6:	0000                	unimp
   10df8:	c3e8                	sw	a0,68(a5)
   10dfa:	8000                	0x8000
   10dfc:	0000                	unimp
   10dfe:	0000                	unimp
   10e00:	0710                	addi	a2,sp,896
   10e02:	8001                	c.srli64	s0
   10e04:	0000                	unimp
   10e06:	0000                	unimp
   10e08:	06f0                	addi	a2,sp,844
   10e0a:	8001                	c.srli64	s0
   10e0c:	0000                	unimp
   10e0e:	0000                	unimp
   10e10:	be7c                	fsd	fa5,248(a2)
   10e12:	8000                	0x8000
   10e14:	0000                	unimp
   10e16:	0000                	unimp
   10e18:	0738                	addi	a4,sp,904
   10e1a:	8001                	c.srli64	s0
   10e1c:	0000                	unimp
   10e1e:	0000                	unimp
   10e20:	0720                	addi	s0,sp,904
   10e22:	8001                	c.srli64	s0
   10e24:	0000                	unimp
   10e26:	0000                	unimp
   10e28:	c39c                	sw	a5,0(a5)
   10e2a:	8000                	0x8000
   10e2c:	0000                	unimp
   10e2e:	0000                	unimp
   10e30:	0780                	addi	s0,sp,960
   10e32:	8001                	c.srli64	s0
   10e34:	0000                	unimp
   10e36:	0000                	unimp
   10e38:	0748                	addi	a0,sp,900
   10e3a:	8001                	c.srli64	s0
   10e3c:	0000                	unimp
   10e3e:	0000                	unimp
   10e40:	ba24                	fsd	fs1,112(a2)
   10e42:	8000                	0x8000
   10e44:	0000                	unimp
   10e46:	0000                	unimp
   10e48:	07b8                	addi	a4,sp,968
   10e4a:	8001                	c.srli64	s0
   10e4c:	0000                	unimp
   10e4e:	0000                	unimp
   10e50:	0790                	addi	a2,sp,960
   10e52:	8001                	c.srli64	s0
   10e54:	0000                	unimp
   10e56:	0000                	unimp
   10e58:	c338                	sw	a4,64(a4)
   10e5a:	8000                	0x8000
   10e5c:	0000                	unimp
   10e5e:	0000                	unimp
   10e60:	07e8                	addi	a0,sp,972
   10e62:	8001                	c.srli64	s0
   10e64:	0000                	unimp
   10e66:	0000                	unimp
   10e68:	07c8                	addi	a0,sp,964
   10e6a:	8001                	c.srli64	s0
   10e6c:	0000                	unimp
   10e6e:	0000                	unimp
   10e70:	bc94                	fsd	fa3,56(s1)
   10e72:	8000                	0x8000
   10e74:	0000                	unimp
   10e76:	0000                	unimp
   10e78:	0810                	addi	a2,sp,16
   10e7a:	8001                	c.srli64	s0
   10e7c:	0000                	unimp
   10e7e:	0000                	unimp
   10e80:	07f8                	addi	a4,sp,972
   10e82:	8001                	c.srli64	s0
   10e84:	0000                	unimp
   10e86:	0000                	unimp
   10e88:	c2b8                	sw	a4,64(a3)
   10e8a:	8000                	0x8000
   10e8c:	0000                	unimp
   10e8e:	0000                	unimp
   10e90:	0838                	addi	a4,sp,24
   10e92:	8001                	c.srli64	s0
   10e94:	0000                	unimp
   10e96:	0000                	unimp
   10e98:	0820                	addi	s0,sp,24
   10e9a:	8001                	c.srli64	s0
   10e9c:	0000                	unimp
   10e9e:	0000                	unimp
   10ea0:	c17c                	sw	a5,68(a0)
   10ea2:	8000                	0x8000
   10ea4:	0000                	unimp
   10ea6:	0000                	unimp
   10ea8:	0860                	addi	s0,sp,28
   10eaa:	8001                	c.srli64	s0
   10eac:	0000                	unimp
   10eae:	0000                	unimp
   10eb0:	0848                	addi	a0,sp,20
   10eb2:	8001                	c.srli64	s0
   10eb4:	0000                	unimp
   10eb6:	0000                	unimp
   10eb8:	c130                	sw	a2,64(a0)
   10eba:	8000                	0x8000
   10ebc:	0000                	unimp
   10ebe:	0000                	unimp
   10ec0:	0898                	addi	a4,sp,80
   10ec2:	8001                	c.srli64	s0
   10ec4:	0000                	unimp
   10ec6:	0000                	unimp
   10ec8:	0870                	addi	a2,sp,28
   10eca:	8001                	c.srli64	s0
   10ecc:	0000                	unimp
   10ece:	0000                	unimp
   10ed0:	b9f0                	fsd	fa2,240(a1)
   10ed2:	8000                	0x8000
   10ed4:	0000                	unimp
   10ed6:	0000                	unimp
   10ed8:	0948                	addi	a0,sp,148
   10eda:	8001                	c.srli64	s0
   10edc:	0000                	unimp
   10ede:	0000                	unimp
   10ee0:	0920                	addi	s0,sp,152
   10ee2:	8001                	c.srli64	s0
   10ee4:	0000                	unimp
   10ee6:	0000                	unimp
   10ee8:	c918                	sw	a4,16(a0)
   10eea:	8000                	0x8000
   10eec:	0000                	unimp
   10eee:	0000                	unimp
   10ef0:	0978                	addi	a4,sp,156
   10ef2:	8001                	c.srli64	s0
   10ef4:	0000                	unimp
   10ef6:	0000                	unimp
   10ef8:	0958                	addi	a4,sp,148
   10efa:	8001                	c.srli64	s0
   10efc:	0000                	unimp
   10efe:	0000                	unimp
   10f00:	c8fc                	sw	a5,84(s1)
   10f02:	8000                	0x8000
   10f04:	0000                	unimp
   10f06:	0000                	unimp
   10f08:	09a0                	addi	s0,sp,216
   10f0a:	8001                	c.srli64	s0
   10f0c:	0000                	unimp
   10f0e:	0000                	unimp
   10f10:	0988                	addi	a0,sp,208
   10f12:	8001                	c.srli64	s0
   10f14:	0000                	unimp
   10f16:	0000                	unimp
   10f18:	c84c                	sw	a1,20(s0)
   10f1a:	8000                	0x8000
   10f1c:	0000                	unimp
   10f1e:	0000                	unimp
   10f20:	46cc                	lw	a1,12(a3)
   10f22:	8000                	0x8000
   10f24:	0000                	unimp
   10f26:	0000                	unimp
   10f28:	46dc                	lw	a5,12(a3)
   10f2a:	8000                	0x8000
   10f2c:	0000                	unimp
   10f2e:	0000                	unimp
   10f30:	46e4                	lw	s1,76(a3)
   10f32:	8000                	0x8000
   10f34:	0000                	unimp
   10f36:	0000                	unimp
   10f38:	8d4c                	0x8d4c
   10f3a:	8000                	0x8000
   10f3c:	0000                	unimp
   10f3e:	0000                	unimp
   10f40:	9ce4                	0x9ce4
   10f42:	8000                	0x8000
   10f44:	0000                	unimp
   10f46:	0000                	unimp
   10f48:	a170                	fsd	fa2,192(a0)
   10f4a:	8000                	0x8000
   10f4c:	0000                	unimp
   10f4e:	0000                	unimp
   10f50:	46d4                	lw	a3,12(a3)
   10f52:	8000                	0x8000
   10f54:	0000                	unimp
   10f56:	0000                	unimp
   10f58:	c200                	sw	s0,0(a2)
   10f5a:	0001                	nop
   10f5c:	0008                	0x8
   10f5e:	0001                	nop
   10f60:	7472                	flw	fs0,60(sp)
   10f62:	665f 6572 0065      	0x656572665f
   10f68:	6466                	flw	fs0,88(sp)
   10f6a:	705f 7475 0000      	0x7475705f
   10f70:	0f70                	addi	a2,sp,924
   10f72:	8001                	c.srli64	s0
   10f74:	0000                	unimp
   10f76:	0000                	unimp
   10f78:	0f70                	addi	a2,sp,924
   10f7a:	8001                	c.srli64	s0
   10f7c:	0000                	unimp
   10f7e:	0000                	unimp
   10f80:	0001                	nop
   10f82:	0000                	unimp
   10f84:	0000                	unimp
   10f86:	0000                	unimp
   10f88:	0f88                	addi	a0,sp,976
   10f8a:	8001                	c.srli64	s0
   10f8c:	0000                	unimp
   10f8e:	0000                	unimp
   10f90:	0f88                	addi	a0,sp,976
   10f92:	8001                	c.srli64	s0
   10f94:	0000                	unimp
   10f96:	0000                	unimp
   10f98:	00e8                	addi	a0,sp,76
   10f9a:	0000                	unimp
   10f9c:	0000                	unimp
   10f9e:	0000                	unimp
   10fa0:	0002                	c.slli64	zero
   10fa2:	0000                	unimp
   10fa4:	0000                	unimp
   10fa6:	0000                	unimp
   10fa8:	0fa8                	addi	a0,sp,984
   10faa:	8001                	c.srli64	s0
   10fac:	0000                	unimp
   10fae:	0000                	unimp
   10fb0:	0fa8                	addi	a0,sp,984
   10fb2:	8001                	c.srli64	s0
   10fb4:	0000                	unimp
   10fb6:	0000                	unimp
   10fb8:	0040                	addi	s0,sp,4
   10fba:	0000                	unimp
   10fbc:	0000                	unimp
   10fbe:	0000                	unimp
   10fc0:	00000003          	lb	zero,0(zero) # 0x0
   10fc4:	0000                	unimp
   10fc6:	0000                	unimp
   10fc8:	0fc8                	addi	a0,sp,980
   10fca:	8001                	c.srli64	s0
   10fcc:	0000                	unimp
   10fce:	0000                	unimp
   10fd0:	0fc8                	addi	a0,sp,980
   10fd2:	8001                	c.srli64	s0
   10fd4:	0000                	unimp
   10fd6:	0000                	unimp
   10fd8:	0048                	addi	a0,sp,4
   10fda:	0000                	unimp
   10fdc:	0000                	unimp
   10fde:	0000                	unimp
   10fe0:	0004                	0x4
   10fe2:	0000                	unimp
   10fe4:	0000                	unimp
   10fe6:	0000                	unimp
   10fe8:	0fe8                	addi	a0,sp,988
   10fea:	8001                	c.srli64	s0
   10fec:	0000                	unimp
   10fee:	0000                	unimp
   10ff0:	0fe8                	addi	a0,sp,988
   10ff2:	8001                	c.srli64	s0
   10ff4:	0000                	unimp
   10ff6:	0000                	unimp
   10ff8:	0040                	addi	s0,sp,4
   10ffa:	0000                	unimp
   10ffc:	0000                	unimp
   10ffe:	0000                	unimp
   11000:	0005                	c.nop	1
   11002:	0000                	unimp
   11004:	0000                	unimp
   11006:	0000                	unimp
   11008:	1008                	addi	a0,sp,32
   1100a:	8001                	c.srli64	s0
   1100c:	0000                	unimp
   1100e:	0000                	unimp
   11010:	1008                	addi	a0,sp,32
   11012:	8001                	c.srli64	s0
   11014:	0000                	unimp
   11016:	0000                	unimp
   11018:	0058                	addi	a4,sp,4
   1101a:	0000                	unimp
   1101c:	0000                	unimp
   1101e:	0000                	unimp
   11020:	0006                	c.slli	zero,0x1
   11022:	0000                	unimp
   11024:	0000                	unimp
   11026:	0000                	unimp
   11028:	1028                	addi	a0,sp,40
   1102a:	8001                	c.srli64	s0
   1102c:	0000                	unimp
   1102e:	0000                	unimp
   11030:	1028                	addi	a0,sp,40
   11032:	8001                	c.srli64	s0
   11034:	0000                	unimp
   11036:	0000                	unimp
   11038:	0070                	addi	a2,sp,12
   1103a:	0000                	unimp
   1103c:	0000                	unimp
   1103e:	0000                	unimp
   11040:	0008                	0x8
   11042:	0000                	unimp
   11044:	0000                	unimp
   11046:	0000                	unimp
   11048:	1048                	addi	a0,sp,36
   1104a:	8001                	c.srli64	s0
   1104c:	0000                	unimp
   1104e:	0000                	unimp
   11050:	1048                	addi	a0,sp,36
   11052:	8001                	c.srli64	s0
   11054:	0000                	unimp
   11056:	0000                	unimp
   11058:	0068                	addi	a0,sp,12
   1105a:	0000                	unimp
   1105c:	0000                	unimp
   1105e:	0000                	unimp
   11060:	0009                	c.nop	2
   11062:	0000                	unimp
   11064:	0000                	unimp
   11066:	0000                	unimp
   11068:	1068                	addi	a0,sp,44
   1106a:	8001                	c.srli64	s0
   1106c:	0000                	unimp
   1106e:	0000                	unimp
   11070:	1068                	addi	a0,sp,44
   11072:	8001                	c.srli64	s0
   11074:	0000                	unimp
   11076:	0000                	unimp
   11078:	0080                	addi	s0,sp,64
   1107a:	0000                	unimp
   1107c:	0000                	unimp
   1107e:	0000                	unimp
   11080:	000a                	c.slli	zero,0x2
   11082:	0000                	unimp
   11084:	0000                	unimp
   11086:	0000                	unimp
   11088:	1088                	addi	a0,sp,96
   1108a:	8001                	c.srli64	s0
   1108c:	0000                	unimp
   1108e:	0000                	unimp
   11090:	1088                	addi	a0,sp,96
   11092:	8001                	c.srli64	s0
   11094:	0000                	unimp
   11096:	0000                	unimp
   11098:	0050                	addi	a2,sp,4
   1109a:	0000                	unimp
   1109c:	0000                	unimp
   1109e:	0000                	unimp
   110a0:	0000002f          	0x2f
	...
   111a0:	01              	Address 0x00000000000111a0 is out of bounds.

